----------------
IN: 
0x3ffdde08:  e59fa094      ldr	sl, [pc, #148]	; 0x3ffddea4
0x3ffdde0c:  e59f4094      ldr	r4, [pc, #148]	; 0x3ffddea8
0x3ffdde10:  e1a0000d      mov	r0, sp
0x3ffdde14:  eb000299      bl	0x3ffde880

----------------
IN: 
0x3ffde880:  e92d4ff0      push	{r4, r5, r6, r7, r8, r9, sl, fp, lr}
0x3ffde884:  e28db020      add	fp, sp, #32	; 0x20
0x3ffde888:  e24dd04c      sub	sp, sp, #76	; 0x4c
0x3ffde88c:  e59f189c      ldr	r1, [pc, #2204]	; 0x3ffdf130
0x3ffde890:  e59f289c      ldr	r2, [pc, #2204]	; 0x3ffdf134
0x3ffde894:  e08f1001      add	r1, pc, r1
0x3ffde898:  e08f2002      add	r2, pc, r2
0x3ffde89c:  e5923000      ldr	r3, [r2]
0x3ffde8a0:  e5d1c78a      ldrb	ip, [r1, #1930]
0x3ffde8a4:  e59f788c      ldr	r7, [pc, #2188]	; 0x3ffdf138
0x3ffde8a8:  e3ccc020      bic	ip, ip, #32	; 0x20
0x3ffde8ac:  e08f7007      add	r7, pc, r7
0x3ffde8b0:  e3530000      cmp	r3, #0	; 0x0
0x3ffde8b4:  e5c1c78a      strb	ip, [r1, #1930]
0x3ffde8b8:  e58175f0      str	r7, [r1, #1520]
0x3ffde8bc:  e58125f8      str	r2, [r1, #1528]
0x3ffde8c0:  e50b005c      str	r0, [fp, #-92]
0x3ffde8c4:  0a00001f      beq	0x3ffde948

----------------
IN: 
0x3ffde8c8:  e3e0c209      mvn	ip, #-1879048192	; 0x90000000
0x3ffde8cc:  e59f1868      ldr	r1, [pc, #2152]	; 0x3ffdf13c
0x3ffde8d0:  e59f4868      ldr	r4, [pc, #2152]	; 0x3ffdf140
0x3ffde8d4:  e08f1001      add	r1, pc, r1
0x3ffde8d8:  e59f6864      ldr	r6, [pc, #2148]	; 0x3ffdf144
0x3ffde8dc:  e59f8864      ldr	r8, [pc, #2148]	; 0x3ffdf148
0x3ffde8e0:  e59f5864      ldr	r5, [pc, #2148]	; 0x3ffdf14c
0x3ffde8e4:  e59fe864      ldr	lr, [pc, #2148]	; 0x3ffdf150
0x3ffde8e8:  e2811e61      add	r1, r1, #1552	; 0x610
0x3ffde8ec:  e3530022      cmp	r3, #34	; 0x22
0x3ffde8f0:  9a000010      bls	0x3ffde938

----------------
IN: 
0x3ffde938:  e7812103      str	r2, [r1, r3, lsl #2]
0x3ffde93c:  e5b23008      ldr	r3, [r2, #8]!
0x3ffde940:  e3530000      cmp	r3, #0	; 0x0
0x3ffde944:  1affffe8      bne	0x3ffde8ec

----------------
IN: 
0x3ffde8ec:  e3530022      cmp	r3, #34	; 0x22
0x3ffde8f0:  9a000010      bls	0x3ffde938

----------------
IN: 
0x3ffde8f4:  e04c0003      sub	r0, ip, r3
0x3ffde8f8:  e350000f      cmp	r0, #15	; 0xf
0x3ffde8fc:  904e3003      subls	r3, lr, r3
0x3ffde900:  9a00000c      bls	0x3ffde938

----------------
IN: 
0x3ffde904:  e1a00083      lsl	r0, r3, #1
0x3ffde908:  e3700008      cmn	r0, #8	; 0x8
0x3ffde90c:  e1a000c0      asr	r0, r0, #1
0x3ffde910:  82603032      rsbhi	r3, r0, #50	; 0x32
0x3ffde914:  8a000007      bhi	0x3ffde938

----------------
IN: 
0x3ffde918:  e0440003      sub	r0, r4, r3
0x3ffde91c:  e350000b      cmp	r0, #11	; 0xb
0x3ffde920:  90453003      subls	r3, r5, r3
0x3ffde924:  9a000003      bls	0x3ffde938

----------------
IN: 
0x3ffde928:  e0460003      sub	r0, r6, r3
0x3ffde92c:  e350000a      cmp	r0, #10	; 0xa
0x3ffde930:  8a000001      bhi	0x3ffde93c

----------------
IN: 
0x3ffde934:  e0483003      sub	r3, r8, r3
0x3ffde938:  e7812103      str	r2, [r1, r3, lsl #2]
0x3ffde93c:  e5b23008      ldr	r3, [r2, #8]!
0x3ffde940:  e3530000      cmp	r3, #0	; 0x0
0x3ffde944:  1affffe8      bne	0x3ffde8ec

----------------
IN: 
0x3ffde948:  e59f3804      ldr	r3, [pc, #2052]	; 0x3ffdf154
0x3ffde94c:  e08f3003      add	r3, pc, r3
0x3ffde950:  e5d3478a      ldrb	r4, [r3, #1930]
0x3ffde954:  e2144020      ands	r4, r4, #32	; 0x20
0x3ffde958:  1a00003c      bne	0x3ffdea50

----------------
IN: 
0x3ffde95c:  e5933620      ldr	r3, [r3, #1568]
0x3ffde960:  e3530000      cmp	r3, #0	; 0x0
0x3ffde964:  15932004      ldrne	r2, [r3, #4]
0x3ffde968:  10822007      addne	r2, r2, r7
0x3ffde96c:  15832004      strne	r2, [r3, #4]
0x3ffde970:  e59f37e0      ldr	r3, [pc, #2016]	; 0x3ffdf158
0x3ffde974:  e08f3003      add	r3, pc, r3
0x3ffde978:  e593361c      ldr	r3, [r3, #1564]
0x3ffde97c:  e3530000      cmp	r3, #0	; 0x0
0x3ffde980:  15932004      ldrne	r2, [r3, #4]
0x3ffde984:  10822007      addne	r2, r2, r7
0x3ffde988:  15832004      strne	r2, [r3, #4]
0x3ffde98c:  e59f37c8      ldr	r3, [pc, #1992]	; 0x3ffdf15c
0x3ffde990:  e08f3003      add	r3, pc, r3
0x3ffde994:  e5933624      ldr	r3, [r3, #1572]
0x3ffde998:  e3530000      cmp	r3, #0	; 0x0
0x3ffde99c:  15932004      ldrne	r2, [r3, #4]
0x3ffde9a0:  10822007      addne	r2, r2, r7
0x3ffde9a4:  15832004      strne	r2, [r3, #4]
0x3ffde9a8:  e59f37b0      ldr	r3, [pc, #1968]	; 0x3ffdf160
0x3ffde9ac:  e08f3003      add	r3, pc, r3
0x3ffde9b0:  e5933628      ldr	r3, [r3, #1576]
0x3ffde9b4:  e3530000      cmp	r3, #0	; 0x0
0x3ffde9b8:  15932004      ldrne	r2, [r3, #4]
0x3ffde9bc:  10822007      addne	r2, r2, r7
0x3ffde9c0:  15832004      strne	r2, [r3, #4]
0x3ffde9c4:  e59f3798      ldr	r3, [pc, #1944]	; 0x3ffdf164
0x3ffde9c8:  e08f3003      add	r3, pc, r3
0x3ffde9cc:  e593362c      ldr	r3, [r3, #1580]
0x3ffde9d0:  e3530000      cmp	r3, #0	; 0x0
0x3ffde9d4:  15932004      ldrne	r2, [r3, #4]
0x3ffde9d8:  10822007      addne	r2, r2, r7
0x3ffde9dc:  15832004      strne	r2, [r3, #4]
0x3ffde9e0:  e59f3780      ldr	r3, [pc, #1920]	; 0x3ffdf168
0x3ffde9e4:  e08f3003      add	r3, pc, r3
0x3ffde9e8:  e5933654      ldr	r3, [r3, #1620]
0x3ffde9ec:  e3530000      cmp	r3, #0	; 0x0
0x3ffde9f0:  15932004      ldrne	r2, [r3, #4]
0x3ffde9f4:  10822007      addne	r2, r2, r7
0x3ffde9f8:  15832004      strne	r2, [r3, #4]
0x3ffde9fc:  e59f3768      ldr	r3, [pc, #1896]	; 0x3ffdf16c
0x3ffdea00:  e08f3003      add	r3, pc, r3
0x3ffdea04:  e593366c      ldr	r3, [r3, #1644]
0x3ffdea08:  e3530000      cmp	r3, #0	; 0x0
0x3ffdea0c:  15932004      ldrne	r2, [r3, #4]
0x3ffdea10:  10822007      addne	r2, r2, r7
0x3ffdea14:  15832004      strne	r2, [r3, #4]
0x3ffdea18:  e59f3750      ldr	r3, [pc, #1872]	; 0x3ffdf170
0x3ffdea1c:  e08f3003      add	r3, pc, r3
0x3ffdea20:  e59336d8      ldr	r3, [r3, #1752]
0x3ffdea24:  e3530000      cmp	r3, #0	; 0x0
0x3ffdea28:  15932004      ldrne	r2, [r3, #4]
0x3ffdea2c:  10822007      addne	r2, r2, r7
0x3ffdea30:  15832004      strne	r2, [r3, #4]
0x3ffdea34:  e59f3738      ldr	r3, [pc, #1848]	; 0x3ffdf174
0x3ffdea38:  e08f3003      add	r3, pc, r3
0x3ffdea3c:  e5933740      ldr	r3, [r3, #1856]
0x3ffdea40:  e3530000      cmp	r3, #0	; 0x0
0x3ffdea44:  15932004      ldrne	r2, [r3, #4]
0x3ffdea48:  10822007      addne	r2, r2, r7
0x3ffdea4c:  15832004      strne	r2, [r3, #4]
0x3ffdea50:  e59f3720      ldr	r3, [pc, #1824]	; 0x3ffdf178
0x3ffdea54:  e08f3003      add	r3, pc, r3
0x3ffdea58:  e5936660      ldr	r6, [r3, #1632]
0x3ffdea5c:  e3560000      cmp	r6, #0	; 0x0
0x3ffdea60:  0a000003      beq	0x3ffdea74

----------------
IN: 
0x3ffdea64:  e5963004      ldr	r3, [r6, #4]
0x3ffdea68:  e3530007      cmp	r3, #7	; 0x7
0x3ffdea6c:  13530011      cmpne	r3, #17	; 0x11
0x3ffdea70:  1a00017e      bne	0x3ffdf070

----------------
IN: 
0x3ffdea74:  e59f3700      ldr	r3, [pc, #1792]	; 0x3ffdf17c
0x3ffdea78:  e08f3003      add	r3, pc, r3
0x3ffdea7c:  e593262c      ldr	r2, [r3, #1580]
0x3ffdea80:  e3520000      cmp	r2, #0	; 0x0
0x3ffdea84:  0a000003      beq	0x3ffdea98

----------------
IN: 
0x3ffdea98:  e59f36e0      ldr	r3, [pc, #1760]	; 0x3ffdf180
0x3ffdea9c:  e08f3003      add	r3, pc, r3
0x3ffdeaa0:  e5935654      ldr	r5, [r3, #1620]
0x3ffdeaa4:  e3550000      cmp	r5, #0	; 0x0
0x3ffdeaa8:  0a000003      beq	0x3ffdeabc

----------------
IN: 
0x3ffdeaac:  e593365c      ldr	r3, [r3, #1628]
0x3ffdeab0:  e5933004      ldr	r3, [r3, #4]
0x3ffdeab4:  e3530008      cmp	r3, #8	; 0x8
0x3ffdeab8:  1a00017c      bne	0x3ffdf0b0

----------------
IN: 
0x3ffdeabc:  e59f36c0      ldr	r3, [pc, #1728]	; 0x3ffdf184
0x3ffdeac0:  e08f3003      add	r3, pc, r3
0x3ffdeac4:  e5932684      ldr	r2, [r3, #1668]
0x3ffdeac8:  e3520000      cmp	r2, #0	; 0x0
0x3ffdeacc:  1a00015f      bne	0x3ffdf050

----------------
IN: 
0x3ffdead0:  e593264c      ldr	r2, [r3, #1612]
0x3ffdead4:  e3520000      cmp	r2, #0	; 0x0
0x3ffdead8:  1a000154      bne	0x3ffdf030

----------------
IN: 
0x3ffdeadc:  e59336ac      ldr	r3, [r3, #1708]
0x3ffdeae0:  e3530000      cmp	r3, #0	; 0x0
0x3ffdeae4:  0a000002      beq	0x3ffdeaf4

----------------
IN: 
0x3ffdeaf4:  e59f368c      ldr	r3, [pc, #1676]	; 0x3ffdf188
0x3ffdeaf8:  e08f3003      add	r3, pc, r3
0x3ffdeafc:  e5933688      ldr	r3, [r3, #1672]
0x3ffdeb00:  e3530000      cmp	r3, #0	; 0x0
0x3ffdeb04:  0a000002      beq	0x3ffdeb14

----------------
IN: 
0x3ffdeb14:  e59f3670      ldr	r3, [pc, #1648]	; 0x3ffdf18c
0x3ffdeb18:  e24b9044      sub	r9, fp, #68	; 0x44
0x3ffdeb1c:  e08f3003      add	r3, pc, r3
0x3ffdeb20:  e3a02020      mov	r2, #32	; 0x20
0x3ffdeb24:  e3a01000      mov	r1, #0	; 0x0
0x3ffdeb28:  e1a00009      mov	r0, r9
0x3ffdeb2c:  e593a66c      ldr	sl, [r3, #1644]
0x3ffdeb30:  eb001d6a      bl	0x3ffe60e0

----------------
IN: 
0x3ffe60e0:  e1a03000      mov	r3, r0
0x3ffe60e4:  e3520008      cmp	r2, #8	; 0x8
0x3ffe60e8:  3a000011      bcc	0x3ffe6134

----------------
IN: 
0x3ffe60ec:  e3130003      tst	r3, #3	; 0x3
0x3ffe60f0:  14c31001      strbne	r1, [r3], #1
0x3ffe60f4:  12422001      subne	r2, r2, #1	; 0x1
0x3ffe60f8:  1afffffb      bne	0x3ffe60ec

----------------
IN: 
0x3ffe60fc:  e20110ff      and	r1, r1, #255	; 0xff
0x3ffe6100:  e1811401      orr	r1, r1, r1, lsl #8
0x3ffe6104:  e1811801      orr	r1, r1, r1, lsl #16
0x3ffe6108:  e1a0c001      mov	ip, r1
0x3ffe610c:  e2522008      subs	r2, r2, #8	; 0x8
0x3ffe6110:  28a31002      stmiacs	r3!, {r1, ip}
0x3ffe6114:  22522008      subscs	r2, r2, #8	; 0x8
0x3ffe6118:  28a31002      stmiacs	r3!, {r1, ip}
0x3ffe611c:  22522008      subscs	r2, r2, #8	; 0x8
0x3ffe6120:  28a31002      stmiacs	r3!, {r1, ip}
0x3ffe6124:  22522008      subscs	r2, r2, #8	; 0x8
0x3ffe6128:  28a31002      stmiacs	r3!, {r1, ip}
0x3ffe612c:  2afffff6      bcs	0x3ffe610c

----------------
IN: 
0x3ffe610c:  e2522008      subs	r2, r2, #8	; 0x8
0x3ffe6110:  28a31002      stmiacs	r3!, {r1, ip}
0x3ffe6114:  22522008      subscs	r2, r2, #8	; 0x8
0x3ffe6118:  28a31002      stmiacs	r3!, {r1, ip}
0x3ffe611c:  22522008      subscs	r2, r2, #8	; 0x8
0x3ffe6120:  28a31002      stmiacs	r3!, {r1, ip}
0x3ffe6124:  22522008      subscs	r2, r2, #8	; 0x8
0x3ffe6128:  28a31002      stmiacs	r3!, {r1, ip}
0x3ffe612c:  2afffff6      bcs	0x3ffe610c

----------------
IN: 
0x3ffe6130:  e2022007      and	r2, r2, #7	; 0x7
0x3ffe6134:  e2522001      subs	r2, r2, #1	; 0x1
0x3ffe6138:  24c31001      strbcs	r1, [r3], #1
0x3ffe613c:  22522001      subscs	r2, r2, #1	; 0x1
0x3ffe6140:  24c31001      strbcs	r1, [r3], #1
0x3ffe6144:  22522001      subscs	r2, r2, #1	; 0x1
0x3ffe6148:  24c31001      strbcs	r1, [r3], #1
0x3ffe614c:  22522001      subscs	r2, r2, #1	; 0x1
0x3ffe6150:  24c31001      strbcs	r1, [r3], #1
0x3ffe6154:  2afffff6      bcs	0x3ffe6134

----------------
IN: 
0x3ffe6158:  e12fff1e      bx	lr

----------------
IN: 
0x3ffdeb34:  e3550000      cmp	r5, #0	; 0x0
0x3ffdeb38:  0a00011e      beq	0x3ffdefb8

----------------
IN: 
0x3ffdeb3c:  e59f264c      ldr	r2, [pc, #1612]	; 0x3ffdf190
0x3ffdeb40:  e5953004      ldr	r3, [r5, #4]
0x3ffdeb44:  e08f2002      add	r2, pc, r2
0x3ffdeb48:  e5921658      ldr	r1, [r2, #1624]
0x3ffdeb4c:  e59226b0      ldr	r2, [r2, #1712]
0x3ffdeb50:  e3540000      cmp	r4, #0	; 0x0
0x3ffdeb54:  e5918004      ldr	r8, [r1, #4]
0x3ffdeb58:  10833007      addne	r3, r3, r7
0x3ffdeb5c:  e3520000      cmp	r2, #0	; 0x0
0x3ffdeb60:  e0885003      add	r5, r8, r3
0x3ffdeb64:  15922004      ldrne	r2, [r2, #4]
0x3ffdeb68:  150b203c      strne	r2, [fp, #-60]
0x3ffdeb6c:  e3560000      cmp	r6, #0	; 0x0
0x3ffdeb70:  0a00000e      beq	0x3ffdebb0

----------------
IN: 
0x3ffdeb74:  e59f1618      ldr	r1, [pc, #1560]	; 0x3ffdf194
0x3ffdeb78:  e59a2004      ldr	r2, [sl, #4]
0x3ffdeb7c:  e08f1001      add	r1, pc, r1
0x3ffdeb80:  e5911618      ldr	r1, [r1, #1560]
0x3ffdeb84:  e3540000      cmp	r4, #0	; 0x0
0x3ffdeb88:  e5911004      ldr	r1, [r1, #4]
0x3ffdeb8c:  10822007      addne	r2, r2, r7
0x3ffdeb90:  e0810002      add	r0, r1, r2
0x3ffdeb94:  e1500005      cmp	r0, r5
0x3ffdeb98:  00488001      subeq	r8, r8, r1
0x3ffdeb9c:  00885003      addeq	r5, r8, r3
0x3ffdeba0:  e1520005      cmp	r2, r5
0x3ffdeba4:  00888001      addeq	r8, r8, r1
0x3ffdeba8:  150b2034      strne	r2, [fp, #-52]
0x3ffdebac:  150b1030      strne	r1, [fp, #-48]
0x3ffdebb0:  e59f25e0      ldr	r2, [pc, #1504]	; 0x3ffdf198
0x3ffdebb4:  e50b9048      str	r9, [fp, #-72]
0x3ffdebb8:  e08f2002      add	r2, pc, r2
0x3ffdebbc:  e50b2050      str	r2, [fp, #-80]
0x3ffdebc0:  e24b2034      sub	r2, fp, #52	; 0x34
0x3ffdebc4:  e50b2058      str	r2, [fp, #-88]
0x3ffdebc8:  e51b2050      ldr	r2, [fp, #-80]
0x3ffdebcc:  e51b0048      ldr	r0, [fp, #-72]
0x3ffdebd0:  e5922628      ldr	r2, [r2, #1576]
0x3ffdebd4:  e5905008      ldr	r5, [r0, #8]
0x3ffdebd8:  e5921004      ldr	r1, [r2, #4]
0x3ffdebdc:  e3540000      cmp	r4, #0	; 0x0
0x3ffdebe0:  e1a0c001      mov	ip, r1
0x3ffdebe4:  e0835185      add	r5, r3, r5, lsl #3
0x3ffdebe8:  10811007      addne	r1, r1, r7
0x3ffdebec:  11a0c001      movne	ip, r1
0x3ffdebf0:  e1530005      cmp	r3, r5
0x3ffdebf4:  e1a02003      mov	r2, r3
0x3ffdebf8:  e0838008      add	r8, r3, r8
0x3ffdebfc:  2a000005      bcs	0x3ffdec18

----------------
IN: 
0x3ffdec00:  e4921008      ldr	r1, [r2], #8
0x3ffdec04:  e7973001      ldr	r3, [r7, r1]
0x3ffdec08:  e1550002      cmp	r5, r2
0x3ffdec0c:  e0833007      add	r3, r3, r7
0x3ffdec10:  e7873001      str	r3, [r7, r1]
0x3ffdec14:  8afffff9      bhi	0x3ffdec00

----------------
IN: 
0x3ffdec18:  e51b3050      ldr	r3, [fp, #-80]
0x3ffdec1c:  e59336d8      ldr	r3, [r3, #1752]
0x3ffdec20:  e3530000      cmp	r3, #0	; 0x0
0x3ffdec24:  0a000119      beq	0x3ffdf090

----------------
IN: 
0x3ffdec28:  e1580005      cmp	r8, r5
0x3ffdec2c:  9a00003b      bls	0x3ffded20

----------------
IN: 
0x3ffdec30:  e1a0900c      mov	r9, ip
0x3ffdec34:  e59f3560      ldr	r3, [pc, #1376]	; 0x3ffdf19c
0x3ffdec38:  e08f3003      add	r3, pc, r3
0x3ffdec3c:  e50b3054      str	r3, [fp, #-84]
0x3ffdec40:  e5953004      ldr	r3, [r5, #4]
0x3ffdec44:  e5954000      ldr	r4, [r5]
0x3ffdec48:  e1a0a423      lsr	sl, r3, #8
0x3ffdec4c:  e099a20a      adds	sl, r9, sl, lsl #4
0x3ffdec50:  01a0600a      moveq	r6, sl
0x3ffdec54:  e0874004      add	r4, r7, r4
0x3ffdec58:  e20320ff      and	r2, r3, #255	; 0xff
0x3ffdec5c:  0a00000c      beq	0x3ffdec94

----------------
IN: 
0x3ffdec60:  e59f3538      ldr	r3, [pc, #1336]	; 0x3ffdf1a0
0x3ffdec64:  e1da10be      ldrh	r1, [sl, #14]
0x3ffdec68:  e59a6004      ldr	r6, [sl, #4]
0x3ffdec6c:  e1510003      cmp	r1, r3
0x3ffdec70:  e5da300c      ldrb	r3, [sl, #12]
0x3ffdec74:  e203300f      and	r3, r3, #15	; 0xf
0x3ffdec78:  0a000085      beq	0x3ffdee94

----------------
IN: 
0x3ffdec7c:  e353000a      cmp	r3, #10	; 0xa
0x3ffdec80:  e59f351c      ldr	r3, [pc, #1308]	; 0x3ffdf1a4
0x3ffdec84:  e08f3003      add	r3, pc, r3
0x3ffdec88:  e59335f0      ldr	r3, [r3, #1520]
0x3ffdec8c:  e0866003      add	r6, r6, r3
0x3ffdec90:  0a000088      beq	0x3ffdeeb8

----------------
IN: 
0x3ffdec94:  e2423001      sub	r3, r2, #1	; 0x1
0x3ffdec98:  e3530015      cmp	r3, #21	; 0x15
0x3ffdec9c:  908ff103      addls	pc, pc, r3, lsl #2

----------------
IN: 
0x3ffdecf4:  ea000000      b	0x3ffdecfc

----------------
IN: 
0x3ffdecfc:  e35a0000      cmp	sl, #0	; 0x0
0x3ffded00:  0a000002      beq	0x3ffded10

----------------
IN: 
0x3ffded04:  e59a3004      ldr	r3, [sl, #4]
0x3ffded08:  e3530000      cmp	r3, #0	; 0x0
0x3ffded0c:  0a000051      beq	0x3ffdee58

----------------
IN: 
0x3ffded10:  e5846000      str	r6, [r4]
0x3ffded14:  e2855008      add	r5, r5, #8	; 0x8
0x3ffded18:  e1580005      cmp	r8, r5
0x3ffded1c:  8affffc7      bhi	0x3ffdec40

----------------
IN: 
0x3ffdec40:  e5953004      ldr	r3, [r5, #4]
0x3ffdec44:  e5954000      ldr	r4, [r5]
0x3ffdec48:  e1a0a423      lsr	sl, r3, #8
0x3ffdec4c:  e099a20a      adds	sl, r9, sl, lsl #4
0x3ffdec50:  01a0600a      moveq	r6, sl
0x3ffdec54:  e0874004      add	r4, r7, r4
0x3ffdec58:  e20320ff      and	r2, r3, #255	; 0xff
0x3ffdec5c:  0a00000c      beq	0x3ffdec94

----------------
IN: 
0x3ffdecf8:  eaffffff      b	0x3ffdecfc

----------------
IN: 
0x3ffded20:  e51b3048      ldr	r3, [fp, #-72]
0x3ffded24:  e51b2058      ldr	r2, [fp, #-88]
0x3ffded28:  e1530002      cmp	r3, r2
0x3ffded2c:  0a000064      beq	0x3ffdeec4

----------------
IN: 
0x3ffded30:  e59f2470      ldr	r2, [pc, #1136]	; 0x3ffdf1a8
0x3ffded34:  e51b1048      ldr	r1, [fp, #-72]
0x3ffded38:  e08f2002      add	r2, pc, r2
0x3ffded3c:  e5d2478a      ldrb	r4, [r2, #1930]
0x3ffded40:  e59275f0      ldr	r7, [r2, #1520]
0x3ffded44:  e2812010      add	r2, r1, #16	; 0x10
0x3ffded48:  e5913010      ldr	r3, [r1, #16]
0x3ffded4c:  e5918014      ldr	r8, [r1, #20]
0x3ffded50:  e2044020      and	r4, r4, #32	; 0x20
0x3ffded54:  e50b2048      str	r2, [fp, #-72]
0x3ffded58:  eaffff9a      b	0x3ffdebc8

----------------
IN: 
0x3ffdebc8:  e51b2050      ldr	r2, [fp, #-80]
0x3ffdebcc:  e51b0048      ldr	r0, [fp, #-72]
0x3ffdebd0:  e5922628      ldr	r2, [r2, #1576]
0x3ffdebd4:  e5905008      ldr	r5, [r0, #8]
0x3ffdebd8:  e5921004      ldr	r1, [r2, #4]
0x3ffdebdc:  e3540000      cmp	r4, #0	; 0x0
0x3ffdebe0:  e1a0c001      mov	ip, r1
0x3ffdebe4:  e0835185      add	r5, r3, r5, lsl #3
0x3ffdebe8:  10811007      addne	r1, r1, r7
0x3ffdebec:  11a0c001      movne	ip, r1
0x3ffdebf0:  e1530005      cmp	r3, r5
0x3ffdebf4:  e1a02003      mov	r2, r3
0x3ffdebf8:  e0838008      add	r8, r3, r8
0x3ffdebfc:  2a000005      bcs	0x3ffdec18

----------------
IN: 
0x3ffdeec4:  e59f42f8      ldr	r4, [pc, #760]	; 0x3ffdf1c4
0x3ffdeec8:  e59f52f8      ldr	r5, [pc, #760]	; 0x3ffdf1c8
0x3ffdeecc:  e08f4004      add	r4, pc, r4
0x3ffdeed0:  e5d43788      ldrb	r3, [r4, #1928]
0x3ffdeed4:  e2846e5f      add	r6, r4, #1520	; 0x5f0
0x3ffdeed8:  e3833004      orr	r3, r3, #4	; 0x4
0x3ffdeedc:  e5c43788      strb	r3, [r4, #1928]
0x3ffdeee0:  ebfff5cf      bl	0x3ffdc624

----------------
IN: 
0x3ffdc624:  e59f302c      ldr	r3, [pc, #44]	; 0x3ffdc658
0x3ffdc628:  e59fc02c      ldr	ip, [pc, #44]	; 0x3ffdc65c
0x3ffdc62c:  e59f002c      ldr	r0, [pc, #44]	; 0x3ffdc660
0x3ffdc630:  e59f102c      ldr	r1, [pc, #44]	; 0x3ffdc664
0x3ffdc634:  e59f202c      ldr	r2, [pc, #44]	; 0x3ffdc668
0x3ffdc638:  e08f3003      add	r3, pc, r3
0x3ffdc63c:  e08fc00c      add	ip, pc, ip
0x3ffdc640:  e08f0000      add	r0, pc, r0
0x3ffdc644:  e08f1001      add	r1, pc, r1
0x3ffdc648:  e08f2002      add	r2, pc, r2
0x3ffdc64c:  e9830007      stmib	r3, {r0, r1, r2}
0x3ffdc650:  e583c000      str	ip, [r3]
0x3ffdc654:  e12fff1e      bx	lr

----------------
IN: 
0x3ffdeee4:  e59f32e0      ldr	r3, [pc, #736]	; 0x3ffdf1cc
0x3ffdeee8:  e1a00006      mov	r0, r6
0x3ffdeeec:  e08f3003      add	r3, pc, r3
0x3ffdeef0:  e08f5005      add	r5, pc, r5
0x3ffdeef4:  e58531d8      str	r3, [r5, #472]
0x3ffdeef8:  ebffdbe9      bl	0x3ffd5ea4

----------------
IN: 
0x3ffd5ea4:  e5903150      ldr	r3, [r0, #336]
0x3ffd5ea8:  e3530000      cmp	r3, #0	; 0x0
0x3ffd5eac:  0a000017      beq	0x3ffd5f10

----------------
IN: 
0x3ffd5eb0:  e5d0219a      ldrb	r2, [r0, #410]
0x3ffd5eb4:  e5933004      ldr	r3, [r3, #4]
0x3ffd5eb8:  e3120020      tst	r2, #32	; 0x20
0x3ffd5ebc:  15902000      ldrne	r2, [r0]
0x3ffd5ec0:  e92d4010      push	{r4, lr}
0x3ffd5ec4:  10833002      addne	r3, r3, r2
0x3ffd5ec8:  e5931000      ldr	r1, [r3]
0x3ffd5ecc:  e580117c      str	r1, [r0, #380]
0x3ffd5ed0:  e5932008      ldr	r2, [r3, #8]
0x3ffd5ed4:  e593e004      ldr	lr, [r3, #4]
0x3ffd5ed8:  e242c001      sub	ip, r2, #1	; 0x1
0x3ffd5edc:  e11c0002      tst	ip, r2
0x3ffd5ee0:  1a000018      bne	0x3ffd5f48

----------------
IN: 
0x3ffd5ee4:  e580c180      str	ip, [r0, #384]
0x3ffd5ee8:  e283c010      add	ip, r3, #16	; 0x10
0x3ffd5eec:  e08c2102      add	r2, ip, r2, lsl #2
0x3ffd5ef0:  e593300c      ldr	r3, [r3, #12]
0x3ffd5ef4:  e041100e      sub	r1, r1, lr
0x3ffd5ef8:  e0821101      add	r1, r2, r1, lsl #2
0x3ffd5efc:  e5803184      str	r3, [r0, #388]
0x3ffd5f00:  e580c188      str	ip, [r0, #392]
0x3ffd5f04:  e580218c      str	r2, [r0, #396]
0x3ffd5f08:  e5801190      str	r1, [r0, #400]
0x3ffd5f0c:  e8bd8010      pop	{r4, pc}

----------------
IN: 
0x3ffdeefc:  e59f32cc      ldr	r3, [pc, #716]	; 0x3ffdf1d0
0x3ffdef00:  e59f12cc      ldr	r1, [pc, #716]	; 0x3ffdf1d4
0x3ffdef04:  e08f3003      add	r3, pc, r3
0x3ffdef08:  e08f1001      add	r1, pc, r1
0x3ffdef0c:  e58437a8      str	r3, [r4, #1960]
0x3ffdef10:  e58417ac      str	r1, [r4, #1964]
0x3ffdef14:  e59f22bc      ldr	r2, [pc, #700]	; 0x3ffdf1d8
0x3ffdef18:  e59f32bc      ldr	r3, [pc, #700]	; 0x3ffdf1dc
0x3ffdef1c:  e59f12bc      ldr	r1, [pc, #700]	; 0x3ffdf1e0
0x3ffdef20:  e08f3003      add	r3, pc, r3
0x3ffdef24:  e08f2002      add	r2, pc, r2
0x3ffdef28:  e51b005c      ldr	r0, [fp, #-92]
0x3ffdef2c:  e08f1001      add	r1, pc, r1
0x3ffdef30:  e583b000      str	fp, [r3]
0x3ffdef34:  e5846604      str	r6, [r4, #1540]
0x3ffdef38:  e58427b0      str	r2, [r4, #1968]
0x3ffdef3c:  ebfff7a7      bl	0x3ffdcde0

----------------
IN: 
0x3ffdcde0:  e1a03000      mov	r3, r0
0x3ffdcde4:  e59fc4bc      ldr	ip, [pc, #1212]	; 0x3ffdd2a8
0x3ffdcde8:  e92d4ff0      push	{r4, r5, r6, r7, r8, r9, sl, fp, lr}
0x3ffdcdec:  e1a0b001      mov	fp, r1
0x3ffdcdf0:  e59f44b4      ldr	r4, [pc, #1204]	; 0x3ffdd2ac
0x3ffdcdf4:  e4931004      ldr	r1, [r3], #4
0x3ffdcdf8:  e59fe4b0      ldr	lr, [pc, #1200]	; 0x3ffdd2b0
0x3ffdcdfc:  e59f24b0      ldr	r2, [pc, #1200]	; 0x3ffdd2b4
0x3ffdce00:  e08fc00c      add	ip, pc, ip
0x3ffdce04:  e08f4004      add	r4, pc, r4
0x3ffdce08:  e58c1000      str	r1, [ip]
0x3ffdce0c:  e2811001      add	r1, r1, #1	; 0x1
0x3ffdce10:  e5840000      str	r0, [r4]
0x3ffdce14:  e08fe00e      add	lr, pc, lr
0x3ffdce18:  e0830101      add	r0, r3, r1, lsl #2
0x3ffdce1c:  e08f2002      add	r2, pc, r2
0x3ffdce20:  e58e3000      str	r3, [lr]
0x3ffdce24:  e5820000      str	r0, [r2]
0x3ffdce28:  e7933101      ldr	r3, [r3, r1, lsl #2]
0x3ffdce2c:  e24dd044      sub	sp, sp, #68	; 0x44
0x3ffdce30:  e3530000      cmp	r3, #0	; 0x0
0x3ffdce34:  e1a03000      mov	r3, r0
0x3ffdce38:  0a000002      beq	0x3ffdce48

----------------
IN: 
0x3ffdce3c:  e5b32004      ldr	r2, [r3, #4]!
0x3ffdce40:  e3520000      cmp	r2, #0	; 0x0
0x3ffdce44:  1afffffc      bne	0x3ffdce3c

----------------
IN: 
0x3ffdce48:  e59f1468      ldr	r1, [pc, #1128]	; 0x3ffdd2b8
0x3ffdce4c:  e3a0eb02      mov	lr, #2048	; 0x800
0x3ffdce50:  e08f1001      add	r1, pc, r1
0x3ffdce54:  e58d103c      str	r1, [sp, #60]
0x3ffdce58:  e3a01000      mov	r1, #0	; 0x0
0x3ffdce5c:  e2832004      add	r2, r3, #4	; 0x4
0x3ffdce60:  e59fc454      ldr	ip, [pc, #1108]	; 0x3ffdd2bc
0x3ffdce64:  e5933004      ldr	r3, [r3, #4]
0x3ffdce68:  e08fc00c      add	ip, pc, ip
0x3ffdce6c:  e3530000      cmp	r3, #0	; 0x0
0x3ffdce70:  e58c2050      str	r2, [ip, #80]
0x3ffdce74:  e58ce014      str	lr, [ip, #20]
0x3ffdce78:  e58c1008      str	r1, [ip, #8]
0x3ffdce7c:  0a0000d8      beq	0x3ffdd1e4

----------------
IN: 
0x3ffdce80:  e1a0c001      mov	ip, r1
0x3ffdce84:  e1a0e001      mov	lr, r1
0x3ffdce88:  e1a06001      mov	r6, r1
0x3ffdce8c:  e1a07001      mov	r7, r1
0x3ffdce90:  e1a08001      mov	r8, r1
0x3ffdce94:  e1a09001      mov	r9, r1
0x3ffdce98:  e1a0a001      mov	sl, r1
0x3ffdce9c:  e1a04001      mov	r4, r1
0x3ffdcea0:  e1a05001      mov	r5, r1
0x3ffdcea4:  e58d1000      str	r1, [sp]
0x3ffdcea8:  e58d1004      str	r1, [sp, #4]
0x3ffdceac:  e58d1008      str	r1, [sp, #8]
0x3ffdceb0:  e2433003      sub	r3, r3, #3	; 0x3
0x3ffdceb4:  e3530030      cmp	r3, #48	; 0x30
0x3ffdceb8:  908ff103      addls	pc, pc, r3, lsl #2

----------------
IN: 
0x3ffdcec0:  ea0000c2      b	0x3ffdd1d0

----------------
IN: 
0x3ffdd1d0:  e5925004      ldr	r5, [r2, #4]
0x3ffdd1d4:  e5b23008      ldr	r3, [r2, #8]!
0x3ffdd1d8:  e3530000      cmp	r3, #0	; 0x0
0x3ffdd1dc:  1affff33      bne	0x3ffdceb0

----------------
IN: 
0x3ffdceb0:  e2433003      sub	r3, r3, #3	; 0x3
0x3ffdceb4:  e3530030      cmp	r3, #48	; 0x30
0x3ffdceb8:  908ff103      addls	pc, pc, r3, lsl #2

----------------
IN: 
0x3ffdcec4:  ea000031      b	0x3ffdcf90

----------------
IN: 
0x3ffdcf90:  e5b23008      ldr	r3, [r2, #8]!
0x3ffdcf94:  e3530000      cmp	r3, #0	; 0x0
0x3ffdcf98:  1affffc4      bne	0x3ffdceb0

----------------
IN: 
0x3ffdcec8:  ea0000bb      b	0x3ffdd1bc

----------------
IN: 
0x3ffdd1bc:  e5924004      ldr	r4, [r2, #4]
0x3ffdd1c0:  e5b23008      ldr	r3, [r2, #8]!
0x3ffdd1c4:  e3530000      cmp	r3, #0	; 0x0
0x3ffdd1c8:  1affff38      bne	0x3ffdceb0

----------------
IN: 
0x3ffdcecc:  ea0000b2      b	0x3ffdd19c

----------------
IN: 
0x3ffdd19c:  e3a03001      mov	r3, #1	; 0x1
0x3ffdd1a0:  e58d3008      str	r3, [sp, #8]
0x3ffdd1a4:  e5923004      ldr	r3, [r2, #4]
0x3ffdd1a8:  e58d3030      str	r3, [sp, #48]
0x3ffdd1ac:  e5b23008      ldr	r3, [r2, #8]!
0x3ffdd1b0:  e3530000      cmp	r3, #0	; 0x0
0x3ffdd1b4:  1affff3d      bne	0x3ffdceb0

----------------
IN: 
0x3ffdced0:  ea00002e      b	0x3ffdcf90

----------------
IN: 
0x3ffdced4:  ea00002d      b	0x3ffdcf90

----------------
IN: 
0x3ffdced8:  ea0000a7      b	0x3ffdd17c

----------------
IN: 
0x3ffdd17c:  e3a03001      mov	r3, #1	; 0x1
0x3ffdd180:  e58d3004      str	r3, [sp, #4]
0x3ffdd184:  e5923004      ldr	r3, [r2, #4]
0x3ffdd188:  e58d3034      str	r3, [sp, #52]
0x3ffdd18c:  e5b23008      ldr	r3, [r2, #8]!
0x3ffdd190:  e3530000      cmp	r3, #0	; 0x0
0x3ffdd194:  1affff45      bne	0x3ffdceb0

----------------
IN: 
0x3ffdcee0:  ea00002a      b	0x3ffdcf90

----------------
IN: 
0x3ffdcee4:  ea000029      b	0x3ffdcf90

----------------
IN: 
0x3ffdcee8:  ea000028      b	0x3ffdcf90

----------------
IN: 
0x3ffdceec:  ea000027      b	0x3ffdcf90

----------------
IN: 
0x3ffdcef4:  ea000092      b	0x3ffdd144

----------------
IN: 
0x3ffdd144:  e5923004      ldr	r3, [r2, #4]
0x3ffdd148:  e3a09001      mov	r9, #1	; 0x1
0x3ffdd14c:  e58d3024      str	r3, [sp, #36]
0x3ffdd150:  e5b23008      ldr	r3, [r2, #8]!
0x3ffdd154:  e3530000      cmp	r3, #0	; 0x0
0x3ffdd158:  1affff54      bne	0x3ffdceb0

----------------
IN: 
0x3ffdcef8:  ea00008a      b	0x3ffdd128

----------------
IN: 
0x3ffdd128:  e5923004      ldr	r3, [r2, #4]
0x3ffdd12c:  e3a07001      mov	r7, #1	; 0x1
0x3ffdd130:  e58d301c      str	r3, [sp, #28]
0x3ffdd134:  e5b23008      ldr	r3, [r2, #8]!
0x3ffdd138:  e3530000      cmp	r3, #0	; 0x0
0x3ffdd13c:  1affff5b      bne	0x3ffdceb0

----------------
IN: 
0x3ffdcf18:  ea00006c      b	0x3ffdd0d0

----------------
IN: 
0x3ffdd0d0:  e5923004      ldr	r3, [r2, #4]
0x3ffdd0d4:  e3a0c001      mov	ip, #1	; 0x1
0x3ffdd0d8:  e58d3010      str	r3, [sp, #16]
0x3ffdd0dc:  e5b23008      ldr	r3, [r2, #8]!
0x3ffdd0e0:  e3530000      cmp	r3, #0	; 0x0
0x3ffdd0e4:  1affff71      bne	0x3ffdceb0

----------------
IN: 
0x3ffdcf10:  ea000075      b	0x3ffdd0ec

----------------
IN: 
0x3ffdd0ec:  e3a03001      mov	r3, #1	; 0x1
0x3ffdd0f0:  e58d3000      str	r3, [sp]
0x3ffdd0f4:  e5923004      ldr	r3, [r2, #4]
0x3ffdd0f8:  e58d302c      str	r3, [sp, #44]
0x3ffdd0fc:  e5b23008      ldr	r3, [r2, #8]!
0x3ffdd100:  e3530000      cmp	r3, #0	; 0x0
0x3ffdd104:  1affff69      bne	0x3ffdceb0

----------------
IN: 
0x3ffdcf30:  ea000016      b	0x3ffdcf90

----------------
IN: 
0x3ffdcf1c:  ea000064      b	0x3ffdd0b4

----------------
IN: 
0x3ffdd0b4:  e5923004      ldr	r3, [r2, #4]
0x3ffdd0b8:  e3a08001      mov	r8, #1	; 0x1
0x3ffdd0bc:  e58d3020      str	r3, [sp, #32]
0x3ffdd0c0:  e5b23008      ldr	r3, [r2, #8]!
0x3ffdd0c4:  e3530000      cmp	r3, #0	; 0x0
0x3ffdd0c8:  1affff78      bne	0x3ffdceb0

----------------
IN: 
0x3ffdcef0:  ea00009a      b	0x3ffdd160

----------------
IN: 
0x3ffdd160:  e5923004      ldr	r3, [r2, #4]
0x3ffdd164:  e3a0a001      mov	sl, #1	; 0x1
0x3ffdd168:  e58d3028      str	r3, [sp, #40]
0x3ffdd16c:  e5b23008      ldr	r3, [r2, #8]!
0x3ffdd170:  e3530000      cmp	r3, #0	; 0x0
0x3ffdd174:  1affff4d      bne	0x3ffdceb0

----------------
IN: 
0x3ffdd178:  eaffff87      b	0x3ffdcf9c

----------------
IN: 
0x3ffdcf9c:  e3510000      cmp	r1, #0	; 0x0
0x3ffdcfa0:  159f3318      ldrne	r3, [pc, #792]	; 0x3ffdd2c0
0x3ffdcfa4:  159d200c      ldrne	r2, [sp, #12]
0x3ffdcfa8:  108f3003      addne	r3, pc, r3
0x3ffdcfac:  15832014      strne	r2, [r3, #20]
0x3ffdcfb0:  e35c0000      cmp	ip, #0	; 0x0
0x3ffdcfb4:  159f3308      ldrne	r3, [pc, #776]	; 0x3ffdd2c4
0x3ffdcfb8:  159d2010      ldrne	r2, [sp, #16]
0x3ffdcfbc:  108f3003      addne	r3, pc, r3
0x3ffdcfc0:  15832004      strne	r2, [r3, #4]
0x3ffdcfc4:  e35e0000      cmp	lr, #0	; 0x0
0x3ffdcfc8:  159f32f8      ldrne	r3, [pc, #760]	; 0x3ffdd2c8
0x3ffdcfcc:  159d2014      ldrne	r2, [sp, #20]
0x3ffdcfd0:  108f3003      addne	r3, pc, r3
0x3ffdcfd4:  15832190      strne	r2, [r3, #400]
0x3ffdcfd8:  e3560000      cmp	r6, #0	; 0x0
0x3ffdcfdc:  159f32e8      ldrne	r3, [pc, #744]	; 0x3ffdd2cc
0x3ffdcfe0:  159d2018      ldrne	r2, [sp, #24]
0x3ffdcfe4:  108f3003      addne	r3, pc, r3
0x3ffdcfe8:  1583203c      strne	r2, [r3, #60]
0x3ffdcfec:  e3570000      cmp	r7, #0	; 0x0
0x3ffdcff0:  159f32d8      ldrne	r3, [pc, #728]	; 0x3ffdd2d0
0x3ffdcff4:  159d201c      ldrne	r2, [sp, #28]
0x3ffdcff8:  108f3003      addne	r3, pc, r3
0x3ffdcffc:  15832024      strne	r2, [r3, #36]

----------------
IN: 
0x3ffdd000:  e3580000      cmp	r8, #0	; 0x0
0x3ffdd004:  0a000005      beq	0x3ffdd020

----------------
IN: 
0x3ffdd008:  e59f32c4      ldr	r3, [pc, #708]	; 0x3ffdd2d4
0x3ffdd00c:  e59d2020      ldr	r2, [sp, #32]
0x3ffdd010:  e08f3003      add	r3, pc, r3
0x3ffdd014:  e58321a8      str	r2, [r3, #424]
0x3ffdd018:  e3a02000      mov	r2, #0	; 0x0
0x3ffdd01c:  e58321ac      str	r2, [r3, #428]
0x3ffdd020:  e3590000      cmp	r9, #0	; 0x0
0x3ffdd024:  0a000005      beq	0x3ffdd040

----------------
IN: 
0x3ffdd028:  e59f32a8      ldr	r3, [pc, #680]	; 0x3ffdd2d8
0x3ffdd02c:  e59d2024      ldr	r2, [sp, #36]
0x3ffdd030:  e08f3003      add	r3, pc, r3
0x3ffdd034:  e5832048      str	r2, [r3, #72]
0x3ffdd038:  e3a02000      mov	r2, #0	; 0x0
0x3ffdd03c:  e583204c      str	r2, [r3, #76]
0x3ffdd040:  e35a0000      cmp	sl, #0	; 0x0
0x3ffdd044:  159f3290      ldrne	r3, [pc, #656]	; 0x3ffdd2dc
0x3ffdd048:  159d2028      ldrne	r2, [sp, #40]
0x3ffdd04c:  108f3003      addne	r3, pc, r3
0x3ffdd050:  15832008      strne	r2, [r3, #8]
0x3ffdd054:  e59d3000      ldr	r3, [sp]
0x3ffdd058:  e3530000      cmp	r3, #0	; 0x0
0x3ffdd05c:  159f327c      ldrne	r3, [pc, #636]	; 0x3ffdd2e0
0x3ffdd060:  159d202c      ldrne	r2, [sp, #44]
0x3ffdd064:  108f3003      addne	r3, pc, r3
0x3ffdd068:  15832008      strne	r2, [r3, #8]
0x3ffdd06c:  e59d3004      ldr	r3, [sp, #4]
0x3ffdd070:  e3530000      cmp	r3, #0	; 0x0
0x3ffdd074:  159d3034      ldrne	r3, [sp, #52]
0x3ffdd078:  158d303c      strne	r3, [sp, #60]
0x3ffdd07c:  e59d3008      ldr	r3, [sp, #8]
0x3ffdd080:  e3530000      cmp	r3, #0	; 0x0
0x3ffdd084:  159f3258      ldrne	r3, [pc, #600]	; 0x3ffdd2e4
0x3ffdd088:  159d2030      ldrne	r2, [sp, #48]
0x3ffdd08c:  108f3003      addne	r3, pc, r3
0x3ffdd090:  15832010      strne	r2, [r3, #16]
0x3ffdd094:  ea000054      b	0x3ffdd1ec

----------------
IN: 
0x3ffdd1ec:  e59f60f4      ldr	r6, [pc, #244]	; 0x3ffdd2e8
0x3ffdd1f0:  ebfff032      bl	0x3ffd92c0

----------------
IN: 
0x3ffd92c0:  e59f3668      ldr	r3, [pc, #1640]	; 0x3ffd9930
0x3ffd92c4:  e92d4ff0      push	{r4, r5, r6, r7, r8, r9, sl, fp, lr}
0x3ffd92c8:  e08f3003      add	r3, pc, r3
0x3ffd92cc:  e5933000      ldr	r3, [r3]
0x3ffd92d0:  e1a08000      mov	r8, r0
0x3ffd92d4:  e3530000      cmp	r3, #0	; 0x0
0x3ffd92d8:  e24dd03c      sub	sp, sp, #60	; 0x3c
0x3ffd92dc:  1a000172      bne	0x3ffd98ac

----------------
IN: 
0x3ffd92e0:  e1a0b008      mov	fp, r8
0x3ffd92e4:  e59f3648      ldr	r3, [pc, #1608]	; 0x3ffd9934
0x3ffd92e8:  e08f3003      add	r3, pc, r3
0x3ffd92ec:  e58d300c      str	r3, [sp, #12]
0x3ffd92f0:  e59f3640      ldr	r3, [pc, #1600]	; 0x3ffd9938
0x3ffd92f4:  e08f3003      add	r3, pc, r3
0x3ffd92f8:  e58d3024      str	r3, [sp, #36]
0x3ffd92fc:  e59f3638      ldr	r3, [pc, #1592]	; 0x3ffd993c
0x3ffd9300:  e08f3003      add	r3, pc, r3
0x3ffd9304:  e58d3028      str	r3, [sp, #40]
0x3ffd9308:  e1a0000b      mov	r0, fp
0x3ffd930c:  e3500000      cmp	r0, #0	; 0x0
0x3ffd9310:  e1a0c000      mov	ip, r0
0x3ffd9314:  0a0000d6      beq	0x3ffd9674

----------------
IN: 
0x3ffd9318:  e4906004      ldr	r6, [r0], #4
0x3ffd931c:  e3560000      cmp	r6, #0	; 0x0
0x3ffd9320:  0a0000d3      beq	0x3ffd9674

----------------
IN: 
0x3ffd9324:  e5d6e000      ldrb	lr, [r6]
0x3ffd9328:  e1a0b000      mov	fp, r0
0x3ffd932c:  e35e003d      cmp	lr, #61	; 0x3d
0x3ffd9330:  135e0000      cmpne	lr, #0	; 0x0
0x3ffd9334:  13a04001      movne	r4, #1	; 0x1
0x3ffd9338:  03a04000      moveq	r4, #0	; 0x0
0x3ffd933c:  0a0000ca      beq	0x3ffd966c

----------------
IN: 
0x3ffd9340:  e1a02006      mov	r2, r6
0x3ffd9344:  e2661001      rsb	r1, r6, #1	; 0x1
0x3ffd9348:  e0814002      add	r4, r1, r2
0x3ffd934c:  e5f23001      ldrb	r3, [r2, #1]!
0x3ffd9350:  e3530000      cmp	r3, #0	; 0x0
0x3ffd9354:  1353003d      cmpne	r3, #61	; 0x3d
0x3ffd9358:  1afffffa      bne	0x3ffd9348

----------------
IN: 
0x3ffd935c:  e3530000      cmp	r3, #0	; 0x0
0x3ffd9360:  0affffe9      beq	0x3ffd930c

----------------
IN: 
0x3ffd9364:  e59f05d4      ldr	r0, [pc, #1492]	; 0x3ffd9940
0x3ffd9368:  e2844001      add	r4, r4, #1	; 0x1
0x3ffd936c:  e0863004      add	r3, r6, r4
0x3ffd9370:  e58dc004      str	ip, [sp, #4]
0x3ffd9374:  e1a0200e      mov	r2, lr
0x3ffd9378:  e1a0c006      mov	ip, r6
0x3ffd937c:  e3a01047      mov	r1, #71	; 0x47
0x3ffd9380:  e08f0000      add	r0, pc, r0
0x3ffd9384:  e58d3008      str	r3, [sp, #8]
0x3ffd9388:  e2865001      add	r5, r6, #1	; 0x1
0x3ffd938c:  ea000003      b	0x3ffd93a0

----------------
IN: 
0x3ffd93a0:  e16f3f12      clz	r3, r2
0x3ffd93a4:  e1a032a3      lsr	r3, r3, #5
0x3ffd93a8:  e1520001      cmp	r2, r1
0x3ffd93ac:  13833001      orrne	r3, r3, #1	; 0x1
0x3ffd93b0:  e3530000      cmp	r3, #0	; 0x0
0x3ffd93b4:  0afffff5      beq	0x3ffd9390

----------------
IN: 
0x3ffd93b8:  e3a04000      mov	r4, #0	; 0x0
0x3ffd93bc:  e59d300c      ldr	r3, [sp, #12]
0x3ffd93c0:  e59f557c      ldr	r5, [pc, #1404]	; 0x3ffd9944
0x3ffd93c4:  e1a07004      mov	r7, r4
0x3ffd93c8:  e5939000      ldr	r9, [r3]
0x3ffd93cc:  e08f5005      add	r5, pc, r5
0x3ffd93d0:  ea000004      b	0x3ffd93e8

----------------
IN: 
0x3ffd93e8:  e5d53050      ldrb	r3, [r5, #80]
0x3ffd93ec:  e3530000      cmp	r3, #0	; 0x0
0x3ffd93f0:  1afffff7      bne	0x3ffd93d4

----------------
IN: 
0x3ffd93f4:  e5d52058      ldrb	r2, [r5, #88]
0x3ffd93f8:  e3520000      cmp	r2, #0	; 0x0
0x3ffd93fc:  0afffff4      beq	0x3ffd93d4

----------------
IN: 
0x3ffd93d4:  e2877001      add	r7, r7, #1	; 0x1
0x3ffd93d8:  e357001b      cmp	r7, #27	; 0x1b
0x3ffd93dc:  e2855070      add	r5, r5, #112	; 0x70
0x3ffd93e0:  e2844070      add	r4, r4, #112	; 0x70
0x3ffd93e4:  0affffc7      beq	0x3ffd9308

----------------
IN: 
0x3ffd9400:  e2858058      add	r8, r5, #88	; 0x58
0x3ffd9404:  e1a0c006      mov	ip, r6
0x3ffd9408:  e1a0e008      mov	lr, r8
0x3ffd940c:  e1a00002      mov	r0, r2
0x3ffd9410:  e4dc1001      ldrb	r1, [ip], #1
0x3ffd9414:  e16f3f11      clz	r3, r1
0x3ffd9418:  e1a032a3      lsr	r3, r3, #5
0x3ffd941c:  e1500001      cmp	r0, r1
0x3ffd9420:  13833001      orrne	r3, r3, #1	; 0x1
0x3ffd9424:  e3530000      cmp	r3, #0	; 0x0
0x3ffd9428:  1affffe9      bne	0x3ffd93d4

----------------
IN: 
0x3ffd9308:  e1a0000b      mov	r0, fp
0x3ffd930c:  e3500000      cmp	r0, #0	; 0x0
0x3ffd9310:  e1a0c000      mov	ip, r0
0x3ffd9314:  0a0000d6      beq	0x3ffd9674

----------------
IN: 
0x3ffd9348:  e0814002      add	r4, r1, r2
0x3ffd934c:  e5f23001      ldrb	r3, [r2, #1]!
0x3ffd9350:  e3530000      cmp	r3, #0	; 0x0
0x3ffd9354:  1353003d      cmpne	r3, #61	; 0x3d
0x3ffd9358:  1afffffa      bne	0x3ffd9348

----------------
IN: 
0x3ffd942c:  e5fe0001      ldrb	r0, [lr, #1]!
0x3ffd9430:  e3500000      cmp	r0, #0	; 0x0
0x3ffd9434:  1afffff5      bne	0x3ffd9410

----------------
IN: 
0x3ffd9410:  e4dc1001      ldrb	r1, [ip], #1
0x3ffd9414:  e16f3f11      clz	r3, r1
0x3ffd9418:  e1a032a3      lsr	r3, r3, #5
0x3ffd941c:  e1500001      cmp	r0, r1
0x3ffd9420:  13833001      orrne	r3, r3, #1	; 0x1
0x3ffd9424:  e3530000      cmp	r3, #0	; 0x0
0x3ffd9428:  1affffe9      bne	0x3ffd93d4

----------------
IN: 
0x3ffd9390:  e5f01001      ldrb	r1, [r0, #1]!
0x3ffd9394:  e5fc2001      ldrb	r2, [ip, #1]!
0x3ffd9398:  e3510000      cmp	r1, #0	; 0x0
0x3ffd939c:  0a000043      beq	0x3ffd94b0

----------------
IN: 
0x3ffd9674:  e28dd03c      add	sp, sp, #60	; 0x3c
0x3ffd9678:  e8bd8ff0      pop	{r4, r5, r6, r7, r8, r9, sl, fp, pc}

----------------
IN: 
0x3ffdd1f4:  e08f6006      add	r6, pc, r6
0x3ffdd1f8:  ebffe39c      bl	0x3ffd6070

----------------
IN: 
0x3ffd6070:  e52de004      push	{lr}		; (str lr, [sp, #-4]!)
0x3ffd6074:  e24dd00c      sub	sp, sp, #12	; 0xc
0x3ffd6078:  e3a02000      mov	r2, #0	; 0x0
0x3ffd607c:  e3a0000a      mov	r0, #10	; 0xa
0x3ffd6080:  e28d1004      add	r1, sp, #4	; 0x4
0x3ffd6084:  eb000e7a      bl	0x3ffd9a74

----------------
IN: 
0x3ffd9a74:  e59fc0dc      ldr	ip, [pc, #220]	; 0x3ffd9b58
0x3ffd9a78:  e92d4800      push	{fp, lr}
0x3ffd9a7c:  e08fc00c      add	ip, pc, ip
0x3ffd9a80:  e060e180      rsb	lr, r0, r0, lsl #3
0x3ffd9a84:  e08cc20e      add	ip, ip, lr, lsl #4
0x3ffd9a88:  e59cc030      ldr	ip, [ip, #48]
0x3ffd9a8c:  e1a03180      lsl	r3, r0, #3
0x3ffd9a90:  e35c0003      cmp	ip, #3	; 0x3
0x3ffd9a94:  908ff10c      addls	pc, pc, ip, lsl #2

----------------
IN: 
0x3ffd9a9c:  ea00001f      b	0x3ffd9b20

----------------
IN: 
0x3ffd9b20:  e59fc040      ldr	ip, [pc, #64]	; 0x3ffd9b68
0x3ffd9b24:  e043e000      sub	lr, r3, r0
0x3ffd9b28:  e08fc00c      add	ip, pc, ip
0x3ffd9b2c:  e08cc20e      add	ip, ip, lr, lsl #4
0x3ffd9b30:  e59cc048      ldr	ip, [ip, #72]
0x3ffd9b34:  e581c000      str	ip, [r1]
0x3ffd9b38:  eaffffe1      b	0x3ffd9ac4

----------------
IN: 
0x3ffd9ac4:  e59f1094      ldr	r1, [pc, #148]	; 0x3ffd9b60
0x3ffd9ac8:  e0430000      sub	r0, r3, r0
0x3ffd9acc:  e08f1001      add	r1, pc, r1
0x3ffd9ad0:  e0813200      add	r3, r1, r0, lsl #4
0x3ffd9ad4:  e5d33050      ldrb	r3, [r3, #80]
0x3ffd9ad8:  e1a00200      lsl	r0, r0, #4
0x3ffd9adc:  e3520000      cmp	r2, #0	; 0x0
0x3ffd9ae0:  03a03000      moveq	r3, #0	; 0x0
0x3ffd9ae4:  12033001      andne	r3, r3, #1	; 0x1
0x3ffd9ae8:  e3530000      cmp	r3, #0	; 0x0
0x3ffd9aec:  08bd8800      popeq	{fp, pc}

----------------
IN: 
0x3ffd6088:  e59d3004      ldr	r3, [sp, #4]
0x3ffd608c:  e59f2014      ldr	r2, [pc, #20]	; 0x3ffd60a8
0x3ffd6090:  e2533001      subs	r3, r3, #1	; 0x1
0x3ffd6094:  13a03001      movne	r3, #1	; 0x1
0x3ffd6098:  e08f2002      add	r2, pc, r2
0x3ffd609c:  e58231b0      str	r3, [r2, #432]
0x3ffd60a0:  e28dd00c      add	sp, sp, #12	; 0xc
0x3ffd60a4:  e49df004      pop	{pc}		; (ldr pc, [sp], #4)

----------------
IN: 
0x3ffdd1fc:  e3a00000      mov	r0, #0	; 0x0
0x3ffdd200:  eb00184c      bl	0x3ffe3338

----------------
IN: 
0x3ffe3338:  e52d7004      push	{r7}		; (str r7, [sp, #-4]!)
0x3ffe333c:  e1a03000      mov	r3, r0
0x3ffe3340:  e3a0702d      mov	r7, #45	; 0x2d
0x3ffe3344:  ef000000      svc	0x00000000

----------------
IN: 
0x3ffe3348:  e59f2030      ldr	r2, [pc, #48]	; 0x3ffe3380
0x3ffe334c:  e1500003      cmp	r0, r3
0x3ffe3350:  e08f2002      add	r2, pc, r2
0x3ffe3354:  e5820000      str	r0, [r2]
0x3ffe3358:  23a00000      movcs	r0, #0	; 0x0
0x3ffe335c:  3a000001      bcc	0x3ffe3368

----------------
IN: 
0x3ffe3360:  e49d7004      pop	{r7}		; (ldr r7, [sp], #4)
0x3ffe3364:  e12fff1e      bx	lr

----------------
IN: 
0x3ffdd204:  e5960008      ldr	r0, [r6, #8]
0x3ffdd208:  e3500000      cmp	r0, #0	; 0x0
0x3ffdd20c:  0a000003      beq	0x3ffdd220

----------------
IN: 
0x3ffdd210:  e5d03000      ldrb	r3, [r0]
0x3ffdd214:  e3530000      cmp	r3, #0	; 0x0
0x3ffdd218:  1a000015      bne	0x3ffdd274

----------------
IN: 
0x3ffdd274:  eb002119      bl	0x3ffe56e0

----------------
IN: 
0x3ffe56e0:  e3c01003      bic	r1, r0, #3	; 0x3
0x3ffe56e4:  e4912004      ldr	r2, [r1], #4
0x3ffe56e8:  e2103003      ands	r3, r0, #3	; 0x3
0x3ffe56ec:  e2630000      rsb	r0, r3, #0	; 0x0
0x3ffe56f0:  0a000004      beq	0x3ffe5708

----------------
IN: 
0x3ffe5708:  e31200ff      tst	r2, #255	; 0xff
0x3ffe570c:  13120cff      tstne	r2, #65280	; 0xff00
0x3ffe5710:  131208ff      tstne	r2, #16711680	; 0xff0000
0x3ffe5714:  131204ff      tstne	r2, #-16777216	; 0xff000000
0x3ffe5718:  12800004      addne	r0, r0, #4	; 0x4
0x3ffe571c:  14912004      ldrne	r2, [r1], #4
0x3ffe5720:  1afffff8      bne	0x3ffe5708

----------------
IN: 
0x3ffe5724:  e31200ff      tst	r2, #255	; 0xff
0x3ffe5728:  12800001      addne	r0, r0, #1	; 0x1
0x3ffe572c:  13120cff      tstne	r2, #65280	; 0xff00
0x3ffe5730:  12800001      addne	r0, r0, #1	; 0x1
0x3ffe5734:  131208ff      tstne	r2, #16711680	; 0xff0000
0x3ffe5738:  12800001      addne	r0, r0, #1	; 0x1
0x3ffe573c:  e12fff1e      bx	lr

----------------
IN: 
0x3ffdd278:  e586000c      str	r0, [r6, #12]
0x3ffdd27c:  eaffffe7      b	0x3ffdd220

----------------
IN: 
0x3ffdd220:  e3a00000      mov	r0, #0	; 0x0
0x3ffdd224:  eb001857      bl	0x3ffe3388

----------------
IN: 
0x3ffe3388:  e92d4070      push	{r4, r5, r6, lr}
0x3ffe338c:  e59f6080      ldr	r6, [pc, #128]	; 0x3ffe3414
0x3ffe3390:  e1a04000      mov	r4, r0
0x3ffe3394:  e08f6006      add	r6, pc, r6
0x3ffe3398:  e5965000      ldr	r5, [r6]
0x3ffe339c:  e3550000      cmp	r5, #0	; 0x0
0x3ffe33a0:  0a000015      beq	0x3ffe33fc

----------------
IN: 
0x3ffe33a4:  e3540000      cmp	r4, #0	; 0x0
0x3ffe33a8:  0a000007      beq	0x3ffe33cc

----------------
IN: 
0x3ffe33cc:  e1a00005      mov	r0, r5
0x3ffe33d0:  e8bd8070      pop	{r4, r5, r6, pc}

----------------
IN: 
0x3ffdd228:  e59f30bc      ldr	r3, [pc, #188]	; 0x3ffdd2ec
0x3ffdd22c:  e08f3003      add	r3, pc, r3
0x3ffdd230:  e1500003      cmp	r0, r3
0x3ffdd234:  0a000011      beq	0x3ffdd280

----------------
IN: 
0x3ffdd238:  e59f30b0      ldr	r3, [pc, #176]	; 0x3ffdd2f0
0x3ffdd23c:  e08f3003      add	r3, pc, r3
0x3ffdd240:  e5933008      ldr	r3, [r3, #8]
0x3ffdd244:  e3530000      cmp	r3, #0	; 0x0
0x3ffdd248:  1a000014      bne	0x3ffdd2a0

----------------
IN: 
0x3ffdd24c:  e59f30a0      ldr	r3, [pc, #160]	; 0x3ffdd2f4
0x3ffdd250:  e1a00005      mov	r0, r5
0x3ffdd254:  e08f3003      add	r3, pc, r3
0x3ffdd258:  e1a01004      mov	r1, r4
0x3ffdd25c:  e5933050      ldr	r3, [r3, #80]
0x3ffdd260:  e28d203c      add	r2, sp, #60	; 0x3c
0x3ffdd264:  e12fff3b      blx	fp

----------------
IN: 
0x3ffdf380:  e3a0c000      mov	ip, #0	; 0x0
0x3ffdf384:  e92d4ff0      push	{r4, r5, r6, r7, r8, r9, sl, fp, lr}
0x3ffdf388:  e59fec48      ldr	lr, [pc, #3144]	; 0x3ffdffd8
0x3ffdf38c:  e28db020      add	fp, sp, #32	; 0x20
0x3ffdf390:  e24ddf7b      sub	sp, sp, #492	; 0x1ec
0x3ffdf394:  e08fe00e      add	lr, pc, lr
0x3ffdf398:  e50b31d4      str	r3, [fp, #-468]
0x3ffdf39c:  e1a04000      mov	r4, r0
0x3ffdf3a0:  e50be1dc      str	lr, [fp, #-476]
0x3ffdf3a4:  e50bc150      str	ip, [fp, #-336]
0x3ffdf3a8:  e50b11c8      str	r1, [fp, #-456]
0x3ffdf3ac:  e50b21c0      str	r2, [fp, #-448]
0x3ffdf3b0:  e50bc14c      str	ip, [fp, #-332]
0x3ffdf3b4:  e50bc148      str	ip, [fp, #-328]
0x3ffdf3b8:  e50bc044      str	ip, [fp, #-68]
0x3ffdf3bc:  e50bc040      str	ip, [fp, #-64]
0x3ffdf3c0:  e50bc03c      str	ip, [fp, #-60]
0x3ffdf3c4:  e50bc038      str	ip, [fp, #-56]
0x3ffdf3c8:  e50bc034      str	ip, [fp, #-52]
0x3ffdf3cc:  e50bc030      str	ip, [fp, #-48]
0x3ffdf3d0:  e50bc02c      str	ip, [fp, #-44]
0x3ffdf3d4:  e14bc2b8      strh	ip, [fp, #-40]
0x3ffdf3d8:  ebffe16b      bl	0x3ffd798c

----------------
IN: 
0x3ffd798c:  e59f304c      ldr	r3, [pc, #76]	; 0x3ffd79e0
0x3ffd7990:  e59fc04c      ldr	ip, [pc, #76]	; 0x3ffd79e4
0x3ffd7994:  e59f204c      ldr	r2, [pc, #76]	; 0x3ffd79e8
0x3ffd7998:  e08f3003      add	r3, pc, r3
0x3ffd799c:  e08fc00c      add	ip, pc, ip
0x3ffd79a0:  e08f2002      add	r2, pc, r2
0x3ffd79a4:  e2831c09      add	r1, r3, #2304	; 0x900
0x3ffd79a8:  e58c2000      str	r2, [ip]
0x3ffd79ac:  e1a0c001      mov	ip, r1
0x3ffd79b0:  e59f0034      ldr	r0, [pc, #52]	; 0x3ffd79ec
0x3ffd79b4:  e2811008      add	r1, r1, #8	; 0x8
0x3ffd79b8:  e08f0000      add	r0, pc, r0
0x3ffd79bc:  e583c904      str	ip, [r3, #2308]
0x3ffd79c0:  e583c900      str	ip, [r3, #2304]
0x3ffd79c4:  e283ce91      add	ip, r3, #2320	; 0x910
0x3ffd79c8:  e583190c      str	r1, [r3, #2316]
0x3ffd79cc:  e5831908      str	r1, [r3, #2312]
0x3ffd79d0:  e583c914      str	ip, [r3, #2324]
0x3ffd79d4:  e583c910      str	ip, [r3, #2320]
0x3ffd79d8:  e5802000      str	r2, [r0]
0x3ffd79dc:  e12fff1e      bx	lr

----------------
IN: 
0x3ffdf3dc:  e59f3bf8      ldr	r3, [pc, #3064]	; 0x3ffdffdc
0x3ffdf3e0:  e08f3003      add	r3, pc, r3
0x3ffdf3e4:  e5933000      ldr	r3, [r3]
0x3ffdf3e8:  e50b31b0      str	r3, [fp, #-432]
0x3ffdf3ec:  e59f3bec      ldr	r3, [pc, #3052]	; 0x3ffdffe0
0x3ffdf3f0:  e08f3003      add	r3, pc, r3
0x3ffdf3f4:  e5933000      ldr	r3, [r3]
0x3ffdf3f8:  e3530000      cmp	r3, #0	; 0x0
0x3ffdf3fc:  1a00012d      bne	0x3ffdf8b8

----------------
IN: 
0x3ffdf400:  e59f3bdc      ldr	r3, [pc, #3036]	; 0x3ffdffe4
0x3ffdf404:  e08f3003      add	r3, pc, r3
0x3ffdf408:  e2833f95      add	r3, r3, #596	; 0x254
0x3ffdf40c:  e3a05000      mov	r5, #0	; 0x0
0x3ffdf410:  e59f2bd0      ldr	r2, [pc, #3024]	; 0x3ffdffe8
0x3ffdf414:  e59f9bd0      ldr	r9, [pc, #3024]	; 0x3ffdffec
0x3ffdf418:  e59f6bd0      ldr	r6, [pc, #3024]	; 0x3ffdfff0
0x3ffdf41c:  e59f7bd0      ldr	r7, [pc, #3024]	; 0x3ffdfff4
0x3ffdf420:  e08f2002      add	r2, pc, r2
0x3ffdf424:  e5823180      str	r3, [r2, #384]
0x3ffdf428:  e08f9009      add	r9, pc, r9
0x3ffdf42c:  e08f6006      add	r6, pc, r6
0x3ffdf430:  e08f7007      add	r7, pc, r7
0x3ffdf434:  e24b8e1b      sub	r8, fp, #432	; 0x1b0
0x3ffdf438:  e1a00008      mov	r0, r8
0x3ffdf43c:  ebfff058      bl	0x3ffdb5a4

----------------
IN: 
0x3ffdb5a4:  e5903000      ldr	r3, [r0]
0x3ffdb5a8:  e1a01000      mov	r1, r0
0x3ffdb5ac:  e5930000      ldr	r0, [r3]
0x3ffdb5b0:  e3500000      cmp	r0, #0	; 0x0
0x3ffdb5b4:  1a000003      bne	0x3ffdb5c8

----------------
IN: 
0x3ffdb5c8:  e5d02000      ldrb	r2, [r0]
0x3ffdb5cc:  e352004c      cmp	r2, #76	; 0x4c
0x3ffdb5d0:  1afffff9      bne	0x3ffdb5bc

----------------
IN: 
0x3ffdb5bc:  e5b30004      ldr	r0, [r3, #4]!
0x3ffdb5c0:  e3500000      cmp	r0, #0	; 0x0
0x3ffdb5c4:  012fff1e      bxeq	lr

----------------
IN: 
0x3ffdb5d4:  e5d02001      ldrb	r2, [r0, #1]
0x3ffdb5d8:  e3520044      cmp	r2, #68	; 0x44
0x3ffdb5dc:  1afffff6      bne	0x3ffdb5bc

----------------
IN: 
0x3ffdf440:  e250a000      subs	sl, r0, #0	; 0x0
0x3ffdf444:  0a000021      beq	0x3ffdf4d0

----------------
IN: 
0x3ffdf4d0:  e59f3b20      ldr	r3, [pc, #2848]	; 0x3ffdfff8
0x3ffdf4d4:  e50ba1cc      str	sl, [fp, #-460]
0x3ffdf4d8:  e08f3003      add	r3, pc, r3
0x3ffdf4dc:  e5933000      ldr	r3, [r3]
0x3ffdf4e0:  e3530000      cmp	r3, #0	; 0x0
0x3ffdf4e4:  1a000a2a      bne	0x3ffe1d94

----------------
IN: 
0x3ffdf4e8:  e55b3028      ldrb	r3, [fp, #-40]
0x3ffdf4ec:  e3550000      cmp	r5, #0	; 0x0
0x3ffdf4f0:  03a03000      moveq	r3, #0	; 0x0
0x3ffdf4f4:  12033001      andne	r3, r3, #1	; 0x1
0x3ffdf4f8:  e3530000      cmp	r3, #0	; 0x0
0x3ffdf4fc:  1a00081c      bne	0x3ffe1574

----------------
IN: 
0x3ffdf500:  e59f3af4      ldr	r3, [pc, #2804]	; 0x3ffdfffc
0x3ffdf504:  e51b21c0      ldr	r2, [fp, #-448]
0x3ffdf508:  e79f6003      ldr	r6, [pc, r3]
0x3ffdf50c:  e59f3aec      ldr	r3, [pc, #2796]	; 0x3ffe0000
0x3ffdf510:  e5922000      ldr	r2, [r2]
0x3ffdf514:  e08f3003      add	r3, pc, r3
0x3ffdf518:  e1520003      cmp	r2, r3
0x3ffdf51c:  e5962000      ldr	r2, [r6]
0x3ffdf520:  e50b21d0      str	r2, [fp, #-464]
0x3ffdf524:  1a000229      bne	0x3ffdfdd0

----------------
IN: 
0x3ffdfdd0:  e3a05000      mov	r5, #0	; 0x0
0x3ffdfdd4:  e3a03202      mov	r3, #536870912	; 0x20000000
0x3ffdfdd8:  e59f1300      ldr	r1, [pc, #768]	; 0x3ffe00e0
0x3ffdfddc:  e88d0028      stm	sp, {r3, r5}
0x3ffdfde0:  e08f1001      add	r1, pc, r1
0x3ffdfde4:  e1a03005      mov	r3, r5
0x3ffdfde8:  e1a02005      mov	r2, r5
0x3ffdfdec:  e1a00001      mov	r0, r1
0x3ffdfdf0:  ebffc0c3      bl	0x3ffd0104

----------------
IN: 
0x3ffd0104:  e92d4ff0      push	{r4, r5, r6, r7, r8, r9, sl, fp, lr}
0x3ffd0108:  e24dd00c      sub	sp, sp, #12	; 0xc
0x3ffd010c:  e59dc030      ldr	ip, [sp, #48]
0x3ffd0110:  e1a09000      mov	r9, r0
0x3ffd0114:  e31c0421      tst	ip, #553648128	; 0x21000000
0x3ffd0118:  e1a08001      mov	r8, r1
0x3ffd011c:  e1a05003      mov	r5, r3
0x3ffd0120:  e59db034      ldr	fp, [sp, #52]
0x3ffd0124:  e58d2000      str	r2, [sp]
0x3ffd0128:  1a0000c1      bne	0x3ffd0434

----------------
IN: 
0x3ffd0434:  e31c0202      tst	ip, #536870912	; 0x20000000
0x3ffd0438:  1a00000a      bne	0x3ffd0468

----------------
IN: 
0x3ffd0468:  e59d3000      ldr	r3, [sp]
0x3ffd046c:  e3530000      cmp	r3, #0	; 0x0
0x3ffd0470:  1a000009      bne	0x3ffd049c

----------------
IN: 
0x3ffd0474:  e35b0000      cmp	fp, #0	; 0x0
0x3ffd0478:  1a00000f      bne	0x3ffd04bc

----------------
IN: 
0x3ffd047c:  e59f807c      ldr	r8, [pc, #124]	; 0x3ffd0500
0x3ffd0480:  e3a07080      mov	r7, #128	; 0x80
0x3ffd0484:  e3a02001      mov	r2, #1	; 0x1
0x3ffd0488:  e1a0a00b      mov	sl, fp
0x3ffd048c:  e3a06010      mov	r6, #16	; 0x10
0x3ffd0490:  e59f006c      ldr	r0, [pc, #108]	; 0x3ffd0504
0x3ffd0494:  e08f8008      add	r8, pc, r8
0x3ffd0498:  eaffff2d      b	0x3ffd0154

----------------
IN: 
0x3ffd0154:  e59f3384      ldr	r3, [pc, #900]	; 0x3ffd04e0
0x3ffd0158:  e3a01001      mov	r1, #1	; 0x1
0x3ffd015c:  e08f3003      add	r3, pc, r3
0x3ffd0160:  e5933000      ldr	r3, [r3]
0x3ffd0164:  e58d2004      str	r2, [sp, #4]
0x3ffd0168:  e12fff33      blx	r3

----------------
IN: 
0x3ffcfc0c:  e1802001      orr	r2, r0, r1
0x3ffcfc10:  e3520801      cmp	r2, #65536	; 0x10000
0x3ffcfc14:  33a02000      movcc	r2, #0	; 0x0
0x3ffcfc18:  23a02001      movcs	r2, #1	; 0x1
0x3ffcfc1c:  e3510000      cmp	r1, #0	; 0x0
0x3ffcfc20:  03a02000      moveq	r2, #0	; 0x0
0x3ffcfc24:  e3520000      cmp	r2, #0	; 0x0
0x3ffcfc28:  e92d4070      push	{r4, r5, r6, lr}
0x3ffcfc2c:  e0040091      mul	r4, r1, r0
0x3ffcfc30:  1a000005      bne	0x3ffcfc4c

----------------
IN: 
0x3ffcfc34:  e59f302c      ldr	r3, [pc, #44]	; 0x3ffcfc68
0x3ffcfc38:  e1a00004      mov	r0, r4
0x3ffcfc3c:  e8bd4070      pop	{r4, r5, r6, lr}
0x3ffcfc40:  e08f3003      add	r3, pc, r3
0x3ffcfc44:  e5933000      ldr	r3, [r3]
0x3ffcfc48:  e12fff13      bx	r3

----------------
IN: 
0x3ffcfabc:  e59f1128      ldr	r1, [pc, #296]	; 0x3ffcfbec
0x3ffcfac0:  e92d4030      push	{r4, r5, lr}
0x3ffcfac4:  e08f1001      add	r1, pc, r1
0x3ffcfac8:  e5912000      ldr	r2, [r1]
0x3ffcfacc:  e1a04000      mov	r4, r0
0x3ffcfad0:  e3520000      cmp	r2, #0	; 0x0
0x3ffcfad4:  e24dd00c      sub	sp, sp, #12	; 0xc
0x3ffcfad8:  0a000035      beq	0x3ffcfbb4

----------------
IN: 
0x3ffcfbb4:  e59f2048      ldr	r2, [pc, #72]	; 0x3ffcfc04
0x3ffcfbb8:  e59f3048      ldr	r3, [pc, #72]	; 0x3ffcfc08
0x3ffcfbbc:  e08f2002      add	r2, pc, r2
0x3ffcfbc0:  e5920010      ldr	r0, [r2, #16]
0x3ffcfbc4:  e08f3003      add	r3, pc, r3
0x3ffcfbc8:  e0802003      add	r2, r0, r3
0x3ffcfbcc:  e2422001      sub	r2, r2, #1	; 0x1
0x3ffcfbd0:  e2600000      rsb	r0, r0, #0	; 0x0
0x3ffcfbd4:  e0022000      and	r2, r2, r0
0x3ffcfbd8:  e5812000      str	r2, [r1]
0x3ffcfbdc:  eaffffbf      b	0x3ffcfae0

----------------
IN: 
0x3ffcfae0:  e2833007      add	r3, r3, #7	; 0x7
0x3ffcfae4:  e3c30007      bic	r0, r3, #7	; 0x7
0x3ffcfae8:  e59f3100      ldr	r3, [pc, #256]	; 0x3ffcfbf0
0x3ffcfaec:  e0801004      add	r1, r0, r4
0x3ffcfaf0:  e08f3003      add	r3, pc, r3
0x3ffcfaf4:  e1510002      cmp	r1, r2
0x3ffcfaf8:  e5830004      str	r0, [r3, #4]
0x3ffcfafc:  2a000002      bcs	0x3ffcfb0c

----------------
IN: 
0x3ffcfb00:  e2603000      rsb	r3, r0, #0	; 0x0
0x3ffcfb04:  e1530004      cmp	r3, r4
0x3ffcfb08:  8a000023      bhi	0x3ffcfb9c

----------------
IN: 
0x3ffcfb9c:  e59f305c      ldr	r3, [pc, #92]	; 0x3ffcfc00
0x3ffcfba0:  e08f3003      add	r3, pc, r3
0x3ffcfba4:  e5830008      str	r0, [r3, #8]
0x3ffcfba8:  e5831004      str	r1, [r3, #4]
0x3ffcfbac:  e28dd00c      add	sp, sp, #12	; 0xc
0x3ffcfbb0:  e8bd8030      pop	{r4, r5, pc}

----------------
IN: 
0x3ffd016c:  e2504000      subs	r4, r0, #0	; 0x0
0x3ffd0170:  0a00008f      beq	0x3ffd03b4

----------------
IN: 
0x3ffd0174:  e2877f9a      add	r7, r7, #616	; 0x268
0x3ffd0178:  e0847007      add	r7, r4, r7
0x3ffd017c:  e2873004      add	r3, r7, #4	; 0x4
0x3ffd0180:  e584301c      str	r3, [r4, #28]
0x3ffd0184:  e1a01008      mov	r1, r8
0x3ffd0188:  e59d2004      ldr	r2, [sp, #4]
0x3ffd018c:  e5844014      str	r4, [r4, #20]
0x3ffd0190:  e5847168      str	r7, [r4, #360]
0x3ffd0194:  e2870010      add	r0, r7, #16	; 0x10
0x3ffd0198:  eb0057fc      bl	0x3ffe6190

----------------
IN: 
0x3ffe6190:  e92d4011      push	{r0, r4, lr}
0x3ffe6194:  e2522004      subs	r2, r2, #4	; 0x4
0x3ffe6198:  3a000021      bcc	0x3ffe6224

----------------
IN: 
0x3ffe6224:  e1b02f82      lsls	r2, r2, #31
0x3ffe6228:  14d13001      ldrbne	r3, [r1], #1
0x3ffe622c:  24d14001      ldrbcs	r4, [r1], #1
0x3ffe6230:  25d1c000      ldrbcs	ip, [r1]
0x3ffe6234:  14c03001      strbne	r3, [r0], #1
0x3ffe6238:  24c04001      strbcs	r4, [r0], #1
0x3ffe623c:  25c0c000      strbcs	ip, [r0]
0x3ffe6240:  e8bd8011      pop	{r0, r4, pc}

----------------
IN: 
0x3ffd019c:  e3a03001      mov	r3, #1	; 0x1
0x3ffd01a0:  e5870004      str	r0, [r7, #4]
0x3ffd01a4:  e587300c      str	r3, [r7, #12]
0x3ffd01a8:  e5d93000      ldrb	r3, [r9]
0x3ffd01ac:  e3530000      cmp	r3, #0	; 0x0
0x3ffd01b0:  1a000082      bne	0x3ffd03c0

----------------
IN: 
0x3ffd01b4:  e080000a      add	r0, r0, sl
0x3ffd01b8:  e59d3000      ldr	r3, [sp]
0x3ffd01bc:  e5840004      str	r0, [r4, #4]
0x3ffd01c0:  e2038003      and	r8, r3, #3	; 0x3
0x3ffd01c4:  e59f3318      ldr	r3, [pc, #792]	; 0x3ffd04e4
0x3ffd01c8:  e5845170      str	r5, [r4, #368]
0x3ffd01cc:  e08f3003      add	r3, pc, r3
0x3ffd01d0:  e5933000      ldr	r3, [r3]
0x3ffd01d4:  e584b018      str	fp, [r4, #24]
0x3ffd01d8:  e3130c01      tst	r3, #256	; 0x100
0x3ffd01dc:  e5d43198      ldrb	r3, [r4, #408]
0x3ffd01e0:  e3c33003      bic	r3, r3, #3	; 0x3
0x3ffd01e4:  e1888003      orr	r8, r8, r3
0x3ffd01e8:  03a03001      moveq	r3, #1	; 0x1
0x3ffd01ec:  0584320c      streq	r3, [r4, #524]
0x3ffd01f0:  e3560000      cmp	r6, #0	; 0x0
0x3ffd01f4:  e5c48198      strb	r8, [r4, #408]
0x3ffd01f8:  0a00000f      beq	0x3ffd023c

----------------
IN: 
0x3ffd01fc:  e3a01000      mov	r1, #0	; 0x0
0x3ffd0200:  e59fc2e0      ldr	ip, [pc, #736]	; 0x3ffd04e8
0x3ffd0204:  e2842f9a      add	r2, r4, #616	; 0x268
0x3ffd0208:  e08fc00c      add	ip, pc, ip
0x3ffd020c:  e28c3e85      add	r3, ip, #2128	; 0x850
0x3ffd0210:  e2833008      add	r3, r3, #8	; 0x8
0x3ffd0214:  e28cce5f      add	ip, ip, #1520	; 0x5f0
0x3ffd0218:  e154000c      cmp	r4, ip
0x3ffd021c:  11a00002      movne	r0, r2
0x3ffd0220:  01a00003      moveq	r0, r3
0x3ffd0224:  e2811001      add	r1, r1, #1	; 0x1
0x3ffd0228:  e1560001      cmp	r6, r1
0x3ffd022c:  e2833008      add	r3, r3, #8	; 0x8
0x3ffd0230:  e2822008      add	r2, r2, #8	; 0x8
0x3ffd0234:  e5804000      str	r4, [r0]
0x3ffd0238:  1afffff6      bne	0x3ffd0218

----------------
IN: 
0x3ffd0218:  e154000c      cmp	r4, ip
0x3ffd021c:  11a00002      movne	r0, r2
0x3ffd0220:  01a00003      moveq	r0, r3
0x3ffd0224:  e2811001      add	r1, r1, #1	; 0x1
0x3ffd0228:  e1560001      cmp	r6, r1
0x3ffd022c:  e2833008      add	r3, r3, #8	; 0x8
0x3ffd0230:  e2822008      add	r2, r2, #8	; 0x8
0x3ffd0234:  e5804000      str	r4, [r0]
0x3ffd0238:  1afffff6      bne	0x3ffd0218

----------------
IN: 
0x3ffd023c:  e3a03004      mov	r3, #4	; 0x4
0x3ffd0240:  e58431d4      str	r3, [r4, #468]
0x3ffd0244:  e59f32a0      ldr	r3, [pc, #672]	; 0x3ffd04ec
0x3ffd0248:  e08b210b      add	r2, fp, fp, lsl #2
0x3ffd024c:  e08f3003      add	r3, pc, r3
0x3ffd0250:  e08b2082      add	r2, fp, r2, lsl #1
0x3ffd0254:  e7933182      ldr	r3, [r3, r2, lsl #3]
0x3ffd0258:  e2841f71      add	r1, r4, #452	; 0x1c4
0x3ffd025c:  e3530000      cmp	r3, #0	; 0x0
0x3ffd0260:  e58411d8      str	r1, [r4, #472]
0x3ffd0264:  0a000063      beq	0x3ffd03f8

----------------
IN: 
0x3ffd03f8:  e3550000      cmp	r5, #0	; 0x0
0x3ffd03fc:  11a02003      movne	r2, r3
0x3ffd0400:  1affff9d      bne	0x3ffd027c

----------------
IN: 
0x3ffd0404:  e1a03004      mov	r3, r4
0x3ffd0408:  eaffffa2      b	0x3ffd0298

----------------
IN: 
0x3ffd0298:  e2833e16      add	r3, r3, #352	; 0x160
0x3ffd029c:  e5813000      str	r3, [r1]
0x3ffd02a0:  e2843e16      add	r3, r4, #352	; 0x160
0x3ffd02a4:  e58431dc      str	r3, [r4, #476]
0x3ffd02a8:  e5d95000      ldrb	r5, [r9]
0x3ffd02ac:  e3550000      cmp	r5, #0	; 0x0
0x3ffd02b0:  0a00003f      beq	0x3ffd03b4

----------------
IN: 
0x3ffd03b4:  e1a00004      mov	r0, r4
0x3ffd03b8:  e28dd00c      add	sp, sp, #12	; 0xc
0x3ffd03bc:  e8bd8ff0      pop	{r4, r5, r6, r7, r8, r9, sl, fp, pc}

----------------
IN: 
0x3ffdfdf4:  e250a000      subs	sl, r0, #0	; 0x0
0x3ffdfdf8:  0a000c8f      beq	0x3ffe303c

----------------
IN: 
0x3ffdfdfc:  e51b31c0      ldr	r3, [fp, #-448]
0x3ffdfe00:  e51b21c8      ldr	r2, [fp, #-456]
0x3ffdfe04:  e5933000      ldr	r3, [r3]
0x3ffdfe08:  e58a4154      str	r4, [sl, #340]
0x3ffdfe0c:  e28a4f57      add	r4, sl, #348	; 0x15c
0x3ffdfe10:  e1c420b0      strh	r2, [r4]
0x3ffdfe14:  e1a01005      mov	r1, r5
0x3ffdfe18:  e58a3158      str	r3, [sl, #344]
0x3ffdfe1c:  ebffc084      bl	0x3ffd0034

----------------
IN: 
0x3ffd0034:  e92d4070      push	{r4, r5, r6, lr}
0x3ffd0038:  e1a04001      mov	r4, r1
0x3ffd003c:  e1a05000      mov	r5, r0
0x3ffd0040:  e59f60ac      ldr	r6, [pc, #172]	; 0x3ffd00f4
0x3ffd0044:  e59f30ac      ldr	r3, [pc, #172]	; 0x3ffd00f8
0x3ffd0048:  e08f6006      add	r6, pc, r6
0x3ffd004c:  e08f3003      add	r3, pc, r3
0x3ffd0050:  e2860e59      add	r0, r6, #1424	; 0x590
0x3ffd0054:  e5933000      ldr	r3, [r3]
0x3ffd0058:  e280000c      add	r0, r0, #12	; 0xc
0x3ffd005c:  e12fff33      blx	r3

----------------
IN: 
0x3ffd7984:  e3a00000      mov	r0, #0	; 0x0
0x3ffd7988:  e12fff1e      bx	lr

----------------
IN: 
0x3ffd0060:  e0842104      add	r2, r4, r4, lsl #2
0x3ffd0064:  e0842082      add	r2, r4, r2, lsl #1
0x3ffd0068:  e1a02182      lsl	r2, r2, #3
0x3ffd006c:  e7963002      ldr	r3, [r6, r2]
0x3ffd0070:  e1a01104      lsl	r1, r4, #2
0x3ffd0074:  e3530000      cmp	r3, #0	; 0x0
0x3ffd0078:  07865002      streq	r5, [r6, r2]
0x3ffd007c:  0a000005      beq	0x3ffd0098

----------------
IN: 
0x3ffd0098:  e59f305c      ldr	r3, [pc, #92]	; 0x3ffd00fc
0x3ffd009c:  e0812004      add	r2, r1, r4
0x3ffd00a0:  e08f3003      add	r3, pc, r3
0x3ffd00a4:  e0844082      add	r4, r4, r2, lsl #1
0x3ffd00a8:  e0834184      add	r4, r3, r4, lsl #3
0x3ffd00ac:  e5942004      ldr	r2, [r4, #4]
0x3ffd00b0:  e59315d0      ldr	r1, [r3, #1488]
0x3ffd00b4:  e2822001      add	r2, r2, #1	; 0x1
0x3ffd00b8:  e5842004      str	r2, [r4, #4]
0x3ffd00bc:  e291c001      adds	ip, r1, #1	; 0x1
0x3ffd00c0:  e59325d4      ldr	r2, [r3, #1492]
0x3ffd00c4:  e5851260      str	r1, [r5, #608]
0x3ffd00c8:  e59f1030      ldr	r1, [pc, #48]	; 0x3ffd0100
0x3ffd00cc:  e5852264      str	r2, [r5, #612]
0x3ffd00d0:  e08f1001      add	r1, pc, r1
0x3ffd00d4:  e2a22000      adc	r2, r2, #0	; 0x0
0x3ffd00d8:  e2830e59      add	r0, r3, #1424	; 0x590
0x3ffd00dc:  e5911000      ldr	r1, [r1]
0x3ffd00e0:  e583c5d0      str	ip, [r3, #1488]
0x3ffd00e4:  e58325d4      str	r2, [r3, #1492]
0x3ffd00e8:  e280000c      add	r0, r0, #12	; 0xc
0x3ffd00ec:  e8bd4070      pop	{r4, r5, r6, lr}
0x3ffd00f0:  e12fff11      bx	r1

----------------
IN: 
0x3ffdfe20:  e59f32bc      ldr	r3, [pc, #700]	; 0x3ffe00e4
0x3ffdfe24:  e08f3003      add	r3, pc, r3
0x3ffdfe28:  e5933000      ldr	r3, [r3]
0x3ffdfe2c:  e153000a      cmp	r3, sl
0x3ffdfe30:  1a000c89      bne	0x3ffe305c

----------------
IN: 
0x3ffdfe34:  e50b51d4      str	r5, [fp, #-468]
0x3ffdfe38:  e1d420b0      ldrh	r2, [r4]
0x3ffdfe3c:  e59a5154      ldr	r5, [sl, #340]
0x3ffdfe40:  e3e01000      mvn	r1, #0	; 0x0
0x3ffdfe44:  e3a03000      mov	r3, #0	; 0x0
0x3ffdfe48:  e58a11b8      str	r1, [sl, #440]
0x3ffdfe4c:  e59a1194      ldr	r1, [sl, #404]
0x3ffdfe50:  e0854282      add	r4, r5, r2, lsl #5
0x3ffdfe54:  e2811001      add	r1, r1, #1	; 0x1
0x3ffdfe58:  e58a1194      str	r1, [sl, #404]
0x3ffdfe5c:  e5da119a      ldrb	r1, [sl, #410]
0x3ffdfe60:  e1550004      cmp	r5, r4
0x3ffdfe64:  e3811004      orr	r1, r1, #4	; 0x4
0x3ffdfe68:  e58a31bc      str	r3, [sl, #444]
0x3ffdfe6c:  e58a31c0      str	r3, [sl, #448]
0x3ffdfe70:  e5ca119a      strb	r1, [sl, #410]
0x3ffdfe74:  2a000830      bcs	0x3ffe1f3c

----------------
IN: 
0x3ffdfe78:  e1a09003      mov	r9, r3
0x3ffdfe7c:  e59f6264      ldr	r6, [pc, #612]	; 0x3ffe00e8
0x3ffdfe80:  e59f3264      ldr	r3, [pc, #612]	; 0x3ffe00ec
0x3ffdfe84:  e08f6006      add	r6, pc, r6
0x3ffdfe88:  e59f1260      ldr	r1, [pc, #608]	; 0x3ffe00f0
0x3ffdfe8c:  e59fe260      ldr	lr, [pc, #608]	; 0x3ffe00f4
0x3ffdfe90:  e59f0260      ldr	r0, [pc, #608]	; 0x3ffe00f8
0x3ffdfe94:  e08f3003      add	r3, pc, r3
0x3ffdfe98:  e50b61f0      str	r6, [fp, #-496]
0x3ffdfe9c:  e59f6258      ldr	r6, [pc, #600]	; 0x3ffe00fc
0x3ffdfea0:  e5933010      ldr	r3, [r3, #16]
0x3ffdfea4:  e08f1001      add	r1, pc, r1
0x3ffdfea8:  e08fe00e      add	lr, pc, lr
0x3ffdfeac:  e08f0000      add	r0, pc, r0
0x3ffdfeb0:  e08f6006      add	r6, pc, r6
0x3ffdfeb4:  e50b11e4      str	r1, [fp, #-484]
0x3ffdfeb8:  e2811014      add	r1, r1, #20	; 0x14
0x3ffdfebc:  e50b01e0      str	r0, [fp, #-480]
0x3ffdfec0:  e50b61e8      str	r6, [fp, #-488]
0x3ffdfec4:  e50b11ec      str	r1, [fp, #-492]
0x3ffdfec8:  e2636000      rsb	r6, r3, #0	; 0x0
0x3ffdfecc:  e28e1020      add	r1, lr, #32	; 0x20
0x3ffdfed0:  e2433001      sub	r3, r3, #1	; 0x1
0x3ffdfed4:  e59fc170      ldr	ip, [pc, #368]	; 0x3ffe004c
0x3ffdfed8:  e59f02b4      ldr	r0, [pc, #692]	; 0x3ffe0194
0x3ffdfedc:  e50b31d8      str	r3, [fp, #-472]
0x3ffdfee0:  e2842020      add	r2, r4, #32	; 0x20
0x3ffdfee4:  e50be1f4      str	lr, [fp, #-500]
0x3ffdfee8:  e50b61c0      str	r6, [fp, #-448]
0x3ffdfeec:  e2853020      add	r3, r5, #32	; 0x20
0x3ffdfef0:  e50b11f8      str	r1, [fp, #-504]
0x3ffdfef4:  e50b91c4      str	r9, [fp, #-452]
0x3ffdfef8:  e50b41c8      str	r4, [fp, #-456]
0x3ffdfefc:  e5131020      ldr	r1, [r3, #-32]
0x3ffdff00:  e3510007      cmp	r1, #7	; 0x7
0x3ffdff04:  8a00041e      bhi	0x3ffe0f84

----------------
IN: 
0x3ffe0f84:  e151000c      cmp	r1, ip
0x3ffe0f88:  0a000009      beq	0x3ffe0fb4

----------------
IN: 
0x3ffe0f8c:  e1510000      cmp	r1, r0
0x3ffe0f90:  1afffc0a      bne	0x3ffdffc0

----------------
IN: 
0x3ffdffc0:  e2833020      add	r3, r3, #32	; 0x20
0x3ffdffc4:  e1520003      cmp	r2, r3
0x3ffdffc8:  1affffcb      bne	0x3ffdfefc

----------------
IN: 
0x3ffdfefc:  e5131020      ldr	r1, [r3, #-32]
0x3ffdff00:  e3510007      cmp	r1, #7	; 0x7
0x3ffdff04:  8a00041e      bhi	0x3ffe0f84

----------------
IN: 
0x3ffdff08:  e3510000      cmp	r1, #0	; 0x0
0x3ffdff0c:  0a00002b      beq	0x3ffdffc0

----------------
IN: 
0x3ffdff10:  e2411001      sub	r1, r1, #1	; 0x1
0x3ffdff14:  e3510006      cmp	r1, #6	; 0x6
0x3ffdff18:  908ff101      addls	pc, pc, r1, lsl #2

----------------
IN: 
0x3ffdff34:  ea0003eb      b	0x3ffe0ee8

----------------
IN: 
0x3ffe0ee8:  e5131018      ldr	r1, [r3, #-24]
0x3ffe0eec:  e2833020      add	r3, r3, #32	; 0x20
0x3ffe0ef0:  e0451001      sub	r1, r5, r1
0x3ffe0ef4:  e1520003      cmp	r2, r3
0x3ffe0ef8:  e58a1000      str	r1, [sl]
0x3ffe0efc:  1afffbfe      bne	0x3ffdfefc

----------------
IN: 
0x3ffdff28:  ea0003f5      b	0x3ffe0f04

----------------
IN: 
0x3ffe0f04:  e51b11e8      ldr	r1, [fp, #-488]
0x3ffe0f08:  e51be1ec      ldr	lr, [fp, #-492]
0x3ffe0f0c:  e5137018      ldr	r7, [r3, #-24]
0x3ffe0f10:  e59a6000      ldr	r6, [sl]
0x3ffe0f14:  e581e60c      str	lr, [r1, #1548]
0x3ffe0f18:  e591e5f8      ldr	lr, [r1, #1528]
0x3ffe0f1c:  e51b91e4      ldr	r9, [fp, #-484]
0x3ffe0f20:  e0871006      add	r1, r7, r6
0x3ffe0f24:  e35e0000      cmp	lr, #0	; 0x0
0x3ffe0f28:  e5891014      str	r1, [r9, #20]
0x3ffe0f2c:  0a0003e9      beq	0x3ffe1ed8

----------------
IN: 
0x3ffe0f30:  e2833020      add	r3, r3, #32	; 0x20
0x3ffe0f34:  e1520003      cmp	r2, r3
0x3ffe0f38:  e3a09001      mov	r9, #1	; 0x1
0x3ffe0f3c:  1afffbee      bne	0x3ffdfefc

----------------
IN: 
0x3ffdff20:  ea000005      b	0x3ffdff3c

----------------
IN: 
0x3ffdff3c:  e5131018      ldr	r1, [r3, #-24]
0x3ffdff40:  e51be1c0      ldr	lr, [fp, #-448]
0x3ffdff44:  e59a6000      ldr	r6, [sl]
0x3ffdff48:  e59a71b8      ldr	r7, [sl, #440]
0x3ffdff4c:  e001e00e      and	lr, r1, lr
0x3ffdff50:  e08ee006      add	lr, lr, r6
0x3ffdff54:  e15e0007      cmp	lr, r7
0x3ffdff58:  e5da719a      ldrb	r7, [sl, #410]
0x3ffdff5c:  358ae1b8      strcc	lr, [sl, #440]
0x3ffdff60:  e3170004      tst	r7, #4	; 0x4
0x3ffdff64:  0a000004      beq	0x3ffdff7c

----------------
IN: 
0x3ffdff68:  e51b41c4      ldr	r4, [fp, #-452]
0x3ffdff6c:  e3540000      cmp	r4, #0	; 0x0
0x3ffdff70:  115e0004      cmpne	lr, r4
0x3ffdff74:  13c77004      bicne	r7, r7, #4	; 0x4
0x3ffdff78:  15ca719a      strbne	r7, [sl, #410]
0x3ffdff7c:  e513e00c      ldr	lr, [r3, #-12]
0x3ffdff80:  e081100e      add	r1, r1, lr
0x3ffdff84:  e59ae1bc      ldr	lr, [sl, #444]
0x3ffdff88:  e0811006      add	r1, r1, r6
0x3ffdff8c:  e151000e      cmp	r1, lr
0x3ffdff90:  858a11bc      strhi	r1, [sl, #444]
0x3ffdff94:  e513e008      ldr	lr, [r3, #-8]
0x3ffdff98:  e31e0001      tst	lr, #1	; 0x1
0x3ffdff9c:  0a000002      beq	0x3ffdffac

----------------
IN: 
0x3ffdffa0:  e59ae1c0      ldr	lr, [sl, #448]
0x3ffdffa4:  e151000e      cmp	r1, lr
0x3ffdffa8:  858a11c0      strhi	r1, [sl, #448]
0x3ffdffac:  e51be1d8      ldr	lr, [fp, #-472]
0x3ffdffb0:  e08e1001      add	r1, lr, r1
0x3ffdffb4:  e51be1c0      ldr	lr, [fp, #-448]
0x3ffdffb8:  e001100e      and	r1, r1, lr
0x3ffdffbc:  e50b11c4      str	r1, [fp, #-452]
0x3ffdffc0:  e2833020      add	r3, r3, #32	; 0x20
0x3ffdffc4:  e1520003      cmp	r2, r3
0x3ffdffc8:  1affffcb      bne	0x3ffdfefc

----------------
IN: 
0x3ffdffac:  e51be1d8      ldr	lr, [fp, #-472]
0x3ffdffb0:  e08e1001      add	r1, lr, r1
0x3ffdffb4:  e51be1c0      ldr	lr, [fp, #-448]
0x3ffdffb8:  e001100e      and	r1, r1, lr
0x3ffdffbc:  e50b11c4      str	r1, [fp, #-452]
0x3ffdffc0:  e2833020      add	r3, r3, #32	; 0x20
0x3ffdffc4:  e1520003      cmp	r2, r3
0x3ffdffc8:  1affffcb      bne	0x3ffdfefc

----------------
IN: 
0x3ffdff24:  ea000406      b	0x3ffe0f44

----------------
IN: 
0x3ffe0f44:  e5131008      ldr	r1, [r3, #-8]
0x3ffe0f48:  e5dae19a      ldrb	lr, [sl, #410]
0x3ffe0f4c:  e1a010a1      lsr	r1, r1, #1
0x3ffe0f50:  e2211001      eor	r1, r1, #1	; 0x1
0x3ffe0f54:  e3cee020      bic	lr, lr, #32	; 0x20
0x3ffe0f58:  e2011001      and	r1, r1, #1	; 0x1
0x3ffe0f5c:  e18e1281      orr	r1, lr, r1, lsl #5
0x3ffe0f60:  e513e018      ldr	lr, [r3, #-24]
0x3ffe0f64:  e5ca119a      strb	r1, [sl, #410]
0x3ffe0f68:  e59a1000      ldr	r1, [sl]
0x3ffe0f6c:  e2833020      add	r3, r3, #32	; 0x20
0x3ffe0f70:  e08ee001      add	lr, lr, r1
0x3ffe0f74:  e1520003      cmp	r2, r3
0x3ffe0f78:  e58ae008      str	lr, [sl, #8]
0x3ffe0f7c:  1afffbde      bne	0x3ffdfefc

----------------
IN: 
0x3ffdff2c:  ea000023      b	0x3ffdffc0

----------------
IN: 
0x3ffe0fb4:  e5131008      ldr	r1, [r3, #-8]
0x3ffe0fb8:  e51be1e0      ldr	lr, [fp, #-480]
0x3ffe0fbc:  e2833020      add	r3, r3, #32	; 0x20
0x3ffe0fc0:  e1520003      cmp	r2, r3
0x3ffe0fc4:  e58e18d8      str	r1, [lr, #2264]
0x3ffe0fc8:  1afffbcb      bne	0x3ffdfefc

----------------
IN: 
0x3ffe0f94:  e5131018      ldr	r1, [r3, #-24]
0x3ffe0f98:  e2833020      add	r3, r3, #32	; 0x20
0x3ffe0f9c:  e58a1258      str	r1, [sl, #600]
0x3ffe0fa0:  e513102c      ldr	r1, [r3, #-44]
0x3ffe0fa4:  e1520003      cmp	r2, r3
0x3ffe0fa8:  e58a125c      str	r1, [sl, #604]
0x3ffe0fac:  1afffbd2      bne	0x3ffdfefc

----------------
IN: 
0x3ffe0fb0:  eafffc05      b	0x3ffdffcc

----------------
IN: 
0x3ffdffcc:  e51b41c8      ldr	r4, [fp, #-456]
0x3ffdffd0:  e59f6128      ldr	r6, [pc, #296]	; 0x3ffe0100
0x3ffdffd4:  ea000088      b	0x3ffe01fc

----------------
IN: 
0x3ffe01fc:  e5343020      ldr	r3, [r4, #-32]!
0x3ffe0200:  e1530006      cmp	r3, r6
0x3ffe0204:  1afffffa      bne	0x3ffe01f4

----------------
IN: 
0x3ffe01f4:  e1540005      cmp	r4, r5
0x3ffe01f8:  0a000008      beq	0x3ffe0220

----------------
IN: 
0x3ffe0220:  e59a2238      ldr	r2, [sl, #568]
0x3ffe0224:  e59a11bc      ldr	r1, [sl, #444]
0x3ffe0228:  e3520000      cmp	r2, #0	; 0x0
0x3ffe022c:  e59a31c0      ldr	r3, [sl, #448]
0x3ffe0230:  0a000002      beq	0x3ffe0240

----------------
IN: 
0x3ffe0240:  e3510000      cmp	r1, #0	; 0x0
0x3ffe0244:  1a000001      bne	0x3ffe0250

----------------
IN: 
0x3ffe0250:  e3530000      cmp	r3, #0	; 0x0
0x3ffe0254:  03e03000      mvneq	r3, #0	; 0x0
0x3ffe0258:  058a31c0      streq	r3, [sl, #448]
0x3ffe025c:  e51f3160      ldr	r3, [pc, #-352]	; 0x3ffe0104
0x3ffe0260:  e08f3003      add	r3, pc, r3
0x3ffe0264:  e593260c      ldr	r2, [r3, #1548]
0x3ffe0268:  e3520000      cmp	r2, #0	; 0x0
0x3ffe026c:  0a000634      beq	0x3ffe1b44

----------------
IN: 
0x3ffe0270:  e51f2170      ldr	r2, [pc, #-368]	; 0x3ffe0108
0x3ffe0274:  e08f2002      add	r2, pc, r2
0x3ffe0278:  e5923648      ldr	r3, [r2, #1608]
0x3ffe027c:  e3530000      cmp	r3, #0	; 0x0
0x3ffe0280:  0a000019      beq	0x3ffe02ec

----------------
IN: 
0x3ffe0284:  e5934004      ldr	r4, [r3, #4]
0x3ffe0288:  e5921624      ldr	r1, [r2, #1572]
0x3ffe028c:  e5d2378a      ldrb	r3, [r2, #1930]
0x3ffe0290:  e5911004      ldr	r1, [r1, #4]
0x3ffe0294:  e2133020      ands	r3, r3, #32	; 0x20
0x3ffe0298:  159235f0      ldrne	r3, [r2, #1520]
0x3ffe029c:  e592560c      ldr	r5, [r2, #1548]
0x3ffe02a0:  e0844001      add	r4, r4, r1
0x3ffe02a4:  e0844003      add	r4, r4, r3
0x3ffe02a8:  e1a01004      mov	r1, r4
0x3ffe02ac:  e5950000      ldr	r0, [r5]
0x3ffe02b0:  eb00149d      bl	0x3ffe552c

----------------
IN: 
0x3ffe552c:  e4d03001      ldrb	r3, [r0], #1
0x3ffe5530:  e4d12001      ldrb	r2, [r1], #1
0x3ffe5534:  e3530000      cmp	r3, #0	; 0x0
0x3ffe5538:  0a000003      beq	0x3ffe554c

----------------
IN: 
0x3ffe553c:  e1530002      cmp	r3, r2
0x3ffe5540:  0afffff9      beq	0x3ffe552c

----------------
IN: 
0x3ffe5544:  e0430002      sub	r0, r3, r2
0x3ffe5548:  e12fff1e      bx	lr

----------------
IN: 
0x3ffe02b4:  e3500000      cmp	r0, #0	; 0x0
0x3ffe02b8:  0a00000b      beq	0x3ffe02ec

----------------
IN: 
0x3ffe02bc:  e3a01000      mov	r1, #0	; 0x0
0x3ffe02c0:  e3a02001      mov	r2, #1	; 0x1
0x3ffe02c4:  e51f31c0      ldr	r3, [pc, #-448]	; 0x3ffe010c
0x3ffe02c8:  e08f3003      add	r3, pc, r3
0x3ffe02cc:  e5831030      str	r1, [r3, #48]
0x3ffe02d0:  e5832034      str	r2, [r3, #52]
0x3ffe02d4:  e5952004      ldr	r2, [r5, #4]
0x3ffe02d8:  e583402c      str	r4, [r3, #44]
0x3ffe02dc:  e1520001      cmp	r2, r1
0x3ffe02e0:  0283302c      addeq	r3, r3, #44	; 0x2c
0x3ffe02e4:  05853004      streq	r3, [r5, #4]
0x3ffe02e8:  1a000b98      bne	0x3ffe3150

----------------
IN: 
0x3ffe02ec:  e51f31e4      ldr	r3, [pc, #-484]	; 0x3ffe0110
0x3ffe02f0:  e08f3003      add	r3, pc, r3
0x3ffe02f4:  e5d33788      ldrb	r3, [r3, #1928]
0x3ffe02f8:  e3130004      tst	r3, #4	; 0x4
0x3ffe02fc:  0a000bab      beq	0x3ffe31b0

----------------
IN: 
0x3ffe0300:  e51b31d4      ldr	r3, [fp, #-468]
0x3ffe0304:  e3530000      cmp	r3, #0	; 0x0
0x3ffe0308:  1a00009c      bne	0x3ffe0580

----------------
IN: 
0x3ffe030c:  e59a2008      ldr	r2, [sl, #8]
0x3ffe0310:  e3520000      cmp	r2, #0	; 0x0
0x3ffe0314:  0a000087      beq	0x3ffe0538

----------------
IN: 
0x3ffe0318:  e5923000      ldr	r3, [r2]
0x3ffe031c:  e28a1020      add	r1, sl, #32	; 0x20
0x3ffe0320:  e3530000      cmp	r3, #0	; 0x0
0x3ffe0324:  0a00001c      beq	0x3ffe039c

----------------
IN: 
0x3ffe0328:  e3e0c209      mvn	ip, #-1879048192	; 0x90000000
0x3ffe032c:  e51f420c      ldr	r4, [pc, #-524]	; 0x3ffe0128
0x3ffe0330:  e51f520c      ldr	r5, [pc, #-524]	; 0x3ffe012c
0x3ffe0334:  e51f6228      ldr	r6, [pc, #-552]	; 0x3ffe0114
0x3ffe0338:  e51f720c      ldr	r7, [pc, #-524]	; 0x3ffe0134
0x3ffe033c:  e51fe214      ldr	lr, [pc, #-532]	; 0x3ffe0130
0x3ffe0340:  e3530022      cmp	r3, #34	; 0x22
0x3ffe0344:  9a000010      bls	0x3ffe038c

----------------
IN: 
0x3ffe038c:  e7812103      str	r2, [r1, r3, lsl #2]
0x3ffe0390:  e5b23008      ldr	r3, [r2, #8]!
0x3ffe0394:  e3530000      cmp	r3, #0	; 0x0
0x3ffe0398:  1affffe8      bne	0x3ffe0340

----------------
IN: 
0x3ffe0340:  e3530022      cmp	r3, #34	; 0x22
0x3ffe0344:  9a000010      bls	0x3ffe038c

----------------
IN: 
0x3ffe0348:  e04c0003      sub	r0, ip, r3
0x3ffe034c:  e350000f      cmp	r0, #15	; 0xf
0x3ffe0350:  904e3003      subls	r3, lr, r3
0x3ffe0354:  9a00000c      bls	0x3ffe038c

----------------
IN: 
0x3ffe0358:  e1a00083      lsl	r0, r3, #1
0x3ffe035c:  e3700008      cmn	r0, #8	; 0x8
0x3ffe0360:  e1a000c0      asr	r0, r0, #1
0x3ffe0364:  82603032      rsbhi	r3, r0, #50	; 0x32
0x3ffe0368:  8a000007      bhi	0x3ffe038c

----------------
IN: 
0x3ffe036c:  e0440003      sub	r0, r4, r3
0x3ffe0370:  e350000b      cmp	r0, #11	; 0xb
0x3ffe0374:  90473003      subls	r3, r7, r3
0x3ffe0378:  9a000003      bls	0x3ffe038c

----------------
IN: 
0x3ffe037c:  e0450003      sub	r0, r5, r3
0x3ffe0380:  e350000a      cmp	r0, #10	; 0xa
0x3ffe0384:  8a000001      bhi	0x3ffe0390

----------------
IN: 
0x3ffe0388:  e0463003      sub	r3, r6, r3
0x3ffe038c:  e7812103      str	r2, [r1, r3, lsl #2]
0x3ffe0390:  e5b23008      ldr	r3, [r2, #8]!
0x3ffe0394:  e3530000      cmp	r3, #0	; 0x0
0x3ffe0398:  1affffe8      bne	0x3ffe0340

----------------
IN: 
0x3ffe039c:  e59a3000      ldr	r3, [sl]
0x3ffe03a0:  e3530000      cmp	r3, #0	; 0x0
0x3ffe03a4:  0a00002f      beq	0x3ffe0468

----------------
IN: 
0x3ffe0468:  e59a3070      ldr	r3, [sl, #112]
0x3ffe046c:  e3530000      cmp	r3, #0	; 0x0
0x3ffe0470:  0a000003      beq	0x3ffe0484

----------------
IN: 
0x3ffe0474:  e5933004      ldr	r3, [r3, #4]
0x3ffe0478:  e3530007      cmp	r3, #7	; 0x7
0x3ffe047c:  13530011      cmpne	r3, #17	; 0x11
0x3ffe0480:  1a000b7d      bne	0x3ffe327c

----------------
IN: 
0x3ffe0484:  e59a303c      ldr	r3, [sl, #60]
0x3ffe0488:  e3530000      cmp	r3, #0	; 0x0
0x3ffe048c:  0a000003      beq	0x3ffe04a0

----------------
IN: 
0x3ffe04a0:  e59a3064      ldr	r3, [sl, #100]
0x3ffe04a4:  e3530000      cmp	r3, #0	; 0x0
0x3ffe04a8:  0a000003      beq	0x3ffe04bc

----------------
IN: 
0x3ffe04ac:  e59a306c      ldr	r3, [sl, #108]
0x3ffe04b0:  e5933004      ldr	r3, [r3, #4]
0x3ffe04b4:  e3530008      cmp	r3, #8	; 0x8
0x3ffe04b8:  1a000b5c      bne	0x3ffe3230

----------------
IN: 
0x3ffe04bc:  e59a3098      ldr	r3, [sl, #152]
0x3ffe04c0:  e3530000      cmp	r3, #0	; 0x0
0x3ffe04c4:  0a000007      beq	0x3ffe04e8

----------------
IN: 
0x3ffe04e8:  e59a30bc      ldr	r3, [sl, #188]
0x3ffe04ec:  e3530000      cmp	r3, #0	; 0x0
0x3ffe04f0:  0a00000c      beq	0x3ffe0528

----------------
IN: 
0x3ffe0528:  e59a3094      ldr	r3, [sl, #148]
0x3ffe052c:  e3530000      cmp	r3, #0	; 0x0
0x3ffe0530:  13a03000      movne	r3, #0	; 0x0
0x3ffe0534:  158a305c      strne	r3, [sl, #92]
0x3ffe0538:  e59a3058      ldr	r3, [sl, #88]
0x3ffe053c:  e3530000      cmp	r3, #0	; 0x0
0x3ffe0540:  0a00000c      beq	0x3ffe0578

----------------
IN: 
0x3ffe0578:  e1a0000a      mov	r0, sl
0x3ffe057c:  ebffd648      bl	0x3ffd5ea4

----------------
IN: 
0x3ffe0580:  e51b302c      ldr	r3, [fp, #-44]
0x3ffe0584:  e3530002      cmp	r3, #2	; 0x2
0x3ffe0588:  0a00067b      beq	0x3ffe1f7c

----------------
IN: 
0x3ffe058c:  e51f5474      ldr	r5, [pc, #-1140]	; 0x3ffe0120
0x3ffe0590:  e08f5005      add	r5, pc, r5
0x3ffe0594:  e5953190      ldr	r3, [r5, #400]
0x3ffe0598:  e3530000      cmp	r3, #0	; 0x0
0x3ffe059c:  0a0003e9      beq	0x3ffe1548

----------------
IN: 
0x3ffe1548:  e59f3cd0      ldr	r3, [pc, #3280]	; 0x3ffe2220
0x3ffe154c:  e08f3003      add	r3, pc, r3
0x3ffe1550:  e5934194      ldr	r4, [r3, #404]
0x3ffe1554:  e3540000      cmp	r4, #0	; 0x0
0x3ffe1558:  0a00015d      beq	0x3ffe1ad4

----------------
IN: 
0x3ffe1ad4:  e5834198      str	r4, [r3, #408]
0x3ffe1ad8:  e59f37c4      ldr	r3, [pc, #1988]	; 0x3ffe22a4
0x3ffe1adc:  e08f3003      add	r3, pc, r3
0x3ffe1ae0:  e2833e5f      add	r3, r3, #1520	; 0x5f0
0x3ffe1ae4:  e283300c      add	r3, r3, #12	; 0xc
0x3ffe1ae8:  e50b31d8      str	r3, [fp, #-472]
0x3ffe1aec:  e3a02000      mov	r2, #0	; 0x0
0x3ffe1af0:  e59f37b0      ldr	r3, [pc, #1968]	; 0x3ffe22a8
0x3ffe1af4:  e08f3003      add	r3, pc, r3
0x3ffe1af8:  e583219c      str	r2, [r3, #412]
0x3ffe1afc:  e3a03000      mov	r3, #0	; 0x0
0x3ffe1b00:  eafffbe6      b	0x3ffe0aa0

----------------
IN: 
0x3ffe0aa0:  e51f4934      ldr	r4, [pc, #-2356]	; 0x3ffe0174
0x3ffe0aa4:  e08f4004      add	r4, pc, r4
0x3ffe0aa8:  e58431a0      str	r3, [r4, #416]
0x3ffe0aac:  ebfff2a7      bl	0x3ffdd550

----------------
IN: 
0x3ffdd550:  e59f31d8      ldr	r3, [pc, #472]	; 0x3ffdd730
0x3ffdd554:  e92d4ff0      push	{r4, r5, r6, r7, r8, r9, sl, fp, lr}
0x3ffdd558:  e08f3003      add	r3, pc, r3
0x3ffdd55c:  e593a194      ldr	sl, [r3, #404]
0x3ffdd560:  e24ddf73      sub	sp, sp, #460	; 0x1cc
0x3ffdd564:  e35a0000      cmp	sl, #0	; 0x0
0x3ffdd568:  0a00002d      beq	0x3ffdd624

----------------
IN: 
0x3ffdd624:  e28d4040      add	r4, sp, #64	; 0x40
0x3ffdd628:  e1a00004      mov	r0, r4
0x3ffdd62c:  eb001ebb      bl	0x3ffe5120

----------------
IN: 
0x3ffe5120:  e52d7004      push	{r7}		; (str r7, [sp, #-4]!)
0x3ffe5124:  e3a0707a      mov	r7, #122	; 0x7a
0x3ffe5128:  ef000000      svc	0x00000000

----------------
IN: 
0x3ffe512c:  e49d7004      pop	{r7}		; (ldr r7, [sp], #4)
0x3ffe5130:  e3700a01      cmn	r0, #4096	; 0x1000
0x3ffe5134:  312fff1e      bxcc	lr

----------------
IN: 
0x3ffdd630:  e3500000      cmp	r0, #0	; 0x0
0x3ffdd634:  02841082      addeq	r1, r4, #130	; 0x82
0x3ffdd638:  1a000023      bne	0x3ffdd6cc

----------------
IN: 
0x3ffdd63c:  e3a04000      mov	r4, #0	; 0x0
0x3ffdd640:  e1a00004      mov	r0, r4
0x3ffdd644:  e5d13000      ldrb	r3, [r1]
0x3ffdd648:  e2433030      sub	r3, r3, #48	; 0x30
0x3ffdd64c:  e20320ff      and	r2, r3, #255	; 0xff
0x3ffdd650:  e3520009      cmp	r2, #9	; 0x9
0x3ffdd654:  8a000017      bhi	0x3ffdd6b8

----------------
IN: 
0x3ffdd658:  e5d1c001      ldrb	ip, [r1, #1]
0x3ffdd65c:  e2811001      add	r1, r1, #1	; 0x1
0x3ffdd660:  e24c2030      sub	r2, ip, #48	; 0x30
0x3ffdd664:  e202e0ff      and	lr, r2, #255	; 0xff
0x3ffdd668:  e35e0009      cmp	lr, #9	; 0x9
0x3ffdd66c:  8a000006      bhi	0x3ffdd68c

----------------
IN: 
0x3ffdd68c:  e35c002e      cmp	ip, #46	; 0x2e
0x3ffdd690:  e2844001      add	r4, r4, #1	; 0x1
0x3ffdd694:  e1830400      orr	r0, r3, r0, lsl #8
0x3ffdd698:  e2811001      add	r1, r1, #1	; 0x1
0x3ffdd69c:  1a000003      bne	0x3ffdd6b0

----------------
IN: 
0x3ffdd6a0:  e3540003      cmp	r4, #3	; 0x3
0x3ffdd6a4:  1affffe6      bne	0x3ffdd644

----------------
IN: 
0x3ffdd644:  e5d13000      ldrb	r3, [r1]
0x3ffdd648:  e2433030      sub	r3, r3, #48	; 0x30
0x3ffdd64c:  e20320ff      and	r2, r3, #255	; 0xff
0x3ffdd650:  e3520009      cmp	r2, #9	; 0x9
0x3ffdd654:  8a000017      bhi	0x3ffdd6b8

----------------
IN: 
0x3ffdd6b0:  e3540003      cmp	r4, #3	; 0x3
0x3ffdd6b4:  0affffd8      beq	0x3ffdd61c

----------------
IN: 
0x3ffdd61c:  e28ddf73      add	sp, sp, #460	; 0x1cc
0x3ffdd620:  e8bd8ff0      pop	{r4, r5, r6, r7, r8, r9, sl, fp, pc}

----------------
IN: 
0x3ffe0ab0:  e3500000      cmp	r0, #0	; 0x0
0x3ffe0ab4:  ba00052d      blt	0x3ffe1f70

----------------
IN: 
0x3ffe0ab8:  e5943004      ldr	r3, [r4, #4]
0x3ffe0abc:  e3530000      cmp	r3, #0	; 0x0
0x3ffe0ac0:  1a000544      bne	0x3ffe1fd8

----------------
IN: 
0x3ffe0ac4:  e51f3954      ldr	r3, [pc, #-2388]	; 0x3ffe0178
0x3ffe0ac8:  e08f3003      add	r3, pc, r3
0x3ffe0acc:  e5830004      str	r0, [r3, #4]
0x3ffe0ad0:  e51f395c      ldr	r3, [pc, #-2396]	; 0x3ffe017c
0x3ffe0ad4:  e1500003      cmp	r0, r3
0x3ffe0ad8:  ba0009e4      blt	0x3ffe3270

----------------
IN: 
0x3ffe0adc:  e51f4964      ldr	r4, [pc, #-2404]	; 0x3ffe0180
0x3ffe0ae0:  e51b3030      ldr	r3, [fp, #-48]
0x3ffe0ae4:  e08f4004      add	r4, pc, r4
0x3ffe0ae8:  e51b2034      ldr	r2, [fp, #-52]
0x3ffe0aec:  e51b1040      ldr	r1, [fp, #-64]
0x3ffe0af0:  e51b0044      ldr	r0, [fp, #-68]
0x3ffe0af4:  ebffa88e      bl	0x3ffcad34

----------------
IN: 
0x3ffcad34:  e92d4ff0      push	{r4, r5, r6, r7, r8, r9, sl, fp, lr}
0x3ffcad38:  e1a06002      mov	r6, r2
0x3ffcad3c:  e1a05003      mov	r5, r3
0x3ffcad40:  e1a0e000      mov	lr, r0
0x3ffcad44:  e1a0c001      mov	ip, r1
0x3ffcad48:  e59f73ec      ldr	r7, [pc, #1004]	; 0x3ffcb13c
0x3ffcad4c:  e28db020      add	fp, sp, #32	; 0x20
0x3ffcad50:  e08f7007      add	r7, pc, r7
0x3ffcad54:  e24dd024      sub	sp, sp, #36	; 0x24
0x3ffcad58:  e1a03007      mov	r3, r7
0x3ffcad5c:  e1a01005      mov	r1, r5
0x3ffcad60:  e2872004      add	r2, r7, #4	; 0x4
0x3ffcad64:  e1a00006      mov	r0, r6
0x3ffcad68:  e50be034      str	lr, [fp, #-52]
0x3ffcad6c:  e50bc038      str	ip, [fp, #-56]
0x3ffcad70:  eb004385      bl	0x3ffdbb8c

----------------
IN: 
0x3ffdbb8c:  e92d4ff0      push	{r4, r5, r6, r7, r8, r9, sl, fp, lr}
0x3ffdbb90:  e1a0c002      mov	ip, r2
0x3ffdbb94:  e1a04000      mov	r4, r0
0x3ffdbb98:  e1a0e001      mov	lr, r1
0x3ffdbb9c:  e28db020      add	fp, sp, #32	; 0x20
0x3ffdbba0:  e24b5034      sub	r5, fp, #52	; 0x34
0x3ffdbba4:  e24dd04c      sub	sp, sp, #76	; 0x4c
0x3ffdbba8:  e3a02000      mov	r2, #0	; 0x0
0x3ffdbbac:  e1a01005      mov	r1, r5
0x3ffdbbb0:  e3a0000e      mov	r0, #14	; 0xe
0x3ffdbbb4:  e50b305c      str	r3, [fp, #-92]
0x3ffdbbb8:  e50b404c      str	r4, [fp, #-76]
0x3ffdbbbc:  e50be048      str	lr, [fp, #-72]
0x3ffdbbc0:  e50bc058      str	ip, [fp, #-88]
0x3ffdbbc4:  ebfff7aa      bl	0x3ffd9a74

----------------
IN: 
0x3ffd9aa0:  ea000016      b	0x3ffd9b00

----------------
IN: 
0x3ffd9b00:  e59fc05c      ldr	ip, [pc, #92]	; 0x3ffd9b64
0x3ffd9b04:  e043e000      sub	lr, r3, r0
0x3ffd9b08:  e08fc00c      add	ip, pc, ip
0x3ffd9b0c:  e08cc20e      add	ip, ip, lr, lsl #4
0x3ffd9b10:  e28cc048      add	ip, ip, #72	; 0x48
0x3ffd9b14:  e89c1800      ldm	ip, {fp, ip}
0x3ffd9b18:  e8811800      stm	r1, {fp, ip}
0x3ffd9b1c:  eaffffe8      b	0x3ffd9ac4

----------------
IN: 
0x3ffdbbc8:  e59f38ac      ldr	r3, [pc, #2220]	; 0x3ffdc47c
0x3ffdbbcc:  e51b0034      ldr	r0, [fp, #-52]
0x3ffdbbd0:  e08f3003      add	r3, pc, r3
0x3ffdbbd4:  e5932048      ldr	r2, [r3, #72]
0x3ffdbbd8:  e51b1030      ldr	r1, [fp, #-48]
0x3ffdbbdc:  e0002002      and	r2, r0, r2
0x3ffdbbe0:  e50b2040      str	r2, [fp, #-64]
0x3ffdbbe4:  e593204c      ldr	r2, [r3, #76]
0x3ffdbbe8:  e5933008      ldr	r3, [r3, #8]
0x3ffdbbec:  e0012002      and	r2, r1, r2
0x3ffdbbf0:  e2533000      subs	r3, r3, #0	; 0x0
0x3ffdbbf4:  13a03001      movne	r3, #1	; 0x1
0x3ffdbbf8:  e3a08000      mov	r8, #0	; 0x0
0x3ffdbbfc:  e50b303c      str	r3, [fp, #-60]
0x3ffdbc00:  e50b2050      str	r2, [fp, #-80]
0x3ffdbc04:  eb000231      bl	0x3ffdc4d0

----------------
IN: 
0x3ffdc4d0:  e3a00000      mov	r0, #0	; 0x0
0x3ffdc4d4:  e12fff1e      bx	lr

----------------
IN: 
0x3ffdbc08:  e3e03000      mvn	r3, #0	; 0x0
0x3ffdbc0c:  e50b4034      str	r4, [fp, #-52]
0x3ffdbc10:  e1a0a008      mov	sl, r8
0x3ffdbc14:  e1a04008      mov	r4, r8
0x3ffdbc18:  e50b0044      str	r0, [fp, #-68]
0x3ffdbc1c:  e50b3028      str	r3, [fp, #-40]
0x3ffdbc20:  e50b8030      str	r8, [fp, #-48]
0x3ffdbc24:  e50b802c      str	r8, [fp, #-44]
0x3ffdbc28:  ea000004      b	0x3ffdbc40

----------------
IN: 
0x3ffdbc40:  e1a00005      mov	r0, r5
0x3ffdbc44:  eb000264      bl	0x3ffdc5dc

----------------
IN: 
0x3ffdc5dc:  e92d4010      push	{r4, lr}
0x3ffdc5e0:  e1a04000      mov	r4, r0
0x3ffdc5e4:  e1a00004      mov	r0, r4
0x3ffdc5e8:  ebffffba      bl	0x3ffdc4d8

----------------
IN: 
0x3ffdc4d8:  e5903000      ldr	r3, [r0]
0x3ffdc4dc:  e3530000      cmp	r3, #0	; 0x0
0x3ffdc4e0:  0a00001f      beq	0x3ffdc564

----------------
IN: 
0x3ffdc564:  e3a00000      mov	r0, #0	; 0x0
0x3ffdc568:  e12fff1e      bx	lr

----------------
IN: 
0x3ffdc5ec:  e3500000      cmp	r0, #0	; 0x0
0x3ffdc5f0:  08bd8010      popeq	{r4, pc}

----------------
IN: 
0x3ffdbc48:  e3500000      cmp	r0, #0	; 0x0
0x3ffdbc4c:  1afffff6      bne	0x3ffdbc2c

----------------
IN: 
0x3ffdbc50:  e51b3044      ldr	r3, [fp, #-68]
0x3ffdbc54:  e50b0030      str	r0, [fp, #-48]
0x3ffdbc58:  e50b3028      str	r3, [fp, #-40]
0x3ffdbc5c:  e51b3048      ldr	r3, [fp, #-72]
0x3ffdbc60:  e50b302c      str	r3, [fp, #-44]
0x3ffdbc64:  e59f3814      ldr	r3, [pc, #2068]	; 0x3ffdc480
0x3ffdbc68:  e08f3003      add	r3, pc, r3
0x3ffdbc6c:  e50b3034      str	r3, [fp, #-52]
0x3ffdbc70:  ea000004      b	0x3ffdbc88

----------------
IN: 
0x3ffdbc88:  e1a00005      mov	r0, r5
0x3ffdbc8c:  eb000252      bl	0x3ffdc5dc

----------------
IN: 
0x3ffdc4e4:  e92d4070      push	{r4, r5, r6, lr}
0x3ffdc4e8:  e5902004      ldr	r2, [r0, #4]
0x3ffdc4ec:  e1a05000      mov	r5, r0
0x3ffdc4f0:  e0834002      add	r4, r3, r2
0x3ffdc4f4:  e5804000      str	r4, [r0]
0x3ffdc4f8:  e7d33002      ldrb	r3, [r3, r2]
0x3ffdc4fc:  e353003a      cmp	r3, #58	; 0x3a
0x3ffdc500:  1a000004      bne	0x3ffdc518

----------------
IN: 
0x3ffdc518:  e3530000      cmp	r3, #0	; 0x0
0x3ffdc51c:  0a000008      beq	0x3ffdc544

----------------
IN: 
0x3ffdc544:  e3a00000      mov	r0, #0	; 0x0
0x3ffdc548:  e8bd8070      pop	{r4, r5, r6, pc}

----------------
IN: 
0x3ffdbc90:  e3500000      cmp	r0, #0	; 0x0
0x3ffdbc94:  1afffff6      bne	0x3ffdbc74

----------------
IN: 
0x3ffdbc98:  e59f37e4      ldr	r3, [pc, #2020]	; 0x3ffdc484
0x3ffdbc9c:  e1a06000      mov	r6, r0
0x3ffdbca0:  e08f3003      add	r3, pc, r3
0x3ffdbca4:  e08a008a      add	r0, sl, sl, lsl #1
0x3ffdbca8:  e5933000      ldr	r3, [r3]
0x3ffdbcac:  e1a00100      lsl	r0, r0, #2
0x3ffdbcb0:  e50b4054      str	r4, [fp, #-84]
0x3ffdbcb4:  e12fff33      blx	r3

----------------
IN: 
0x3ffcfadc:  e5913004      ldr	r3, [r1, #4]
0x3ffcfae0:  e2833007      add	r3, r3, #7	; 0x7
0x3ffcfae4:  e3c30007      bic	r0, r3, #7	; 0x7
0x3ffcfae8:  e59f3100      ldr	r3, [pc, #256]	; 0x3ffcfbf0
0x3ffcfaec:  e0801004      add	r1, r0, r4
0x3ffcfaf0:  e08f3003      add	r3, pc, r3
0x3ffcfaf4:  e1510002      cmp	r1, r2
0x3ffcfaf8:  e5830004      str	r0, [r3, #4]
0x3ffcfafc:  2a000002      bcs	0x3ffcfb0c

----------------
IN: 
0x3ffdbcb8:  e59f37c8      ldr	r3, [pc, #1992]	; 0x3ffdc488
0x3ffdbcbc:  e3500000      cmp	r0, #0	; 0x0
0x3ffdbcc0:  e08f3003      add	r3, pc, r3
0x3ffdbcc4:  e5830000      str	r0, [r3]
0x3ffdbcc8:  0a0001cf      beq	0x3ffdc40c

----------------
IN: 
0x3ffdbccc:  e59f47b8      ldr	r4, [pc, #1976]	; 0x3ffdc48c
0x3ffdbcd0:  e583a004      str	sl, [r3, #4]
0x3ffdbcd4:  e51b304c      ldr	r3, [fp, #-76]
0x3ffdbcd8:  e1a07006      mov	r7, r6
0x3ffdbcdc:  e50b3034      str	r3, [fp, #-52]
0x3ffdbce0:  e50b6030      str	r6, [fp, #-48]
0x3ffdbce4:  e08f4004      add	r4, pc, r4
0x3ffdbce8:  ea000008      b	0x3ffdbd10

----------------
IN: 
0x3ffdbd10:  e1a00005      mov	r0, r5
0x3ffdbd14:  eb0001ef      bl	0x3ffdc4d8

----------------
IN: 
0x3ffdbd18:  e3500000      cmp	r0, #0	; 0x0
0x3ffdbd1c:  1afffff2      bne	0x3ffdbcec

----------------
IN: 
0x3ffdbd20:  e51b3044      ldr	r3, [fp, #-68]
0x3ffdbd24:  e59f4764      ldr	r4, [pc, #1892]	; 0x3ffdc490
0x3ffdbd28:  e50b3028      str	r3, [fp, #-40]
0x3ffdbd2c:  e51b3048      ldr	r3, [fp, #-72]
0x3ffdbd30:  e0876087      add	r6, r7, r7, lsl #1
0x3ffdbd34:  e50b302c      str	r3, [fp, #-44]
0x3ffdbd38:  e59f3754      ldr	r3, [pc, #1876]	; 0x3ffdc494
0x3ffdbd3c:  e50b0030      str	r0, [fp, #-48]
0x3ffdbd40:  e08f3003      add	r3, pc, r3
0x3ffdbd44:  e50b3034      str	r3, [fp, #-52]
0x3ffdbd48:  e1a06106      lsl	r6, r6, #2
0x3ffdbd4c:  e08f4004      add	r4, pc, r4
0x3ffdbd50:  ea000008      b	0x3ffdbd78

----------------
IN: 
0x3ffdbd78:  e1a00005      mov	r0, r5
0x3ffdbd7c:  eb000216      bl	0x3ffdc5dc

----------------
IN: 
0x3ffdbd80:  e3500000      cmp	r0, #0	; 0x0
0x3ffdbd84:  1afffff2      bne	0x3ffdbd54

----------------
IN: 
0x3ffdbd88:  e15a0007      cmp	sl, r7
0x3ffdbd8c:  1a0001aa      bne	0x3ffdc43c

----------------
IN: 
0x3ffdbd90:  e59f3700      ldr	r3, [pc, #1792]	; 0x3ffdc498
0x3ffdbd94:  e08f3003      add	r3, pc, r3
0x3ffdbd98:  e5932004      ldr	r2, [r3, #4]
0x3ffdbd9c:  e3520001      cmp	r2, #1	; 0x1
0x3ffdbda0:  e50b2038      str	r2, [fp, #-56]
0x3ffdbda4:  9a000029      bls	0x3ffdbe50

----------------
IN: 
0x3ffdbe50:  e51b6040      ldr	r6, [fp, #-64]
0x3ffdbe54:  e51b4050      ldr	r4, [fp, #-80]
0x3ffdbe58:  e51b2054      ldr	r2, [fp, #-84]
0x3ffdbe5c:  e1963004      orrs	r3, r6, r4
0x3ffdbe60:  e288300e      add	r3, r8, #14	; 0xe
0x3ffdbe64:  e50b3060      str	r3, [fp, #-96]
0x3ffdbe68:  e06a318a      rsb	r3, sl, sl, lsl #3
0x3ffdbe6c:  e0823083      add	r3, r2, r3, lsl #1
0x3ffdbe70:  e50b3054      str	r3, [fp, #-84]
0x3ffdbe74:  0a00015a      beq	0x3ffdc3e4

----------------
IN: 
0x3ffdbe78:  e3a02000      mov	r2, #0	; 0x0
0x3ffdbe7c:  e3a0c020      mov	ip, #32	; 0x20
0x3ffdbe80:  e3e0001f      mvn	r0, #31	; 0x1f
0x3ffdbe84:  e3a01001      mov	r1, #1	; 0x1
0x3ffdbe88:  e51b703c      ldr	r7, [fp, #-60]
0x3ffdbe8c:  e1a03236      lsr	r3, r6, r2
0x3ffdbe90:  e1833c14      orr	r3, r3, r4, lsl ip
0x3ffdbe94:  e2822001      add	r2, r2, #1	; 0x1
0x3ffdbe98:  e1833034      orr	r3, r3, r4, lsr r0
0x3ffdbe9c:  e2420020      sub	r0, r2, #32	; 0x20
0x3ffdbea0:  e3130001      tst	r3, #1	; 0x1
0x3ffdbea4:  e262c020      rsb	ip, r2, #32	; 0x20
0x3ffdbea8:  e1a03011      lsl	r3, r1, r0
0x3ffdbeac:  e1a0e211      lsl	lr, r1, r2
0x3ffdbeb0:  12877001      addne	r7, r7, #1	; 0x1
0x3ffdbeb4:  e1833c31      orr	r3, r3, r1, lsr ip
0x3ffdbeb8:  e27ee000      rsbs	lr, lr, #0	; 0x0
0x3ffdbebc:  e2e33000      rsc	r3, r3, #0	; 0x0
0x3ffdbec0:  e00ee006      and	lr, lr, r6
0x3ffdbec4:  e0033004      and	r3, r3, r4
0x3ffdbec8:  e19ee003      orrs	lr, lr, r3
0x3ffdbecc:  1affffee      bne	0x3ffdbe8c

----------------
IN: 
0x3ffdbe8c:  e1a03236      lsr	r3, r6, r2
0x3ffdbe90:  e1833c14      orr	r3, r3, r4, lsl ip
0x3ffdbe94:  e2822001      add	r2, r2, #1	; 0x1
0x3ffdbe98:  e1833034      orr	r3, r3, r4, lsr r0
0x3ffdbe9c:  e2420020      sub	r0, r2, #32	; 0x20
0x3ffdbea0:  e3130001      tst	r3, #1	; 0x1
0x3ffdbea4:  e262c020      rsb	ip, r2, #32	; 0x20
0x3ffdbea8:  e1a03011      lsl	r3, r1, r0
0x3ffdbeac:  e1a0e211      lsl	lr, r1, r2
0x3ffdbeb0:  12877001      addne	r7, r7, #1	; 0x1
0x3ffdbeb4:  e1833c31      orr	r3, r3, r1, lsr ip
0x3ffdbeb8:  e27ee000      rsbs	lr, lr, #0	; 0x0
0x3ffdbebc:  e2e33000      rsc	r3, r3, #0	; 0x0
0x3ffdbec0:  e00ee006      and	lr, lr, r6
0x3ffdbec4:  e0033004      and	r3, r3, r4
0x3ffdbec8:  e19ee003      orrs	lr, lr, r3
0x3ffdbecc:  1affffee      bne	0x3ffdbe8c

----------------
IN: 
0x3ffdbed0:  e1a0300d      mov	r3, sp
0x3ffdbed4:  e3a09000      mov	r9, #0	; 0x0
0x3ffdbed8:  e2876001      add	r6, r7, #1	; 0x1
0x3ffdbedc:  e0433186      sub	r3, r3, r6, lsl #3
0x3ffdbee0:  e1a0d003      mov	sp, r3
0x3ffdbee4:  e50b703c      str	r7, [fp, #-60]
0x3ffdbee8:  e50ba064      str	sl, [fp, #-100]
0x3ffdbeec:  e1a07009      mov	r7, r9
0x3ffdbef0:  e1a0a006      mov	sl, r6
0x3ffdbef4:  e59f85a0      ldr	r8, [pc, #1440]	; 0x3ffdc49c
0x3ffdbef8:  e1a02186      lsl	r2, r6, #3
0x3ffdbefc:  e08f8008      add	r8, pc, r8
0x3ffdbf00:  e2888054      add	r8, r8, #84	; 0x54
0x3ffdbf04:  e50b206c      str	r2, [fp, #-108]
0x3ffdbf08:  e50b5068      str	r5, [fp, #-104]
0x3ffdbf0c:  e51b2040      ldr	r2, [fp, #-64]
0x3ffdbf10:  e1a05008      mov	r5, r8
0x3ffdbf14:  e51b8050      ldr	r8, [fp, #-80]
0x3ffdbf18:  e50bd038      str	sp, [fp, #-56]
0x3ffdbf1c:  e2676020      rsb	r6, r7, #32	; 0x20
0x3ffdbf20:  e1a00732      lsr	r0, r2, r7
0x3ffdbf24:  e1800618      orr	r0, r0, r8, lsl r6
0x3ffdbf28:  e2474020      sub	r4, r7, #32	; 0x20
0x3ffdbf2c:  e1800438      orr	r0, r0, r8, lsr r4
0x3ffdbf30:  e3100001      tst	r0, #1	; 0x1
0x3ffdbf34:  0a000017      beq	0x3ffdbf98

----------------
IN: 
0x3ffdbf98:  e2877001      add	r7, r7, #1	; 0x1
0x3ffdbf9c:  e285500a      add	r5, r5, #10	; 0xa
0x3ffdbfa0:  eaffffdd      b	0x3ffdbf1c

----------------
IN: 
0x3ffdbf1c:  e2676020      rsb	r6, r7, #32	; 0x20
0x3ffdbf20:  e1a00732      lsr	r0, r2, r7
0x3ffdbf24:  e1800618      orr	r0, r0, r8, lsl r6
0x3ffdbf28:  e2474020      sub	r4, r7, #32	; 0x20
0x3ffdbf2c:  e1800438      orr	r0, r0, r8, lsr r4
0x3ffdbf30:  e3100001      tst	r0, #1	; 0x1
0x3ffdbf34:  0a000017      beq	0x3ffdbf98

----------------
IN: 
0x3ffdbf38:  e51b3038      ldr	r3, [fp, #-56]
0x3ffdbf3c:  e1a00005      mov	r0, r5
0x3ffdbf40:  e7835189      str	r5, [r3, r9, lsl #3]
0x3ffdbf44:  e50b2040      str	r2, [fp, #-64]
0x3ffdbf48:  eb0025e4      bl	0x3ffe56e0

----------------
IN: 
0x3ffdbf4c:  e3a03001      mov	r3, #1	; 0x1
0x3ffdbf50:  e51b2040      ldr	r2, [fp, #-64]
0x3ffdbf54:  e1a04413      lsl	r4, r3, r4
0x3ffdbf58:  e1a0c713      lsl	ip, r3, r7
0x3ffdbf5c:  e1844633      orr	r4, r4, r3, lsr r6
0x3ffdbf60:  e1540008      cmp	r4, r8
0x3ffdbf64:  015c0002      cmpeq	ip, r2
0x3ffdbf68:  e02cc002      eor	ip, ip, r2
0x3ffdbf6c:  e51b2038      ldr	r2, [fp, #-56]
0x3ffdbf70:  e285500a      add	r5, r5, #10	; 0xa
0x3ffdbf74:  e082e189      add	lr, r2, r9, lsl #3
0x3ffdbf78:  e0244008      eor	r4, r4, r8
0x3ffdbf7c:  e0877003      add	r7, r7, r3
0x3ffdbf80:  e58e0004      str	r0, [lr, #4]
0x3ffdbf84:  e0899003      add	r9, r9, r3
0x3ffdbf88:  0a000005      beq	0x3ffdbfa4

----------------
IN: 
0x3ffdbf8c:  e1a0200c      mov	r2, ip
0x3ffdbf90:  e1a08004      mov	r8, r4
0x3ffdbf94:  eaffffe0      b	0x3ffdbf1c

----------------
IN: 
0x3ffdbfa4:  e1a0600a      mov	r6, sl
0x3ffdbfa8:  e51b5068      ldr	r5, [fp, #-104]
0x3ffdbfac:  e51ba064      ldr	sl, [fp, #-100]
0x3ffdbfb0:  e0823189      add	r3, r2, r9, lsl #3
0x3ffdbfb4:  e59f24e4      ldr	r2, [pc, #1252]	; 0x3ffdc4a0
0x3ffdbfb8:  e08f2002      add	r2, pc, r2
0x3ffdbfbc:  e5921008      ldr	r1, [r2, #8]
0x3ffdbfc0:  e3510000      cmp	r1, #0	; 0x0
0x3ffdbfc4:  0a000005      beq	0x3ffdbfe0

----------------
IN: 
0x3ffdbfc8:  e592200c      ldr	r2, [r2, #12]
0x3ffdbfcc:  e5831000      str	r1, [r3]
0x3ffdbfd0:  e5832004      str	r2, [r3, #4]
0x3ffdbfd4:  e51b3038      ldr	r3, [fp, #-56]
0x3ffdbfd8:  e2899001      add	r9, r9, #1	; 0x1
0x3ffdbfdc:  e0833189      add	r3, r3, r9, lsl #3
0x3ffdbfe0:  e51b203c      ldr	r2, [fp, #-60]
0x3ffdbfe4:  e1590002      cmp	r9, r2
0x3ffdbfe8:  e3a02003      mov	r2, #3	; 0x3
0x3ffdbfec:  e5832004      str	r2, [r3, #4]
0x3ffdbff0:  e59f24ac      ldr	r2, [pc, #1196]	; 0x3ffdc4a4
0x3ffdbff4:  e08f2002      add	r2, pc, r2
0x3ffdbff8:  e5832000      str	r2, [r3]
0x3ffdbffc:  1a000116      bne	0x3ffdc45c

----------------
IN: 
0x3ffdc000:  e51b3038      ldr	r3, [fp, #-56]
0x3ffdc004:  e3560001      cmp	r6, #1	; 0x1
0x3ffdc008:  e5938004      ldr	r8, [r3, #4]
0x3ffdc00c:  e51b3054      ldr	r3, [fp, #-84]
0x3ffdc010:  02830001      addeq	r0, r3, #1	; 0x1
0x3ffdc014:  00800008      addeq	r0, r0, r8
0x3ffdc018:  0a000008      beq	0x3ffdc040

----------------
IN: 
0x3ffdc01c:  e2830002      add	r0, r3, #2	; 0x2
0x3ffdc020:  e51b2038      ldr	r2, [fp, #-56]
0x3ffdc024:  e51b303c      ldr	r3, [fp, #-60]
0x3ffdc028:  e0800008      add	r0, r0, r8
0x3ffdc02c:  e0823183      add	r3, r2, r3, lsl #3
0x3ffdc030:  e5933004      ldr	r3, [r3, #4]
0x3ffdc034:  e3560002      cmp	r6, #2	; 0x2
0x3ffdc038:  e0800003      add	r0, r0, r3
0x3ffdc03c:  8a0000af      bhi	0x3ffdc300

----------------
IN: 
0x3ffdc300:  e1a03002      mov	r3, r2
0x3ffdc304:  e51b206c      ldr	r2, [fp, #-108]
0x3ffdc308:  e1a00080      lsl	r0, r0, #1
0x3ffdc30c:  e0831002      add	r1, r3, r2
0x3ffdc310:  e2411010      sub	r1, r1, #16	; 0x10
0x3ffdc314:  e593200c      ldr	r2, [r3, #12]
0x3ffdc318:  e2833008      add	r3, r3, #8	; 0x8
0x3ffdc31c:  e2822001      add	r2, r2, #1	; 0x1
0x3ffdc320:  e1510003      cmp	r1, r3
0x3ffdc324:  e0800002      add	r0, r0, r2
0x3ffdc328:  1afffff9      bne	0x3ffdc314

----------------
IN: 
0x3ffdc314:  e593200c      ldr	r2, [r3, #12]
0x3ffdc318:  e2833008      add	r3, r3, #8	; 0x8
0x3ffdc31c:  e2822001      add	r2, r2, #1	; 0x1
0x3ffdc320:  e1510003      cmp	r1, r3
0x3ffdc324:  e0800002      add	r0, r0, r2
0x3ffdc328:  1afffff9      bne	0x3ffdc314

----------------
IN: 
0x3ffdc32c:  e3560003      cmp	r6, #3	; 0x3
0x3ffdc330:  0a000005      beq	0x3ffdc34c

----------------
IN: 
0x3ffdc334:  e356001f      cmp	r6, #31	; 0x1f
0x3ffdc338:  8a000039      bhi	0x3ffdc424

----------------
IN: 
0x3ffdc33c:  e2803040      add	r3, r0, #64	; 0x40
0x3ffdc340:  e2662023      rsb	r2, r6, #35	; 0x23
0x3ffdc344:  e1b03233      lsrs	r3, r3, r2
0x3ffdc348:  1a000035      bne	0x3ffdc424

----------------
IN: 
0x3ffdc34c:  e51b303c      ldr	r3, [fp, #-60]
0x3ffdc350:  e2433002      sub	r3, r3, #2	; 0x2
0x3ffdc354:  e1a00310      lsl	r0, r0, r3
0x3ffdc358:  eaffff38      b	0x3ffdc040

----------------
IN: 
0x3ffdc040:  e3a07001      mov	r7, #1	; 0x1
0x3ffdc044:  e59f345c      ldr	r3, [pc, #1116]	; 0x3ffdc4a8
0x3ffdc048:  e51b4058      ldr	r4, [fp, #-88]
0x3ffdc04c:  e79f2003      ldr	r2, [pc, r3]
0x3ffdc050:  e1a03617      lsl	r3, r7, r6
0x3ffdc054:  e083a00a      add	sl, r3, sl
0x3ffdc058:  e584a000      str	sl, [r4]
0x3ffdc05c:  e080018a      add	r0, r0, sl, lsl #3
0x3ffdc060:  e50b3050      str	r3, [fp, #-80]
0x3ffdc064:  e12fff32      blx	r2

----------------
IN: 
0x3ffdc068:  e2502000      subs	r2, r0, #0	; 0x0
0x3ffdc06c:  e50b2054      str	r2, [fp, #-84]
0x3ffdc070:  0a0000eb      beq	0x3ffdc424

----------------
IN: 
0x3ffdc074:  e5943000      ldr	r3, [r4]
0x3ffdc078:  e1a00005      mov	r0, r5
0x3ffdc07c:  e0823183      add	r3, r2, r3, lsl #3
0x3ffdc080:  e51b104c      ldr	r1, [fp, #-76]
0x3ffdc084:  e50b3030      str	r3, [fp, #-48]
0x3ffdc088:  e50b2034      str	r2, [fp, #-52]
0x3ffdc08c:  e3a03000      mov	r3, #0	; 0x0
0x3ffdc090:  e3e02000      mvn	r2, #0	; 0x0
0x3ffdc094:  ebfffe94      bl	0x3ffdbaec

----------------
IN: 
0x3ffdbaec:  e3a0c000      mov	ip, #0	; 0x0
0x3ffdbaf0:  e92d40f0      push	{r4, r5, r6, r7, lr}
0x3ffdbaf4:  e59f608c      ldr	r6, [pc, #140]	; 0x3ffdbb88
0x3ffdbaf8:  e24dd014      sub	sp, sp, #20	; 0x14
0x3ffdbafc:  e3a0702f      mov	r7, #47	; 0x2f
0x3ffdbb00:  e1a0500d      mov	r5, sp
0x3ffdbb04:  e1a04000      mov	r4, r0
0x3ffdbb08:  e08f6006      add	r6, pc, r6
0x3ffdbb0c:  e58d1000      str	r1, [sp]
0x3ffdbb10:  e58d200c      str	r2, [sp, #12]
0x3ffdbb14:  e58d3008      str	r3, [sp, #8]
0x3ffdbb18:  e58dc004      str	ip, [sp, #4]
0x3ffdbb1c:  ea000013      b	0x3ffdbb70

----------------
IN: 
0x3ffdbb70:  e1a00005      mov	r0, r5
0x3ffdbb74:  eb000298      bl	0x3ffdc5dc

----------------
IN: 
0x3ffdbb78:  e3500000      cmp	r0, #0	; 0x0
0x3ffdbb7c:  1affffe7      bne	0x3ffdbb20

----------------
IN: 
0x3ffdbb80:  e28dd014      add	sp, sp, #20	; 0x14
0x3ffdbb84:  e8bd80f0      pop	{r4, r5, r6, r7, pc}

----------------
IN: 
0x3ffdc098:  e59f140c      ldr	r1, [pc, #1036]	; 0x3ffdc4ac
0x3ffdc09c:  e1a00005      mov	r0, r5
0x3ffdc0a0:  e51b3048      ldr	r3, [fp, #-72]
0x3ffdc0a4:  e51b2044      ldr	r2, [fp, #-68]
0x3ffdc0a8:  e08f1001      add	r1, pc, r1
0x3ffdc0ac:  ebfffe8e      bl	0x3ffdbaec

----------------
IN: 
0x3ffdc0b0:  e51b3034      ldr	r3, [fp, #-52]
0x3ffdc0b4:  e1560007      cmp	r6, r7
0x3ffdc0b8:  e51b0030      ldr	r0, [fp, #-48]
0x3ffdc0bc:  e50b304c      str	r3, [fp, #-76]
0x3ffdc0c0:  0a0000b5      beq	0x3ffdc39c

----------------
IN: 
0x3ffdc0c4:  e51b304c      ldr	r3, [fp, #-76]
0x3ffdc0c8:  e51b203c      ldr	r2, [fp, #-60]
0x3ffdc0cc:  e51b1038      ldr	r1, [fp, #-56]
0x3ffdc0d0:  e3560002      cmp	r6, #2	; 0x2
0x3ffdc0d4:  e5830000      str	r0, [r3]
0x3ffdc0d8:  e5830008      str	r0, [r3, #8]
0x3ffdc0dc:  e0814182      add	r4, r1, r2, lsl #3
0x3ffdc0e0:  e2823202      add	r3, r2, #536870912	; 0x20000000
0x3ffdc0e4:  0a00009c      beq	0x3ffdc35c

----------------
IN: 
0x3ffdc0e8:  e5942004      ldr	r2, [r4, #4]
0x3ffdc0ec:  e50b6064      str	r6, [fp, #-100]
0x3ffdc0f0:  e3a0902f      mov	r9, #47	; 0x2f
0x3ffdc0f4:  e1a06002      mov	r6, r2
0x3ffdc0f8:  e51b1038      ldr	r1, [fp, #-56]
0x3ffdc0fc:  e50b2058      str	r2, [fp, #-88]
0x3ffdc100:  e7913183      ldr	r3, [r1, r3, lsl #3]
0x3ffdc104:  e50b3044      str	r3, [fp, #-68]
0x3ffdc108:  e51b303c      ldr	r3, [fp, #-60]
0x3ffdc10c:  e243c001      sub	ip, r3, #1	; 0x1
0x3ffdc110:  e1a0a317      lsl	sl, r7, r3
0x3ffdc114:  e0813183      add	r3, r1, r3, lsl #3
0x3ffdc118:  e50bc048      str	ip, [fp, #-72]
0x3ffdc11c:  e50b3040      str	r3, [fp, #-64]
0x3ffdc120:  e1a02006      mov	r2, r6
0x3ffdc124:  e51b1044      ldr	r1, [fp, #-68]
0x3ffdc128:  eb002818      bl	0x3ffe6190

----------------
IN: 
0x3ffdc12c:  e7c09006      strb	r9, [r0, r6]
0x3ffdc130:  e0800006      add	r0, r0, r6
0x3ffdc134:  e51b5040      ldr	r5, [fp, #-64]
0x3ffdc138:  e51b4048      ldr	r4, [fp, #-72]
0x3ffdc13c:  e24aa002      sub	sl, sl, #2	; 0x2
0x3ffdc140:  e2800001      add	r0, r0, #1	; 0x1
0x3ffdc144:  ea000002      b	0x3ffdc154

----------------
IN: 
0x3ffdc154:  e01a3417      ands	r3, sl, r7, lsl r4
0x3ffdc158:  0afffffa      beq	0x3ffdc148

----------------
IN: 
0x3ffdc15c:  e9150006      ldmdb	r5, {r1, r2}
0x3ffdc160:  eb00280a      bl	0x3ffe6190

----------------
IN: 
0x3ffdc164:  e5153004      ldr	r3, [r5, #-4]
0x3ffdc168:  e2544001      subs	r4, r4, #1	; 0x1
0x3ffdc16c:  e7c09003      strb	r9, [r0, r3]
0x3ffdc170:  e0800003      add	r0, r0, r3
0x3ffdc174:  e2800001      add	r0, r0, #1	; 0x1
0x3ffdc178:  e2455008      sub	r5, r5, #8	; 0x8
0x3ffdc17c:  1afffff4      bne	0x3ffdc154

----------------
IN: 
0x3ffe619c:  e210c003      ands	ip, r0, #3	; 0x3
0x3ffe61a0:  1a000027      bne	0x3ffe6244

----------------
IN: 
0x3ffe61a4:  e211c003      ands	ip, r1, #3	; 0x3
0x3ffe61a8:  1a000031      bne	0x3ffe6274

----------------
IN: 
0x3ffe61ac:  e252201c      subs	r2, r2, #28	; 0x1c
0x3ffe61b0:  e92d01e0      push	{r5, r6, r7, r8}
0x3ffe61b4:  3a000003      bcc	0x3ffe61c8

----------------
IN: 
0x3ffe61c8:  e212c01c      ands	ip, r2, #28	; 0x1c
0x3ffe61cc:  e26cc020      rsb	ip, ip, #32	; 0x20
0x3ffe61d0:  108ff00c      addne	pc, pc, ip

----------------
IN: 
0x3ffe61f4:  e491e004      ldr	lr, [r1], #4
0x3ffe61f8:  e08ff00c      add	pc, pc, ip

----------------
IN: 
0x3ffe621c:  e480e004      str	lr, [r0], #4
0x3ffe6220:  e8bd01e0      pop	{r5, r6, r7, r8}
0x3ffe6224:  e1b02f82      lsls	r2, r2, #31
0x3ffe6228:  14d13001      ldrbne	r3, [r1], #1
0x3ffe622c:  24d14001      ldrbcs	r4, [r1], #1
0x3ffe6230:  25d1c000      ldrbcs	ip, [r1]
0x3ffe6234:  14c03001      strbne	r3, [r0], #1
0x3ffe6238:  24c04001      strbcs	r4, [r0], #1
0x3ffe623c:  25c0c000      strbcs	ip, [r0]
0x3ffe6240:  e8bd8011      pop	{r0, r4, pc}

----------------
IN: 
0x3ffdc180:  e51b3038      ldr	r3, [fp, #-56]
0x3ffdc184:  e1a02008      mov	r2, r8
0x3ffdc188:  e5931000      ldr	r1, [r3]
0x3ffdc18c:  eb0027ff      bl	0x3ffe6190

----------------
IN: 
0x3ffdc190:  e35a0000      cmp	sl, #0	; 0x0
0x3ffdc194:  e7c09008      strb	r9, [r0, r8]
0x3ffdc198:  e0800008      add	r0, r0, r8
0x3ffdc19c:  e2800001      add	r0, r0, #1	; 0x1
0x3ffdc1a0:  1affffde      bne	0x3ffdc120

----------------
IN: 
0x3ffdc120:  e1a02006      mov	r2, r6
0x3ffdc124:  e51b1044      ldr	r1, [fp, #-68]
0x3ffdc128:  eb002818      bl	0x3ffe6190

----------------
IN: 
0x3ffdc148:  e2544001      subs	r4, r4, #1	; 0x1
0x3ffdc14c:  e2455008      sub	r5, r5, #8	; 0x8
0x3ffdc150:  0a00000a      beq	0x3ffdc180

----------------
IN: 
0x3ffe6244:  e26cc004      rsb	ip, ip, #4	; 0x4
0x3ffe6248:  e35c0002      cmp	ip, #2	; 0x2
0x3ffe624c:  c4d13001      ldrbgt	r3, [r1], #1
0x3ffe6250:  a4d14001      ldrbge	r4, [r1], #1
0x3ffe6254:  e4d1e001      ldrb	lr, [r1], #1
0x3ffe6258:  c4c03001      strbgt	r3, [r0], #1
0x3ffe625c:  a4c04001      strbge	r4, [r0], #1
0x3ffe6260:  e052200c      subs	r2, r2, ip
0x3ffe6264:  e4c0e001      strb	lr, [r0], #1
0x3ffe6268:  3affffed      bcc	0x3ffe6224

----------------
IN: 
0x3ffdc1a4:  e51b6064      ldr	r6, [fp, #-100]
0x3ffdc1a8:  e51b004c      ldr	r0, [fp, #-76]
0x3ffdc1ac:  e3a02008      mov	r2, #8	; 0x8
0x3ffdc1b0:  e1a03000      mov	r3, r0
0x3ffdc1b4:  e3a01000      mov	r1, #0	; 0x0
0x3ffdc1b8:  e0802612      add	r2, r0, r2, lsl r6
0x3ffdc1bc:  e5831004      str	r1, [r3, #4]
0x3ffdc1c0:  e2833008      add	r3, r3, #8	; 0x8
0x3ffdc1c4:  e1520003      cmp	r2, r3
0x3ffdc1c8:  1afffffb      bne	0x3ffdc1bc

----------------
IN: 
0x3ffdc1bc:  e5831004      str	r1, [r3, #4]
0x3ffdc1c0:  e2833008      add	r3, r3, #8	; 0x8
0x3ffdc1c4:  e1520003      cmp	r2, r3
0x3ffdc1c8:  1afffffb      bne	0x3ffdc1bc

----------------
IN: 
0x3ffdc1cc:  e3a04001      mov	r4, #1	; 0x1
0x3ffdc1d0:  e51b3038      ldr	r3, [fp, #-56]
0x3ffdc1d4:  e51b5050      ldr	r5, [fp, #-80]
0x3ffdc1d8:  e51b704c      ldr	r7, [fp, #-76]
0x3ffdc1dc:  e283e004      add	lr, r3, #4	; 0x4
0x3ffdc1e0:  e2466001      sub	r6, r6, #1	; 0x1
0x3ffdc1e4:  e3550000      cmp	r5, #0	; 0x0
0x3ffdc1e8:  e1a0c614      lsl	ip, r4, r6
0x3ffdc1ec:  0a000010      beq	0x3ffdc234

----------------
IN: 
0x3ffdc1f0:  e1a02007      mov	r2, r7
0x3ffdc1f4:  e1a03005      mov	r3, r5
0x3ffdc1f8:  e2433001      sub	r3, r3, #1	; 0x1
0x3ffdc1fc:  e11c0003      tst	ip, r3
0x3ffdc200:  e2822008      add	r2, r2, #8	; 0x8
0x3ffdc204:  0a000008      beq	0x3ffdc22c

----------------
IN: 
0x3ffdc208:  e5120004      ldr	r0, [r2, #-4]
0x3ffdc20c:  e79e1186      ldr	r1, [lr, r6, lsl #3]
0x3ffdc210:  e2800001      add	r0, r0, #1	; 0x1
0x3ffdc214:  e2433001      sub	r3, r3, #1	; 0x1
0x3ffdc218:  e0811000      add	r1, r1, r0
0x3ffdc21c:  e11c0003      tst	ip, r3
0x3ffdc220:  e5021004      str	r1, [r2, #-4]
0x3ffdc224:  e2822008      add	r2, r2, #8	; 0x8
0x3ffdc228:  1afffff6      bne	0x3ffdc208

----------------
IN: 
0x3ffdc22c:  e3530000      cmp	r3, #0	; 0x0
0x3ffdc230:  1afffff0      bne	0x3ffdc1f8

----------------
IN: 
0x3ffdc1f8:  e2433001      sub	r3, r3, #1	; 0x1
0x3ffdc1fc:  e11c0003      tst	ip, r3
0x3ffdc200:  e2822008      add	r2, r2, #8	; 0x8
0x3ffdc204:  0a000008      beq	0x3ffdc22c

----------------
IN: 
0x3ffdc234:  e3560000      cmp	r6, #0	; 0x0
0x3ffdc238:  1affffe8      bne	0x3ffdc1e0

----------------
IN: 
0x3ffdc1e0:  e2466001      sub	r6, r6, #1	; 0x1
0x3ffdc1e4:  e3550000      cmp	r5, #0	; 0x0
0x3ffdc1e8:  e1a0c614      lsl	ip, r4, r6
0x3ffdc1ec:  0a000010      beq	0x3ffdc234

----------------
IN: 
0x3ffdc23c:  e3a00001      mov	r0, #1	; 0x1
0x3ffdc240:  e51b3050      ldr	r3, [fp, #-80]
0x3ffdc244:  e51b203c      ldr	r2, [fp, #-60]
0x3ffdc248:  e243c002      sub	ip, r3, #2	; 0x2
0x3ffdc24c:  e1a00210      lsl	r0, r0, r2
0x3ffdc250:  e51b304c      ldr	r3, [fp, #-76]
0x3ffdc254:  e150000c      cmp	r0, ip
0x3ffdc258:  e283e010      add	lr, r3, #16	; 0x10
0x3ffdc25c:  0a000012      beq	0x3ffdc2ac

----------------
IN: 
0x3ffdc260:  e1a0200c      mov	r2, ip
0x3ffdc264:  e2833018      add	r3, r3, #24	; 0x18
0x3ffdc268:  e2422001      sub	r2, r2, #1	; 0x1
0x3ffdc26c:  e3120001      tst	r2, #1	; 0x1
0x3ffdc270:  15131018      ldrne	r1, [r3, #-24]
0x3ffdc274:  15134014      ldrne	r4, [r3, #-20]
0x3ffdc278:  05131010      ldreq	r1, [r3, #-16]
0x3ffdc27c:  10811004      addne	r1, r1, r4
0x3ffdc280:  e1500002      cmp	r0, r2
0x3ffdc284:  e5031008      str	r1, [r3, #-8]
0x3ffdc288:  e2833008      add	r3, r3, #8	; 0x8
0x3ffdc28c:  1afffff5      bne	0x3ffdc268

----------------
IN: 
0x3ffdc268:  e2422001      sub	r2, r2, #1	; 0x1
0x3ffdc26c:  e3120001      tst	r2, #1	; 0x1
0x3ffdc270:  15131018      ldrne	r1, [r3, #-24]
0x3ffdc274:  15134014      ldrne	r4, [r3, #-20]
0x3ffdc278:  05131010      ldreq	r1, [r3, #-16]
0x3ffdc27c:  10811004      addne	r1, r1, r4
0x3ffdc280:  e1500002      cmp	r0, r2
0x3ffdc284:  e5031008      str	r1, [r3, #-8]
0x3ffdc288:  e2833008      add	r3, r3, #8	; 0x8
0x3ffdc28c:  1afffff5      bne	0x3ffdc268

----------------
IN: 
0x3ffdc290:  e51b1050      ldr	r1, [fp, #-80]
0x3ffdc294:  e2802002      add	r2, r0, #2	; 0x2
0x3ffdc298:  e0413000      sub	r3, r1, r0
0x3ffdc29c:  e082200c      add	r2, r2, ip
0x3ffdc2a0:  e2433002      sub	r3, r3, #2	; 0x2
0x3ffdc2a4:  e042c001      sub	ip, r2, r1
0x3ffdc2a8:  e08ee183      add	lr, lr, r3, lsl #3
0x3ffdc2ac:  e3e02007      mvn	r2, #7	; 0x7
0x3ffdc2b0:  e51b3058      ldr	r3, [fp, #-88]
0x3ffdc2b4:  e283a001      add	sl, r3, #1	; 0x1
0x3ffdc2b8:  e51b303c      ldr	r3, [fp, #-60]
0x3ffdc2bc:  e08e2312      add	r2, lr, r2, lsl r3
0x3ffdc2c0:  e7923186      ldr	r3, [r2, r6, lsl #3]
0x3ffdc2c4:  e083300a      add	r3, r3, sl
0x3ffdc2c8:  e78e3186      str	r3, [lr, r6, lsl #3]
0x3ffdc2cc:  e2866001      add	r6, r6, #1	; 0x1
0x3ffdc2d0:  e15c0006      cmp	ip, r6
0x3ffdc2d4:  1afffff9      bne	0x3ffdc2c0

----------------
IN: 
0x3ffdc2c0:  e7923186      ldr	r3, [r2, r6, lsl #3]
0x3ffdc2c4:  e083300a      add	r3, r3, sl
0x3ffdc2c8:  e78e3186      str	r3, [lr, r6, lsl #3]
0x3ffdc2cc:  e2866001      add	r6, r6, #1	; 0x1
0x3ffdc2d0:  e15c0006      cmp	ip, r6
0x3ffdc2d4:  1afffff9      bne	0x3ffdc2c0

----------------
IN: 
0x3ffdc2d8:  e51b304c      ldr	r3, [fp, #-76]
0x3ffdc2dc:  e51b2060      ldr	r2, [fp, #-96]
0x3ffdc2e0:  e5933004      ldr	r3, [r3, #4]
0x3ffdc2e4:  e1520003      cmp	r2, r3
0x3ffdc2e8:  21a03002      movcs	r3, r2
0x3ffdc2ec:  e51b205c      ldr	r2, [fp, #-92]
0x3ffdc2f0:  e51b0054      ldr	r0, [fp, #-84]
0x3ffdc2f4:  e5823000      str	r3, [r2]
0x3ffdc2f8:  e24bd020      sub	sp, fp, #32	; 0x20
0x3ffdc2fc:  e8bd8ff0      pop	{r4, r5, r6, r7, r8, r9, sl, fp, pc}

----------------
IN: 
0x3ffcad74:  e1a02000      mov	r2, r0
0x3ffcad78:  e59f43c0      ldr	r4, [pc, #960]	; 0x3ffcb140
0x3ffcad7c:  e3a00014      mov	r0, #20	; 0x14
0x3ffcad80:  e08f4004      add	r4, pc, r4
0x3ffcad84:  e5943000      ldr	r3, [r4]
0x3ffcad88:  e5872008      str	r2, [r7, #8]
0x3ffcad8c:  e12fff33      blx	r3

----------------
IN: 
0x3ffcad90:  e3500000      cmp	r0, #0	; 0x0
0x3ffcad94:  e5870014      str	r0, [r7, #20]
0x3ffcad98:  0a0000e4      beq	0x3ffcb130

----------------
IN: 
0x3ffcad9c:  e5975004      ldr	r5, [r7, #4]
0x3ffcada0:  e59f239c      ldr	r2, [pc, #924]	; 0x3ffcb144
0x3ffcada4:  e1a05105      lsl	r5, r5, #2
0x3ffcada8:  e2855027      add	r5, r5, #39	; 0x27
0x3ffcadac:  e0851592      umull	r1, r5, r2, r5
0x3ffcadb0:  e1a05225      lsr	r5, r5, #4
0x3ffcadb4:  e0855105      add	r5, r5, r5, lsl #2
0x3ffcadb8:  e5943000      ldr	r3, [r4]
0x3ffcadbc:  e1a06000      mov	r6, r0
0x3ffcadc0:  e1a00205      lsl	r0, r5, #4
0x3ffcadc4:  e12fff33      blx	r3

----------------
IN: 
0x3ffcadc8:  e5973014      ldr	r3, [r7, #20]
0x3ffcadcc:  e5860000      str	r0, [r6]
0x3ffcadd0:  e5934000      ldr	r4, [r3]
0x3ffcadd4:  e3540000      cmp	r4, #0	; 0x0
0x3ffcadd8:  0a0000ce      beq	0x3ffcb118

----------------
IN: 
0x3ffcaddc:  e5971004      ldr	r1, [r7, #4]
0x3ffcade0:  e1a08006      mov	r8, r6
0x3ffcade4:  e3a00000      mov	r0, #0	; 0x0
0x3ffcade8:  e2869004      add	r9, r6, #4	; 0x4
0x3ffcadec:  e50b6030      str	r6, [fp, #-48]
0x3ffcadf0:  e1a06009      mov	r6, r9
0x3ffcadf4:  e1a09001      mov	r9, r1
0x3ffcadf8:  e3a02017      mov	r2, #23	; 0x17
0x3ffcadfc:  e1a03105      lsl	r3, r5, #2
0x3ffcae00:  e50b3028      str	r3, [fp, #-40]
0x3ffcae04:  e59f333c      ldr	r3, [pc, #828]	; 0x3ffcb148
0x3ffcae08:  e5870018      str	r0, [r7, #24]
0x3ffcae0c:  e08f3003      add	r3, pc, r3
0x3ffcae10:  e58345e8      str	r4, [r3, #1512]
0x3ffcae14:  e59f3330      ldr	r3, [pc, #816]	; 0x3ffcb14c
0x3ffcae18:  e4884010      str	r4, [r8], #16
0x3ffcae1c:  e08f3003      add	r3, pc, r3
0x3ffcae20:  e59f5328      ldr	r5, [pc, #808]	; 0x3ffcb150
0x3ffcae24:  e5843004      str	r3, [r4, #4]
0x3ffcae28:  e59f3324      ldr	r3, [pc, #804]	; 0x3ffcb154
0x3ffcae2c:  e08f5005      add	r5, pc, r5
0x3ffcae30:  e08f3003      add	r3, pc, r3
0x3ffcae34:  e3590000      cmp	r9, #0	; 0x0
0x3ffcae38:  e584500c      str	r5, [r4, #12]
0x3ffcae3c:  e2857048      add	r7, r5, #72	; 0x48
0x3ffcae40:  e5842010      str	r2, [r4, #16]
0x3ffcae44:  e5840008      str	r0, [r4, #8]
0x3ffcae48:  e50b302c      str	r3, [fp, #-44]
0x3ffcae4c:  e2855018      add	r5, r5, #24	; 0x18
0x3ffcae50:  e1a0a101      lsl	sl, r1, #2
0x3ffcae54:  0a000003      beq	0x3ffcae68

----------------
IN: 
0x3ffcae58:  e1a0200a      mov	r2, sl
0x3ffcae5c:  e3a01000      mov	r1, #0	; 0x0
0x3ffcae60:  e2840014      add	r0, r4, #20	; 0x14
0x3ffcae64:  eb006c9d      bl	0x3ffe60e0

----------------
IN: 
0x3ffcae68:  e1580006      cmp	r8, r6
0x3ffcae6c:  0a000015      beq	0x3ffcaec8

----------------
IN: 
0x3ffcae70:  e51b3028      ldr	r3, [fp, #-40]
0x3ffcae74:  e4970004      ldr	r0, [r7], #4
0x3ffcae78:  e0841003      add	r1, r4, r3
0x3ffcae7c:  e51b302c      ldr	r3, [fp, #-44]
0x3ffcae80:  e5841000      str	r1, [r4]
0x3ffcae84:  e4861004      str	r1, [r6], #4
0x3ffcae88:  e5813004      str	r3, [r1, #4]
0x3ffcae8c:  e3a03000      mov	r3, #0	; 0x0
0x3ffcae90:  e5810010      str	r0, [r1, #16]
0x3ffcae94:  e5813008      str	r3, [r1, #8]
0x3ffcae98:  e581500c      str	r5, [r1, #12]
0x3ffcae9c:  e5d5c000      ldrb	ip, [r5]
0x3ffcaea0:  e2800001      add	r0, r0, #1	; 0x1
0x3ffcaea4:  e35c002f      cmp	ip, #47	; 0x2f
0x3ffcaea8:  e0850000      add	r0, r5, r0
0x3ffcaeac:  1a000091      bne	0x3ffcb0f8

----------------
IN: 
0x3ffcaeb0:  e3590000      cmp	r9, #0	; 0x0
0x3ffcaeb4:  e1a05000      mov	r5, r0
0x3ffcaeb8:  e1a04001      mov	r4, r1
0x3ffcaebc:  1affffe5      bne	0x3ffcae58

----------------
IN: 
0x3ffcaec8:  e3a0101b      mov	r1, #27	; 0x1b
0x3ffcaecc:  e3a03000      mov	r3, #0	; 0x0
0x3ffcaed0:  e59f2280      ldr	r2, [pc, #640]	; 0x3ffcb158
0x3ffcaed4:  e5843000      str	r3, [r4]
0x3ffcaed8:  e08f2002      add	r2, pc, r2
0x3ffcaedc:  e5821000      str	r1, [r2]
0x3ffcaee0:  e59f2274      ldr	r2, [pc, #628]	; 0x3ffcb15c
0x3ffcaee4:  e51b6030      ldr	r6, [fp, #-48]
0x3ffcaee8:  e08f2002      add	r2, pc, r2
0x3ffcaeec:  e5924000      ldr	r4, [r2]
0x3ffcaef0:  e5863010      str	r3, [r6, #16]
0x3ffcaef4:  e1540003      cmp	r4, r3
0x3ffcaef8:  02824e5f      addeq	r4, r2, #1520	; 0x5f0
0x3ffcaefc:  e5d43198      ldrb	r3, [r4, #408]
0x3ffcaf00:  e2033003      and	r3, r3, #3	; 0x3
0x3ffcaf04:  e3530002      cmp	r3, #2	; 0x2
0x3ffcaf08:  0a000072      beq	0x3ffcb0d8

----------------
IN: 
0x3ffcaf0c:  e5942094      ldr	r2, [r4, #148]
0x3ffcaf10:  e3520000      cmp	r2, #0	; 0x0
0x3ffcaf14:  0a000050      beq	0x3ffcb05c

----------------
IN: 
0x3ffcb05c:  e3e03000      mvn	r3, #0	; 0x0
0x3ffcb060:  e594205c      ldr	r2, [r4, #92]
0x3ffcb064:  e58431f8      str	r3, [r4, #504]
0x3ffcb068:  e3520000      cmp	r2, #0	; 0x0
0x3ffcb06c:  058431a4      streq	r3, [r4, #420]
0x3ffcb070:  0affffb9      beq	0x3ffcaf5c

----------------
IN: 
0x3ffcaf5c:  e51b3034      ldr	r3, [fp, #-52]
0x3ffcaf60:  e3530000      cmp	r3, #0	; 0x0
0x3ffcaf64:  0a000002      beq	0x3ffcaf74

----------------
IN: 
0x3ffcaf74:  e3e02000      mvn	r2, #0	; 0x0
0x3ffcaf78:  e59f31e4      ldr	r3, [pc, #484]	; 0x3ffcb164
0x3ffcaf7c:  e08f3003      add	r3, pc, r3
0x3ffcaf80:  e583200c      str	r2, [r3, #12]
0x3ffcaf84:  e24bd020      sub	sp, fp, #32	; 0x20
0x3ffcaf88:  e8bd8ff0      pop	{r4, r5, r6, r7, r8, r9, sl, fp, pc}

----------------
IN: 
0x3ffe0af8:  e3a01000      mov	r1, #0	; 0x0
0x3ffe0afc:  e59405f0      ldr	r0, [r4, #1520]
0x3ffe0b00:  ebff95ec      bl	0x3ffc62b8

----------------
IN: 
0x3ffc62b8:  e3510000      cmp	r1, #0	; 0x0
0x3ffc62bc:  e1a0c000      mov	ip, r0
0x3ffc62c0:  e92d4010      push	{r4, lr}
0x3ffc62c4:  1a000022      bne	0x3ffc6354

----------------
IN: 
0x3ffc62c8:  e59f2154      ldr	r2, [pc, #340]	; 0x3ffc6424
0x3ffc62cc:  e08f2002      add	r2, pc, r2
0x3ffc62d0:  e5923000      ldr	r3, [r2]
0x3ffc62d4:  e3530000      cmp	r3, #0	; 0x0
0x3ffc62d8:  11a03001      movne	r3, r1
0x3ffc62dc:  11a00002      movne	r0, r2
0x3ffc62e0:  0a00003e      beq	0x3ffc63e0

----------------
IN: 
0x3ffc63e0:  e3a0e001      mov	lr, #1	; 0x1
0x3ffc63e4:  e1a03001      mov	r3, r1
0x3ffc63e8:  e1a00002      mov	r0, r2
0x3ffc63ec:  e582e000      str	lr, [r2]
0x3ffc63f0:  eaffffbb      b	0x3ffc62e4

----------------
IN: 
0x3ffc62e4:  e5902008      ldr	r2, [r0, #8]
0x3ffc62e8:  e3520000      cmp	r2, #0	; 0x0
0x3ffc62ec:  1a000007      bne	0x3ffc6310

----------------
IN: 
0x3ffc62f0:  e35c0000      cmp	ip, #0	; 0x0
0x3ffc62f4:  0a000035      beq	0x3ffc63d0

----------------
IN: 
0x3ffc62f8:  e3a02000      mov	r2, #0	; 0x0
0x3ffc62fc:  e59fe124      ldr	lr, [pc, #292]	; 0x3ffc6428
0x3ffc6300:  e580c010      str	ip, [r0, #16]
0x3ffc6304:  e08fe00e      add	lr, pc, lr
0x3ffc6308:  e580e008      str	lr, [r0, #8]
0x3ffc630c:  e5802014      str	r2, [r0, #20]
0x3ffc6310:  e5902004      ldr	r2, [r0, #4]
0x3ffc6314:  e3520000      cmp	r2, #0	; 0x0
0x3ffc6318:  0a000035      beq	0x3ffc63f4

----------------
IN: 
0x3ffc63f4:  e3e0ca0f      mvn	ip, #61440	; 0xf000
0x3ffc63f8:  e1a0e00f      mov	lr, pc
0x3ffc63fc:  e24cf05f      sub	pc, ip, #95	; 0x5f

----------------
IN: 
0xffff0fa0:  Address 0xffff0fa0 is out of bounds.


----------------
IN: 
0x3ffc6400:  e59f2038      ldr	r2, [pc, #56]	; 0x3ffc6440
0x3ffc6404:  e081c101      add	ip, r1, r1, lsl #2
0x3ffc6408:  e08f2002      add	r2, pc, r2
0x3ffc640c:  e081108c      add	r1, r1, ip, lsl #1
0x3ffc6410:  e7922181      ldr	r2, [r2, r1, lsl #3]
0x3ffc6414:  e3530000      cmp	r3, #0	; 0x0
0x3ffc6418:  e5802004      str	r2, [r0, #4]
0x3ffc641c:  1affffc0      bne	0x3ffc6324

----------------
IN: 
0x3ffc6420:  e8bd8010      pop	{r4, pc}

----------------
IN: 
0x3ffe0b04:  e3a03000      mov	r3, #0	; 0x0
0x3ffe0b08:  e59425f4      ldr	r2, [r4, #1524]
0x3ffe0b0c:  e580300c      str	r3, [r0, #12]
0x3ffe0b10:  e1520003      cmp	r2, r3
0x3ffe0b14:  0594360c      ldreq	r3, [r4, #1548]
0x3ffe0b18:  e51f199c      ldr	r1, [pc, #-2460]	; 0x3ffe0184
0x3ffe0b1c:  05933000      ldreq	r3, [r3]
0x3ffe0b20:  e50b01e0      str	r0, [fp, #-480]
0x3ffe0b24:  058435f4      streq	r3, [r4, #1524]
0x3ffe0b28:  e51f39a8      ldr	r3, [pc, #-2472]	; 0x3ffe0188
0x3ffe0b2c:  e08f1001      add	r1, pc, r1
0x3ffe0b30:  e08f3003      add	r3, pc, r3
0x3ffe0b34:  e5d32788      ldrb	r2, [r3, #1928]
0x3ffe0b38:  e5930004      ldr	r0, [r3, #4]
0x3ffe0b3c:  e3c22002      bic	r2, r2, #2	; 0x2
0x3ffe0b40:  e3822001      orr	r2, r2, #1	; 0x1
0x3ffe0b44:  e5c32788      strb	r2, [r3, #1928]
0x3ffe0b48:  e2800001      add	r0, r0, #1	; 0x1
0x3ffe0b4c:  e59325d0      ldr	r2, [r3, #1488]
0x3ffe0b50:  e5830004      str	r0, [r3, #4]
0x3ffe0b54:  e591c16c      ldr	ip, [r1, #364]
0x3ffe0b58:  e59305d4      ldr	r0, [r3, #1492]
0x3ffe0b5c:  e2922001      adds	r2, r2, #1	; 0x1
0x3ffe0b60:  e2a00000      adc	r0, r0, #0	; 0x0
0x3ffe0b64:  e37c0002      cmn	ip, #2	; 0x2
0x3ffe0b68:  e283ce5f      add	ip, r3, #1520	; 0x5f0
0x3ffe0b6c:  e58ac00c      str	ip, [sl, #12]
0x3ffe0b70:  e58325d0      str	r2, [r3, #1488]
0x3ffe0b74:  e58305d4      str	r0, [r3, #1492]
0x3ffe0b78:  e583a600      str	sl, [r3, #1536]
0x3ffe0b7c:  059a3000      ldreq	r3, [sl]
0x3ffe0b80:  016f3f13      clzeq	r3, r3
0x3ffe0b84:  01a032a3      lsreq	r3, r3, #5
0x3ffe0b88:  02633000      rsbeq	r3, r3, #0	; 0x0
0x3ffe0b8c:  0581316c      streq	r3, [r1, #364]
0x3ffe0b90:  e51f3a0c      ldr	r3, [pc, #-2572]	; 0x3ffe018c
0x3ffe0b94:  e08f3003      add	r3, pc, r3
0x3ffe0b98:  e1d322b8      ldrh	r2, [r3, #40]
0x3ffe0b9c:  e3520034      cmp	r2, #52	; 0x34
0x3ffe0ba0:  1a0009d0      bne	0x3ffe32e8

----------------
IN: 
0x3ffe0ba4:  e1d322ba      ldrh	r2, [r3, #42]
0x3ffe0ba8:  e3520020      cmp	r2, #32	; 0x20
0x3ffe0bac:  1a0009d5      bne	0x3ffe3308

----------------
IN: 
0x3ffe0bb0:  e593101c      ldr	r1, [r3, #28]
0x3ffe0bb4:  e51f2a2c      ldr	r2, [pc, #-2604]	; 0x3ffe0190
0x3ffe0bb8:  e0811003      add	r1, r1, r3
0x3ffe0bbc:  e08f2002      add	r2, pc, r2
0x3ffe0bc0:  e1d332bc      ldrh	r3, [r3, #44]
0x3ffe0bc4:  e5821744      str	r1, [r2, #1860]
0x3ffe0bc8:  e2822d1d      add	r2, r2, #1856	; 0x740
0x3ffe0bcc:  e1c230bc      strh	r3, [r2, #12]
0x3ffe0bd0:  e51fca44      ldr	ip, [pc, #-2628]	; 0x3ffe0194
0x3ffe0bd4:  e2433001      sub	r3, r3, #1	; 0x1
0x3ffe0bd8:  e2810020      add	r0, r1, #32	; 0x20
0x3ffe0bdc:  ea000004      b	0x3ffe0bf4

----------------
IN: 
0x3ffe0bf4:  e3730001      cmn	r3, #1	; 0x1
0x3ffe0bf8:  1afffff8      bne	0x3ffe0be0

----------------
IN: 
0x3ffe0be0:  e081e283      add	lr, r1, r3, lsl #5
0x3ffe0be4:  e2433001      sub	r3, r3, #1	; 0x1
0x3ffe0be8:  e7902283      ldr	r2, [r0, r3, lsl #5]
0x3ffe0bec:  e152000c      cmp	r2, ip
0x3ffe0bf0:  0a000111      beq	0x3ffe103c

----------------
IN: 
0x3ffe103c:  e51f3e68      ldr	r3, [pc, #-3688]	; 0x3ffe01dc
0x3ffe1040:  e59e2008      ldr	r2, [lr, #8]
0x3ffe1044:  e08f3003      add	r3, pc, r3
0x3ffe1048:  e5832848      str	r2, [r3, #2120]
0x3ffe104c:  e59e2014      ldr	r2, [lr, #20]
0x3ffe1050:  e583284c      str	r2, [r3, #2124]
0x3ffe1054:  eafffee8      b	0x3ffe0bfc

----------------
IN: 
0x3ffe0bfc:  e51f0a6c      ldr	r0, [pc, #-2668]	; 0x3ffe0198
0x3ffe0c00:  e08f0000      add	r0, pc, r0
0x3ffe0c04:  e5903830      ldr	r3, [r0, #2096]
0x3ffe0c08:  e3530000      cmp	r3, #0	; 0x0
0x3ffe0c0c:  1a0003c9      bne	0x3ffe1b38

----------------
IN: 
0x3ffe0c10:  e24b6e19      sub	r6, fp, #400	; 0x190
0x3ffe0c14:  e1a0100a      mov	r1, sl
0x3ffe0c18:  e1a00006      mov	r0, r6
0x3ffe0c1c:  e51f2a88      ldr	r2, [pc, #-2696]	; 0x3ffe019c
0x3ffe0c20:  ebfff6f7      bl	0x3ffde804

----------------
IN: 
0x3ffde804:  e59f306c      ldr	r3, [pc, #108]	; 0x3ffde878
0x3ffde808:  e591c034      ldr	ip, [r1, #52]
0x3ffde80c:  e0433002      sub	r3, r3, r2
0x3ffde810:  e5d1219a      ldrb	r2, [r1, #410]
0x3ffde814:  e3120020      tst	r2, #32	; 0x20
0x3ffde818:  e7912103      ldr	r2, [r1, r3, lsl #2]
0x3ffde81c:  15911000      ldrne	r1, [r1]
0x3ffde820:  e59c3004      ldr	r3, [ip, #4]
0x3ffde824:  10833001      addne	r3, r3, r1
0x3ffde828:  e3520000      cmp	r2, #0	; 0x0
0x3ffde82c:  012fff1e      bxeq	lr

----------------
IN: 
0x3ffe0c24:  e1a0100a      mov	r1, sl
0x3ffe0c28:  e1a00006      mov	r0, r6
0x3ffe0c2c:  e51f2a94      ldr	r2, [pc, #-2708]	; 0x3ffe01a0
0x3ffe0c30:  ebfff6f3      bl	0x3ffde804

----------------
IN: 
0x3ffe0c34:  e51b302c      ldr	r3, [fp, #-44]
0x3ffe0c38:  e3530006      cmp	r3, #6	; 0x6
0x3ffe0c3c:  0a0004de      beq	0x3ffe1fbc

----------------
IN: 
0x3ffe0c40:  e51b3150      ldr	r3, [fp, #-336]
0x3ffe0c44:  e3530000      cmp	r3, #0	; 0x0
0x3ffe0c48:  0a00010c      beq	0x3ffe1080

----------------
IN: 
0x3ffe1080:  e3a05001      mov	r5, #1	; 0x1
0x3ffe1084:  ebffd6e2      bl	0x3ffd6c14

----------------
IN: 
0x3ffd6c14:  e59f306c      ldr	r3, [pc, #108]	; 0x3ffd6c88
0x3ffd6c18:  e08f3003      add	r3, pc, r3
0x3ffd6c1c:  e5d328dc      ldrb	r2, [r3, #2268]
0x3ffd6c20:  e3520000      cmp	r2, #0	; 0x0
0x3ffd6c24:  1a000001      bne	0x3ffd6c30

----------------
IN: 
0x3ffd6c28:  e59308e0      ldr	r0, [r3, #2272]
0x3ffd6c2c:  e12fff1e      bx	lr

----------------
IN: 
0x3ffe1088:  e3a04001      mov	r4, #1	; 0x1
0x3ffe108c:  e59a3074      ldr	r3, [sl, #116]
0x3ffe1090:  e50b01e4      str	r0, [fp, #-484]
0x3ffe1094:  e3530000      cmp	r3, #0	; 0x0
0x3ffe1098:  151b21e0      ldrne	r2, [fp, #-480]
0x3ffe109c:  15832004      strne	r2, [r3, #4]
0x3ffe10a0:  e51b31e0      ldr	r3, [fp, #-480]
0x3ffe10a4:  e583400c      str	r4, [r3, #12]
0x3ffe10a8:  ebff9464      bl	0x3ffc6240

----------------
IN: 
0x3ffc6240:  e12fff1e      bx	lr

----------------
IN: 
0x3ffe10ac:  e1a01004      mov	r1, r4
0x3ffe10b0:  e1a0000a      mov	r0, sl
0x3ffe10b4:  ebffe3a5      bl	0x3ffd9f50

----------------
IN: 
0x3ffd9f50:  e92d4ff8      push	{r3, r4, r5, r6, r7, r8, r9, sl, fp, lr}
0x3ffd9f54:  e59fb07c      ldr	fp, [pc, #124]	; 0x3ffd9fd8
0x3ffd9f58:  e08fb00b      add	fp, pc, fp
0x3ffd9f5c:  e59b31e8      ldr	r3, [fp, #488]
0x3ffd9f60:  e59b51e4      ldr	r5, [fp, #484]
0x3ffd9f64:  e3530000      cmp	r3, #0	; 0x0
0x3ffd9f68:  08bd8ff8      popeq	{r3, r4, r5, r6, r7, r8, r9, sl, fp, pc}

----------------
IN: 
0x3ffe10b8:  e51b31d8      ldr	r3, [fp, #-472]
0x3ffe10bc:  e5933000      ldr	r3, [r3]
0x3ffe10c0:  e3530000      cmp	r3, #0	; 0x0
0x3ffe10c4:  1a000849      bne	0x3ffe31f0

----------------
IN: 
0x3ffe10c8:  e51b403c      ldr	r4, [fp, #-60]
0x3ffe10cc:  e3540000      cmp	r4, #0	; 0x0
0x3ffe10d0:  1a0003c3      bne	0x3ffe1fe4

----------------
IN: 
0x3ffe10d4:  e51b0038      ldr	r0, [fp, #-56]
0x3ffe10d8:  e3500000      cmp	r0, #0	; 0x0
0x3ffe10dc:  1a000568      bne	0x3ffe2684

----------------
IN: 
0x3ffe10e0:  e51f6f04      ldr	r6, [pc, #-3844]	; 0x3ffe01e4
0x3ffe10e4:  e3a01004      mov	r1, #4	; 0x4
0x3ffe10e8:  e08f6006      add	r6, pc, r6
0x3ffe10ec:  e1a00006      mov	r0, r6
0x3ffe10f0:  eb000dc4      bl	0x3ffe4808

----------------
IN: 
0x3ffe4808:  e52d7004      push	{r7}		; (str r7, [sp, #-4]!)
0x3ffe480c:  e3a07021      mov	r7, #33	; 0x21
0x3ffe4810:  ef000000      svc	0x00000000

----------------
IN: 
0x3ffe4814:  e3700a01      cmn	r0, #4096	; 0x1000
0x3ffe4818:  8a000001      bhi	0x3ffe4824

----------------
IN: 
0x3ffe4824:  e59f3014      ldr	r3, [pc, #20]	; 0x3ffe4840
0x3ffe4828:  e2602000      rsb	r2, r0, #0	; 0x0
0x3ffe482c:  e08f3003      add	r3, pc, r3
0x3ffe4830:  e3e00000      mvn	r0, #0	; 0x0
0x3ffe4834:  e49d7004      pop	{r7}		; (ldr r7, [sp], #4)
0x3ffe4838:  e5832000      str	r2, [r3]
0x3ffe483c:  e12fff1e      bx	lr

----------------
IN: 
0x3ffe10f4:  e3500000      cmp	r0, #0	; 0x0
0x3ffe10f8:  0a00041f      beq	0x3ffe217c

----------------
IN: 
0x3ffe10fc:  e51b31d8      ldr	r3, [fp, #-472]
0x3ffe1100:  e5936000      ldr	r6, [r3]
0x3ffe1104:  e3560000      cmp	r6, #0	; 0x0
0x3ffe1108:  1a000404      bne	0x3ffe2120

----------------
IN: 
0x3ffe110c:  e51f3f2c      ldr	r3, [pc, #-3884]	; 0x3ffe01e8
0x3ffe1110:  e08f3003      add	r3, pc, r3
0x3ffe1114:  e5930194      ldr	r0, [r3, #404]
0x3ffe1118:  e3500000      cmp	r0, #0	; 0x0
0x3ffe111c:  0a000001      beq	0x3ffe1128

----------------
IN: 
0x3ffe1128:  e51b302c      ldr	r3, [fp, #-44]
0x3ffe112c:  e3a00000      mov	r0, #0	; 0x0
0x3ffe1130:  e2433003      sub	r3, r3, #3	; 0x3
0x3ffe1134:  e16f3f13      clz	r3, r3
0x3ffe1138:  e58d0000      str	r0, [sp]
0x3ffe113c:  e1a02004      mov	r2, r4
0x3ffe1140:  e1a0000a      mov	r0, sl
0x3ffe1144:  e1a01006      mov	r1, r6
0x3ffe1148:  e1a032a3      lsr	r3, r3, #5
0x3ffe114c:  ebff94eb      bl	0x3ffc6500

----------------
IN: 
0x3ffc6500:  e92d4ff0      push	{r4, r5, r6, r7, r8, r9, sl, fp, lr}
0x3ffc6504:  e28db020      add	fp, sp, #32	; 0x20
0x3ffc6508:  e24dde47      sub	sp, sp, #1136	; 0x470
0x3ffc650c:  e24dd004      sub	sp, sp, #4	; 0x4
0x3ffc6510:  e0825082      add	r5, r2, r2, lsl #1
0x3ffc6514:  e1a05105      lsl	r5, r5, #2
0x3ffc6518:  e50b3470      str	r3, [fp, #-1136]
0x3ffc651c:  e285301f      add	r3, r5, #31	; 0x1f
0x3ffc6520:  e3c33007      bic	r3, r3, #7	; 0x7
0x3ffc6524:  e04dd003      sub	sp, sp, r3
0x3ffc6528:  e1a0900d      mov	r9, sp
0x3ffc652c:  e3a0e000      mov	lr, #0	; 0x0
0x3ffc6530:  e5d03198      ldrb	r3, [r0, #408]
0x3ffc6534:  e152000e      cmp	r2, lr
0x3ffc6538:  e3c33040      bic	r3, r3, #64	; 0x40
0x3ffc653c:  e3833020      orr	r3, r3, #32	; 0x20
0x3ffc6540:  e5c03198      strb	r3, [r0, #408]
0x3ffc6544:  e289300c      add	r3, r9, #12	; 0xc
0x3ffc6548:  e1a0a000      mov	sl, r0
0x3ffc654c:  e589e000      str	lr, [r9]
0x3ffc6550:  e5890004      str	r0, [r9, #4]
0x3ffc6554:  e5893008      str	r3, [r9, #8]
0x3ffc6558:  0a000294      beq	0x3ffc6fb0

----------------
IN: 
0x3ffc6fb0:  e3a03001      mov	r3, #1	; 0x1
0x3ffc6fb4:  e1a07000      mov	r7, r0
0x3ffc6fb8:  e50b9460      str	r9, [fp, #-1120]
0x3ffc6fbc:  e50b345c      str	r3, [fp, #-1116]
0x3ffc6fc0:  eafffd78      b	0x3ffc65a8

----------------
IN: 
0x3ffc65a8:  e3a03b01      mov	r3, #1024	; 0x400
0x3ffc65ac:  e3a02000      mov	r2, #0	; 0x0
0x3ffc65b0:  e59f1df0      ldr	r1, [pc, #3568]	; 0x3ffc73a8
0x3ffc65b4:  e50b3428      str	r3, [fp, #-1064]
0x3ffc65b8:  e08f1001      add	r1, pc, r1
0x3ffc65bc:  e2811e5f      add	r1, r1, #1520	; 0x5f0
0x3ffc65c0:  e50b1490      str	r1, [fp, #-1168]
0x3ffc65c4:  e59f1de0      ldr	r1, [pc, #3552]	; 0x3ffc73ac
0x3ffc65c8:  e51b3460      ldr	r3, [fp, #-1120]
0x3ffc65cc:  e08f1001      add	r1, pc, r1
0x3ffc65d0:  e2811e5f      add	r1, r1, #1520	; 0x5f0
0x3ffc65d4:  e5832008      str	r2, [r3, #8]
0x3ffc65d8:  e59f3dd0      ldr	r3, [pc, #3536]	; 0x3ffc73b0
0x3ffc65dc:  e50b146c      str	r1, [fp, #-1132]
0x3ffc65e0:  e24b1e42      sub	r1, fp, #1056	; 0x420
0x3ffc65e4:  e2411004      sub	r1, r1, #4	; 0x4
0x3ffc65e8:  e08f3003      add	r3, pc, r3
0x3ffc65ec:  e50b1480      str	r1, [fp, #-1152]
0x3ffc65f0:  e50b142c      str	r1, [fp, #-1068]
0x3ffc65f4:  e5931000      ldr	r1, [r3]
0x3ffc65f8:  e50b9468      str	r9, [fp, #-1128]
0x3ffc65fc:  e50b147c      str	r1, [fp, #-1148]
0x3ffc6600:  e5832000      str	r2, [r3]
0x3ffc6604:  e50b9484      str	r9, [fp, #-1156]
0x3ffc6608:  e50ba474      str	sl, [fp, #-1140]
0x3ffc660c:  e3a03001      mov	r3, #1	; 0x1
0x3ffc6610:  e5979160      ldr	r9, [r7, #352]
0x3ffc6614:  e51b2468      ldr	r2, [fp, #-1128]
0x3ffc6618:  e3590000      cmp	r9, #0	; 0x0
0x3ffc661c:  13a09000      movne	r9, #0	; 0x0
0x3ffc6620:  e5823000      str	r3, [r2]
0x3ffc6624:  0a0001e9      beq	0x3ffc6dd0

----------------
IN: 
0x3ffc6dd0:  e5973200      ldr	r3, [r7, #512]
0x3ffc6dd4:  e51b2474      ldr	r2, [fp, #-1140]
0x3ffc6dd8:  e16f3f13      clz	r3, r3
0x3ffc6ddc:  e1520007      cmp	r2, r7
0x3ffc6de0:  e1a032a3      lsr	r3, r3, #5
0x3ffc6de4:  03a03000      moveq	r3, #0	; 0x0
0x3ffc6de8:  e3530000      cmp	r3, #0	; 0x0
0x3ffc6dec:  0afffe0d      beq	0x3ffc6628

----------------
IN: 
0x3ffc6628:  e5973024      ldr	r3, [r7, #36]
0x3ffc662c:  e3530000      cmp	r3, #0	; 0x0
0x3ffc6630:  1a00002b      bne	0x3ffc66e4

----------------
IN: 
0x3ffc66e4:  e5d7319a      ldrb	r3, [r7, #410]
0x3ffc66e8:  e5975008      ldr	r5, [r7, #8]
0x3ffc66ec:  e3130020      tst	r3, #32	; 0x20
0x3ffc66f0:  e5973034      ldr	r3, [r7, #52]
0x3ffc66f4:  e593a004      ldr	sl, [r3, #4]
0x3ffc66f8:  15973000      ldrne	r3, [r7]
0x3ffc66fc:  e50b7444      str	r7, [fp, #-1092]
0x3ffc6700:  108aa003      addne	sl, sl, r3
0x3ffc6704:  e51b3470      ldr	r3, [fp, #-1136]
0x3ffc6708:  e50ba438      str	sl, [fp, #-1080]
0x3ffc670c:  e50b3440      str	r3, [fp, #-1088]
0x3ffc6710:  e59b3004      ldr	r3, [fp, #4]
0x3ffc6714:  e50b343c      str	r3, [fp, #-1084]
0x3ffc6718:  e5953000      ldr	r3, [r5]
0x3ffc671c:  e3530000      cmp	r3, #0	; 0x0
0x3ffc6720:  0a0002c5      beq	0x3ffc723c

----------------
IN: 
0x3ffc6724:  e51b2468      ldr	r2, [fp, #-1128]
0x3ffc6728:  e3a06000      mov	r6, #0	; 0x0
0x3ffc672c:  e50b2478      str	r2, [fp, #-1144]
0x3ffc6730:  e59f2c80      ldr	r2, [pc, #3200]	; 0x3ffc73b8
0x3ffc6734:  e2855008      add	r5, r5, #8	; 0x8
0x3ffc6738:  e08f2002      add	r2, pc, r2
0x3ffc673c:  e50b2488      str	r2, [fp, #-1160]
0x3ffc6740:  e59f2c74      ldr	r2, [pc, #3188]	; 0x3ffc73bc
0x3ffc6744:  e50ba458      str	sl, [fp, #-1112]
0x3ffc6748:  e08f2002      add	r2, pc, r2
0x3ffc674c:  e50b248c      str	r2, [fp, #-1164]
0x3ffc6750:  ea000047      b	0x3ffc6874

----------------
IN: 
0x3ffc6874:  e3530001      cmp	r3, #1	; 0x1
0x3ffc6878:  1a000024      bne	0x3ffc6910

----------------
IN: 
0x3ffc687c:  e5158004      ldr	r8, [r5, #-4]
0x3ffc6880:  e51b3458      ldr	r3, [fp, #-1112]
0x3ffc6884:  e0838008      add	r8, r3, r8
0x3ffc6888:  e1a00008      mov	r0, r8
0x3ffc688c:  eb000ef3      bl	0x3ffca460

----------------
IN: 
0x3ffca460:  e92d41f0      push	{r4, r5, r6, r7, r8, lr}
0x3ffca464:  e3a01024      mov	r1, #36	; 0x24
0x3ffca468:  eb006bf2      bl	0x3ffe5438

----------------
IN: 
0x3ffe5438:  e3100003      tst	r0, #3	; 0x3
0x3ffe543c:  e1a02000      mov	r2, r0
0x3ffe5440:  e20110ff      and	r1, r1, #255	; 0xff
0x3ffe5444:  0a00000c      beq	0x3ffe547c

----------------
IN: 
0x3ffe5448:  e1a03000      mov	r3, r0
0x3ffe544c:  ea000002      b	0x3ffe545c

----------------
IN: 
0x3ffe545c:  e1a00003      mov	r0, r3
0x3ffe5460:  e4d32001      ldrb	r2, [r3], #1
0x3ffe5464:  e1520001      cmp	r2, r1
0x3ffe5468:  012fff1e      bxeq	lr

----------------
IN: 
0x3ffe546c:  e3520000      cmp	r2, #0	; 0x0
0x3ffe5470:  1afffff6      bne	0x3ffe5450

----------------
IN: 
0x3ffe5450:  e3130003      tst	r3, #3	; 0x3
0x3ffe5454:  e1a02003      mov	r2, r3
0x3ffe5458:  0a000007      beq	0x3ffe547c

----------------
IN: 
0x3ffe547c:  e92d4070      push	{r4, r5, r6, lr}
0x3ffe5480:  e1816401      orr	r6, r1, r1, lsl #8
0x3ffe5484:  e59f409c      ldr	r4, [pc, #156]	; 0x3ffe5528
0x3ffe5488:  e1866806      orr	r6, r6, r6, lsl #16
0x3ffe548c:  e1a00002      mov	r0, r2
0x3ffe5490:  e492e004      ldr	lr, [r2], #4
0x3ffe5494:  e026500e      eor	r5, r6, lr
0x3ffe5498:  e08e3004      add	r3, lr, r4
0x3ffe549c:  e085c004      add	ip, r5, r4
0x3ffe54a0:  e023300e      eor	r3, r3, lr
0x3ffe54a4:  e02cc005      eor	ip, ip, r5
0x3ffe54a8:  e003300c      and	r3, r3, ip
0x3ffe54ac:  e1833004      orr	r3, r3, r4
0x3ffe54b0:  e3730001      cmn	r3, #1	; 0x1
0x3ffe54b4:  0afffff4      beq	0x3ffe548c

----------------
IN: 
0x3ffe548c:  e1a00002      mov	r0, r2
0x3ffe5490:  e492e004      ldr	lr, [r2], #4
0x3ffe5494:  e026500e      eor	r5, r6, lr
0x3ffe5498:  e08e3004      add	r3, lr, r4
0x3ffe549c:  e085c004      add	ip, r5, r4
0x3ffe54a0:  e023300e      eor	r3, r3, lr
0x3ffe54a4:  e02cc005      eor	ip, ip, r5
0x3ffe54a8:  e003300c      and	r3, r3, ip
0x3ffe54ac:  e1833004      orr	r3, r3, r4
0x3ffe54b0:  e3730001      cmn	r3, #1	; 0x1
0x3ffe54b4:  0afffff4      beq	0x3ffe548c

----------------
IN: 
0x3ffe54b8:  e5523004      ldrb	r3, [r2, #-4]
0x3ffe54bc:  e1530001      cmp	r3, r1
0x3ffe54c0:  08bd8070      popeq	{r4, r5, r6, pc}

----------------
IN: 
0x3ffe54c4:  e3530000      cmp	r3, #0	; 0x0
0x3ffe54c8:  0a00000e      beq	0x3ffe5508

----------------
IN: 
0x3ffe5508:  e1a00003      mov	r0, r3
0x3ffe550c:  e8bd8070      pop	{r4, r5, r6, pc}

----------------
IN: 
0x3ffca46c:  e2504000      subs	r4, r0, #0	; 0x0
0x3ffca470:  01a05004      moveq	r5, r4
0x3ffca474:  1a000001      bne	0x3ffca480

----------------
IN: 
0x3ffca478:  e1a00005      mov	r0, r5
0x3ffca47c:  e8bd81f0      pop	{r4, r5, r6, r7, r8, pc}

----------------
IN: 
0x3ffc6890:  e2504000      subs	r4, r0, #0	; 0x0
0x3ffc6894:  1affffae      bne	0x3ffc6754

----------------
IN: 
0x3ffc6898:  e1a00008      mov	r0, r8
0x3ffc689c:  eaffffd1      b	0x3ffc67e8

----------------
IN: 
0x3ffc67e8:  e59f1bd8      ldr	r1, [pc, #3032]	; 0x3ffc73c8
0x3ffc67ec:  e24b2d11      sub	r2, fp, #1088	; 0x440
0x3ffc67f0:  e2422004      sub	r2, r2, #4	; 0x4
0x3ffc67f4:  e50b0434      str	r0, [fp, #-1076]
0x3ffc67f8:  e08f1001      add	r1, pc, r1
0x3ffc67fc:  e242000c      sub	r0, r2, #12	; 0xc
0x3ffc6800:  ebfff9c0      bl	0x3ffc4f08

----------------
IN: 
0x3ffc4f08:  e28fc600      add	ip, pc, #0	; 0x0
0x3ffc4f0c:  e28cca3a      add	ip, ip, #237568	; 0x3a000
0x3ffc4f10:  e5bcf0fc      ldr	pc, [ip, #252]!

----------------
IN: 
0x3ffdb98c:  e92d4030      push	{r4, r5, lr}
0x3ffdb990:  e59f50c0      ldr	r5, [pc, #192]	; 0x3ffdba58
0x3ffdb994:  e24ddf6b      sub	sp, sp, #428	; 0x1ac
0x3ffdb998:  e08f5005      add	r5, pc, r5
0x3ffdb99c:  e5953000      ldr	r3, [r5]
0x3ffdb9a0:  e58d1008      str	r1, [sp, #8]
0x3ffdb9a4:  e58d3004      str	r3, [sp, #4]
0x3ffdb9a8:  e2503000      subs	r3, r0, #0	; 0x0
0x3ffdb9ac:  e58d3000      str	r3, [sp]
0x3ffdb9b0:  e58d200c      str	r2, [sp, #12]
0x3ffdb9b4:  0a000018      beq	0x3ffdba1c

----------------
IN: 
0x3ffdb9b8:  e28d3014      add	r3, sp, #20	; 0x14
0x3ffdb9bc:  e59d2000      ldr	r2, [sp]
0x3ffdb9c0:  e58d301c      str	r3, [sp, #28]
0x3ffdb9c4:  e3a01000      mov	r1, #0	; 0x0
0x3ffdb9c8:  e28d3018      add	r3, sp, #24	; 0x18
0x3ffdb9cc:  e28d0020      add	r0, sp, #32	; 0x20
0x3ffdb9d0:  e58d2018      str	r2, [sp, #24]
0x3ffdb9d4:  e5853000      str	r3, [r5]
0x3ffdb9d8:  eb0025fc      bl	0x3ffe51d0

----------------
IN: 
0x3ffe51d0:  e59fc054      ldr	ip, [pc, #84]	; 0x3ffe522c
0x3ffe51d4:  e79f200c      ldr	r2, [pc, ip]
0x3ffe51d8:  e1a0c000      mov	ip, r0
0x3ffe51dc:  e1a0300d      mov	r3, sp
0x3ffe51e0:  e0233002      eor	r3, r3, r2
0x3ffe51e4:  e48c3004      str	r3, [ip], #4
0x3ffe51e8:  e02e3002      eor	r3, lr, r2
0x3ffe51ec:  e48c3004      str	r3, [ip], #4
0x3ffe51f0:  e8ac0ff0      stmia	ip!, {r4, r5, r6, r7, r8, r9, sl, fp}
0x3ffe51f4:  e59f3034      ldr	r3, [pc, #52]	; 0x3ffe5230
0x3ffe51f8:  e79f2003      ldr	r2, [pc, r3]
0x3ffe51fc:  e3120040      tst	r2, #64	; 0x40
0x3ffe5200:  0a000000      beq	0x3ffe5208

----------------
IN: 
0x3ffe5204:  ecac8b10      vstmia	ip!, {d8-d15}
0x3ffe5208:  e3120c02      tst	r2, #512	; 0x200
0x3ffe520c:  0a000005      beq	0x3ffe5228

----------------
IN: 
0x3ffe5228:  eaffdd0f      b	0x3ffdc66c

----------------
IN: 
0x3ffdc66c:  e3a02000      mov	r2, #0	; 0x0
0x3ffdc670:  e1a03000      mov	r3, r0
0x3ffdc674:  e1a00002      mov	r0, r2
0x3ffdc678:  e5832100      str	r2, [r3, #256]
0x3ffdc67c:  e12fff1e      bx	lr

----------------
IN: 
0x3ffdb9dc:  e2504000      subs	r4, r0, #0	; 0x0
0x3ffdb9e0:  1a000016      bne	0x3ffdba40

----------------
IN: 
0x3ffdb9e4:  e59d3008      ldr	r3, [sp, #8]
0x3ffdb9e8:  e59d000c      ldr	r0, [sp, #12]
0x3ffdb9ec:  e12fff33      blx	r3

----------------
IN: 
0x3ffc64bc:  e92d4010      push	{r4, lr}
0x3ffc64c0:  e1a04000      mov	r4, r0
0x3ffc64c4:  e5900000      ldr	r0, [r0]
0x3ffc64c8:  e24dd008      sub	sp, sp, #8	; 0x8
0x3ffc64cc:  e5903018      ldr	r3, [r0, #24]
0x3ffc64d0:  e5941008      ldr	r1, [r4, #8]
0x3ffc64d4:  e5d02198      ldrb	r2, [r0, #408]
0x3ffc64d8:  e58d3004      str	r3, [sp, #4]
0x3ffc64dc:  e5943004      ldr	r3, [r4, #4]
0x3ffc64e0:  e2122003      ands	r2, r2, #3	; 0x3
0x3ffc64e4:  e58d1000      str	r1, [sp]
0x3ffc64e8:  03a02001      moveq	r2, #1	; 0x1
0x3ffc64ec:  e5941010      ldr	r1, [r4, #16]
0x3ffc64f0:  eb0018f4      bl	0x3ffcc8c8

----------------
IN: 
0x3ffcc8c8:  e92d4ff0      push	{r4, r5, r6, r7, r8, r9, sl, fp, lr}
0x3ffcc8cc:  e24ddf95      sub	sp, sp, #596	; 0x254
0x3ffcc8d0:  e59d527c      ldr	r5, [sp, #636]
0x3ffcc8d4:  e58d301c      str	r3, [sp, #28]
0x3ffcc8d8:  e3550000      cmp	r5, #0	; 0x0
0x3ffcc8dc:  ba000289      blt	0x3ffcd308

----------------
IN: 
0x3ffcc8e0:  e1a08002      mov	r8, r2
0x3ffcc8e4:  e59f2a5c      ldr	r2, [pc, #2652]	; 0x3ffcd348
0x3ffcc8e8:  e08f2002      add	r2, pc, r2
0x3ffcc8ec:  e5923580      ldr	r3, [r2, #1408]
0x3ffcc8f0:  e1530005      cmp	r3, r5
0x3ffcc8f4:  9a00028b      bls	0x3ffcd328

----------------
IN: 
0x3ffcc8f8:  e0853105      add	r3, r5, r5, lsl #2
0x3ffcc8fc:  e0853083      add	r3, r5, r3, lsl #1
0x3ffcc900:  e7929183      ldr	r9, [r2, r3, lsl #3]
0x3ffcc904:  e1a03105      lsl	r3, r5, #2
0x3ffcc908:  e3590000      cmp	r9, #0	; 0x0
0x3ffcc90c:  e1a06000      mov	r6, r0
0x3ffcc910:  e1a04001      mov	r4, r1
0x3ffcc914:  e58d3018      str	r3, [sp, #24]
0x3ffcc918:  0a000038      beq	0x3ffcca00

----------------
IN: 
0x3ffcc91c:  e59f7a28      ldr	r7, [pc, #2600]	; 0x3ffcd34c
0x3ffcc920:  e59fba28      ldr	fp, [pc, #2600]	; 0x3ffcd350
0x3ffcc924:  e08f7007      add	r7, pc, r7
0x3ffcc928:  e08fb00b      add	fp, pc, fp
0x3ffcc92c:  ea000002      b	0x3ffcc93c

----------------
IN: 
0x3ffcc93c:  e5d9319a      ldrb	r3, [r9, #410]
0x3ffcc940:  e5d92199      ldrb	r2, [r9, #409]
0x3ffcc944:  e1a030a3      lsr	r3, r3, #1
0x3ffcc948:  e18332a2      orr	r3, r3, r2, lsr #5
0x3ffcc94c:  e3130001      tst	r3, #1	; 0x1
0x3ffcc950:  1afffff6      bne	0x3ffcc930

----------------
IN: 
0x3ffcc954:  e1a01009      mov	r1, r9
0x3ffcc958:  e1a00004      mov	r0, r4
0x3ffcc95c:  eb000d18      bl	0x3ffcfdc4

----------------
IN: 
0x3ffcfdc4:  e92d4070      push	{r4, r5, r6, lr}
0x3ffcfdc8:  e1a04001      mov	r4, r1
0x3ffcfdcc:  e5911004      ldr	r1, [r1, #4]
0x3ffcfdd0:  e1a05000      mov	r5, r0
0x3ffcfdd4:  eb0055d4      bl	0x3ffe552c

----------------
IN: 
0x3ffcfdd8:  e3500000      cmp	r0, #0	; 0x0
0x3ffcfddc:  0a00000e      beq	0x3ffcfe1c

----------------
IN: 
0x3ffcfde0:  e594401c      ldr	r4, [r4, #28]
0x3ffcfde4:  e3540000      cmp	r4, #0	; 0x0
0x3ffcfde8:  1a000006      bne	0x3ffcfe08

----------------
IN: 
0x3ffcfe08:  e1a00005      mov	r0, r5
0x3ffcfe0c:  e5941000      ldr	r1, [r4]
0x3ffcfe10:  eb0055c5      bl	0x3ffe552c

----------------
IN: 
0x3ffcfe14:  e3500000      cmp	r0, #0	; 0x0
0x3ffcfe18:  1afffff4      bne	0x3ffcfdf0

----------------
IN: 
0x3ffcfdf0:  e5944004      ldr	r4, [r4, #4]
0x3ffcfdf4:  e3e0ca0f      mvn	ip, #61440	; 0xf000
0x3ffcfdf8:  e1a0e00f      mov	lr, pc
0x3ffcfdfc:  e24cf05f      sub	pc, ip, #95	; 0x5f

----------------
IN: 
0x3ffcfe00:  e3540000      cmp	r4, #0	; 0x0
0x3ffcfe04:  0a000006      beq	0x3ffcfe24

----------------
IN: 
0x3ffcfe24:  e3a00000      mov	r0, #0	; 0x0
0x3ffcfe28:  e8bd8070      pop	{r4, r5, r6, pc}

----------------
IN: 
0x3ffcc960:  e3500000      cmp	r0, #0	; 0x0
0x3ffcc964:  1a000022      bne	0x3ffcc9f4

----------------
IN: 
0x3ffcc968:  e5d93199      ldrb	r3, [r9, #409]
0x3ffcc96c:  e3130010      tst	r3, #16	; 0x10
0x3ffcc970:  1affffee      bne	0x3ffcc930

----------------
IN: 
0x3ffcc974:  e5993058      ldr	r3, [r9, #88]
0x3ffcc978:  e3530000      cmp	r3, #0	; 0x0
0x3ffcc97c:  0affffeb      beq	0x3ffcc930

----------------
IN: 
0x3ffcc930:  e599900c      ldr	r9, [r9, #12]
0x3ffcc934:  e3590000      cmp	r9, #0	; 0x0
0x3ffcc938:  0a000030      beq	0x3ffcca00

----------------
IN: 
0x3ffcc980:  e593a004      ldr	sl, [r3, #4]
0x3ffcc984:  e5992034      ldr	r2, [r9, #52]
0x3ffcc988:  e5d9319a      ldrb	r3, [r9, #410]
0x3ffcc98c:  e5922004      ldr	r2, [r2, #4]
0x3ffcc990:  e2133020      ands	r3, r3, #32	; 0x20
0x3ffcc994:  15993000      ldrne	r3, [r9]
0x3ffcc998:  e08aa002      add	sl, sl, r2
0x3ffcc99c:  e08aa003      add	sl, sl, r3
0x3ffcc9a0:  e1a0100a      mov	r1, sl
0x3ffcc9a4:  e1a00004      mov	r0, r4
0x3ffcc9a8:  eb0062df      bl	0x3ffe552c

----------------
IN: 
0x3ffcc9ac:  e3500000      cmp	r0, #0	; 0x0
0x3ffcc9b0:  0a000009      beq	0x3ffcc9dc

----------------
IN: 
0x3ffcc9b4:  e1a01007      mov	r1, r7
0x3ffcc9b8:  e1a00004      mov	r0, r4
0x3ffcc9bc:  eb0062da      bl	0x3ffe552c

----------------
IN: 
0x3ffcc9c0:  e3500000      cmp	r0, #0	; 0x0
0x3ffcc9c4:  1affffd9      bne	0x3ffcc930

----------------
IN: 
0x3ffcca00:  e2562000      subs	r2, r6, #0	; 0x0
0x3ffcca04:  13a02001      movne	r2, #1	; 0x1
0x3ffcca08:  e59f3944      ldr	r3, [pc, #2372]	; 0x3ffcd354
0x3ffcca0c:  e58d2028      str	r2, [sp, #40]
0x3ffcca10:  e08f3003      add	r3, pc, r3
0x3ffcca14:  e5933000      ldr	r3, [r3]
0x3ffcca18:  e0123323      ands	r3, r2, r3, lsr #6
0x3ffcca1c:  e59d3278      ldr	r3, [sp, #632]
0x3ffcca20:  e2033201      and	r3, r3, #268435456	; 0x10000000
0x3ffcca24:  e58d3020      str	r3, [sp, #32]
0x3ffcca28:  1a000166      bne	0x3ffccfc8

----------------
IN: 
0x3ffcca2c:  e59f3924      ldr	r3, [pc, #2340]	; 0x3ffcd358
0x3ffcca30:  e08f3003      add	r3, pc, r3
0x3ffcca34:  e59331e8      ldr	r3, [r3, #488]
0x3ffcca38:  e3530000      cmp	r3, #0	; 0x0
0x3ffcca3c:  1a000150      bne	0x3ffccf84

----------------
IN: 
0x3ffcca40:  e58d3024      str	r3, [sp, #36]
0x3ffcca44:  e3a03000      mov	r3, #0	; 0x0
0x3ffcca48:  e3a0102f      mov	r1, #47	; 0x2f
0x3ffcca4c:  e1a00004      mov	r0, r4
0x3ffcca50:  e5cd303f      strb	r3, [sp, #63]
0x3ffcca54:  eb006277      bl	0x3ffe5438

----------------
IN: 
0x3ffcca58:  e3500000      cmp	r0, #0	; 0x0
0x3ffcca5c:  0a000061      beq	0x3ffccbe8

----------------
IN: 
0x3ffccbe8:  e1a00004      mov	r0, r4
0x3ffccbec:  eb0062bb      bl	0x3ffe56e0

----------------
IN: 
0x3ffe56f4:  e38220ff      orr	r2, r2, #255	; 0xff
0x3ffe56f8:  e2533001      subs	r3, r3, #1	; 0x1
0x3ffe56fc:  c3822cff      orrgt	r2, r2, #65280	; 0xff00
0x3ffe5700:  e2533001      subs	r3, r3, #1	; 0x1
0x3ffe5704:  c38228ff      orrgt	r2, r2, #16711680	; 0xff0000
0x3ffe5708:  e31200ff      tst	r2, #255	; 0xff
0x3ffe570c:  13120cff      tstne	r2, #65280	; 0xff00
0x3ffe5710:  131208ff      tstne	r2, #16711680	; 0xff0000
0x3ffe5714:  131204ff      tstne	r2, #-16777216	; 0xff000000
0x3ffe5718:  12800004      addne	r0, r0, #4	; 0x4
0x3ffe571c:  14912004      ldrne	r2, [r1], #4
0x3ffe5720:  1afffff8      bne	0x3ffe5708

----------------
IN: 
0x3ffccbf0:  e59f3778      ldr	r3, [pc, #1912]	; 0x3ffcd370
0x3ffccbf4:  e08f3003      add	r3, pc, r3
0x3ffccbf8:  e5933000      ldr	r3, [r3]
0x3ffccbfc:  e3130001      tst	r3, #1	; 0x1
0x3ffccc00:  e2803001      add	r3, r0, #1	; 0x1
0x3ffccc04:  e58d3030      str	r3, [sp, #48]
0x3ffccc08:  1a000112      bne	0x3ffcd058

----------------
IN: 
0x3ffccc0c:  e3560000      cmp	r6, #0	; 0x0
0x3ffccc10:  0a00015f      beq	0x3ffcd194

----------------
IN: 
0x3ffccc14:  e5963094      ldr	r3, [r6, #148]
0x3ffccc18:  e3530000      cmp	r3, #0	; 0x0
0x3ffccc1c:  0a000050      beq	0x3ffccd64

----------------
IN: 
0x3ffccd64:  e1a01003      mov	r1, r3
0x3ffccd68:  e59fb618      ldr	fp, [pc, #1560]	; 0x3ffcd388
0x3ffccd6c:  e59f3618      ldr	r3, [pc, #1560]	; 0x3ffcd38c
0x3ffccd70:  e28d203f      add	r2, sp, #63	; 0x3f
0x3ffccd74:  e79fa003      ldr	sl, [pc, r3]
0x3ffccd78:  e1a07006      mov	r7, r6
0x3ffccd7c:  e58d8034      str	r8, [sp, #52]
0x3ffccd80:  e59d9030      ldr	r9, [sp, #48]
0x3ffccd84:  e1a08001      mov	r8, r1
0x3ffccd88:  e08fb00b      add	fp, pc, fp
0x3ffccd8c:  e58d202c      str	r2, [sp, #44]
0x3ffccd90:  e58d527c      str	r5, [sp, #636]
0x3ffccd94:  ea000002      b	0x3ffccda4

----------------
IN: 
0x3ffccda4:  e2875f69      add	r5, r7, #420	; 0x1a4
0x3ffccda8:  e1a0300b      mov	r3, fp
0x3ffccdac:  e3a0200f      mov	r2, #15	; 0xf
0x3ffccdb0:  e1a01005      mov	r1, r5
0x3ffccdb4:  e1a00007      mov	r0, r7
0x3ffccdb8:  ebfff7be      bl	0x3ffcacb8

----------------
IN: 
0x3ffcacb8:  e92d4010      push	{r4, lr}
0x3ffcacbc:  e591e000      ldr	lr, [r1]
0x3ffcacc0:  e37e0001      cmn	lr, #1	; 0x1
0x3ffcacc4:  0a000014      beq	0x3ffcad1c

----------------
IN: 
0x3ffcad1c:  e3a00000      mov	r0, #0	; 0x0
0x3ffcad20:  e8bd8010      pop	{r4, pc}

----------------
IN: 
0x3ffccdbc:  e3500000      cmp	r0, #0	; 0x0
0x3ffccdc0:  0afffff4      beq	0x3ffccd98

----------------
IN: 
0x3ffccd98:  e5977170      ldr	r7, [r7, #368]
0x3ffccd9c:  e3570000      cmp	r7, #0	; 0x0
0x3ffccda0:  0a000023      beq	0x3ffcce34

----------------
IN: 
0x3ffcce34:  e1a03008      mov	r3, r8
0x3ffcce38:  e3530000      cmp	r3, #0	; 0x0
0x3ffcce3c:  e59d8034      ldr	r8, [sp, #52]
0x3ffcce40:  e59d527c      ldr	r5, [sp, #636]
0x3ffcce44:  1a000012      bne	0x3ffcce94

----------------
IN: 
0x3ffcce48:  e35a0000      cmp	sl, #0	; 0x0
0x3ffcce4c:  0a000010      beq	0x3ffcce94

----------------
IN: 
0x3ffcce50:  e5da3198      ldrb	r3, [sl, #408]
0x3ffcce54:  e2033003      and	r3, r3, #3	; 0x3
0x3ffcce58:  e3530002      cmp	r3, #2	; 0x2
0x3ffcce5c:  e59d3278      ldr	r3, [sp, #632]
0x3ffcce60:  e203b302      and	fp, r3, #134217728	; 0x8000000
0x3ffcce64:  0a00000a      beq	0x3ffcce94

----------------
IN: 
0x3ffcce68:  e59f3524      ldr	r3, [pc, #1316]	; 0x3ffcd394
0x3ffcce6c:  e28a7f69      add	r7, sl, #420	; 0x1a4
0x3ffcce70:  e3a0200f      mov	r2, #15	; 0xf
0x3ffcce74:  e1a01007      mov	r1, r7
0x3ffcce78:  e1a0000a      mov	r0, sl
0x3ffcce7c:  e08f3003      add	r3, pc, r3
0x3ffcce80:  ebfff78c      bl	0x3ffcacb8

----------------
IN: 
0x3ffcce84:  e3500000      cmp	r0, #0	; 0x0
0x3ffcce88:  1a0000a1      bne	0x3ffcd114

----------------
IN: 
0x3ffcce8c:  e35b0000      cmp	fp, #0	; 0x0
0x3ffcce90:  1a0000db      bne	0x3ffcd204

----------------
IN: 
0x3ffcce94:  e59f34fc      ldr	r3, [pc, #1276]	; 0x3ffcd398
0x3ffcce98:  e08f3003      add	r3, pc, r3
0x3ffcce9c:  e593200c      ldr	r2, [r3, #12]
0x3ffccea0:  e3720001      cmn	r2, #1	; 0x1
0x3ffccea4:  0a00005c      beq	0x3ffcd01c

----------------
IN: 
0x3ffcd01c:  e3560000      cmp	r6, #0	; 0x0
0x3ffcd020:  0affff23      beq	0x3ffcccb4

----------------
IN: 
0x3ffcd024:  eaffff19      b	0x3ffccc90

----------------
IN: 
0x3ffccc90:  e59f36e4      ldr	r3, [pc, #1764]	; 0x3ffcd37c
0x3ffccc94:  e2867f7e      add	r7, r6, #504	; 0x1f8
0x3ffccc98:  e3a0201d      mov	r2, #29	; 0x1d
0x3ffccc9c:  e1a01007      mov	r1, r7
0x3ffccca0:  e1a00006      mov	r0, r6
0x3ffccca4:  e08f3003      add	r3, pc, r3
0x3ffccca8:  ebfff802      bl	0x3ffcacb8

----------------
IN: 
0x3ffcccac:  e3500000      cmp	r0, #0	; 0x0
0x3ffcccb0:  1a0000e3      bne	0x3ffcd044

----------------
IN: 
0x3ffcccb4:  e59d3278      ldr	r3, [sp, #632]
0x3ffcccb8:  e3130301      tst	r3, #67108864	; 0x4000000
0x3ffcccbc:  e3a03000      mov	r3, #0	; 0x0
0x3ffcccc0:  e58d3040      str	r3, [sp, #64]
0x3ffcccc4:  1a00012c      bne	0x3ffcd17c

----------------
IN: 
0x3ffcccc8:  e59f36b0      ldr	r3, [pc, #1712]	; 0x3ffcd380
0x3ffccccc:  e08f3003      add	r3, pc, r3
0x3ffcccd0:  e5933018      ldr	r3, [r3, #24]
0x3ffcccd4:  e3530000      cmp	r3, #0	; 0x0
0x3ffcccd8:  1a00008e      bne	0x3ffccf18

----------------
IN: 
0x3ffcccdc:  e1a00004      mov	r0, r4
0x3ffccce0:  eb003032      bl	0x3ffd8db0

----------------
IN: 
0x3ffd8db0:  e92d49f0      push	{r4, r5, r6, r7, r8, fp, lr}
0x3ffd8db4:  e28db018      add	fp, sp, #24	; 0x18
0x3ffd8db8:  e24dd00c      sub	sp, sp, #12	; 0xc
0x3ffd8dbc:  e59f32dc      ldr	r3, [pc, #732]	; 0x3ffd90a0
0x3ffd8dc0:  e1a06000      mov	r6, r0
0x3ffd8dc4:  e08f3003      add	r3, pc, r3
0x3ffd8dc8:  e5933000      ldr	r3, [r3]
0x3ffd8dcc:  e3130001      tst	r3, #1	; 0x1
0x3ffd8dd0:  1a00009b      bne	0x3ffd9044

----------------
IN: 
0x3ffd8dd4:  e59f52c8      ldr	r5, [pc, #712]	; 0x3ffd90a4
0x3ffd8dd8:  e08f5005      add	r5, pc, r5
0x3ffd8ddc:  e5954008      ldr	r4, [r5, #8]
0x3ffd8de0:  e3540000      cmp	r4, #0	; 0x0
0x3ffd8de4:  0a00003b      beq	0x3ffd8ed8

----------------
IN: 
0x3ffd8ed8:  e59f01d4      ldr	r0, [pc, #468]	; 0x3ffd90b4
0x3ffd8edc:  e3a02001      mov	r2, #1	; 0x1
0x3ffd8ee0:  e08f0000      add	r0, pc, r0
0x3ffd8ee4:  e285100c      add	r1, r5, #12	; 0xc
0x3ffd8ee8:  ebffdb93      bl	0x3ffcfd3c

----------------
IN: 
0x3ffcfd3c:  e92d4070      push	{r4, r5, r6, lr}
0x3ffcfd40:  e1a05001      mov	r5, r1
0x3ffcfd44:  e24dd078      sub	sp, sp, #120	; 0x78
0x3ffcfd48:  e3a01702      mov	r1, #524288	; 0x80000
0x3ffcfd4c:  e1a06002      mov	r6, r2
0x3ffcfd50:  eb005345      bl	0x3ffe4a6c

----------------
IN: 
0x3ffe4a6c:  e92d000e      push	{r1, r2, r3}
0x3ffe4a70:  e52d7004      push	{r7}		; (str r7, [sp, #-4]!)
0x3ffe4a74:  e24dd008      sub	sp, sp, #8	; 0x8
0x3ffe4a78:  e59d200c      ldr	r2, [sp, #12]
0x3ffe4a7c:  e1a01000      mov	r1, r0
0x3ffe4a80:  e2123040      ands	r3, r2, #64	; 0x40
0x3ffe4a84:  1a00000c      bne	0x3ffe4abc

----------------
IN: 
0x3ffe4a88:  e59f0060      ldr	r0, [pc, #96]	; 0x3ffe4af0
0x3ffe4a8c:  e1d00002      bics	r0, r0, r2
0x3ffe4a90:  0a000009      beq	0x3ffe4abc

----------------
IN: 
0x3ffe4a94:  e3e00063      mvn	r0, #99	; 0x63
0x3ffe4a98:  e59f7054      ldr	r7, [pc, #84]	; 0x3ffe4af4
0x3ffe4a9c:  e3822802      orr	r2, r2, #131072	; 0x20000
0x3ffe4aa0:  ef000000      svc	0x00000000

----------------
IN: 
0x3ffe4aa4:  e3700a01      cmn	r0, #4096	; 0x1000
0x3ffe4aa8:  8a000007      bhi	0x3ffe4acc

----------------
IN: 
0x3ffe4aac:  e28dd008      add	sp, sp, #8	; 0x8
0x3ffe4ab0:  e49d7004      pop	{r7}		; (ldr r7, [sp], #4)
0x3ffe4ab4:  e28dd00c      add	sp, sp, #12	; 0xc
0x3ffe4ab8:  e12fff1e      bx	lr

----------------
IN: 
0x3ffcfd54:  e2504000      subs	r4, r0, #0	; 0x0
0x3ffcfd58:  b3e05000      mvnlt	r5, #0	; 0x0
0x3ffcfd5c:  aa000002      bge	0x3ffcfd6c

----------------
IN: 
0x3ffcfd6c:  e28d1008      add	r1, sp, #8	; 0x8
0x3ffcfd70:  eb005141      bl	0x3ffe427c

----------------
IN: 
0x3ffe427c:  e3500000      cmp	r0, #0	; 0x0
0x3ffe4280:  e1a02001      mov	r2, r1
0x3ffe4284:  ba000003      blt	0x3ffe4298

----------------
IN: 
0x3ffe4288:  e59f1020      ldr	r1, [pc, #32]	; 0x3ffe42b0
0x3ffe428c:  e3a03a01      mov	r3, #4096	; 0x1000
0x3ffe4290:  e08f1001      add	r1, pc, r1
0x3ffe4294:  ea00003c      b	0x3ffe438c

----------------
IN: 
0x3ffe438c:  e1a0c003      mov	ip, r3
0x3ffe4390:  e92d4ff0      push	{r4, r5, r6, r7, r8, r9, sl, fp, lr}
0x3ffe4394:  e24ddf57      sub	sp, sp, #348	; 0x15c
0x3ffe4398:  e1a05002      mov	r5, r2
0x3ffe439c:  e1a0e000      mov	lr, r0
0x3ffe43a0:  e59f32fc      ldr	r3, [pc, #764]	; 0x3ffe46a4
0x3ffe43a4:  e59f72fc      ldr	r7, [pc, #764]	; 0x3ffe46a8
0x3ffe43a8:  e28d4058      add	r4, sp, #88	; 0x58
0x3ffe43ac:  e38c2b02      orr	r2, ip, #2048	; 0x800
0x3ffe43b0:  ef000000      svc	0x00000000

----------------
IN: 
0x3ffe43b4:  e2506000      subs	r6, r0, #0	; 0x0
0x3ffe43b8:  1a000070      bne	0x3ffe4580

----------------
IN: 
0x3ffe43bc:  e1d431bc      ldrh	r3, [r4, #28]
0x3ffe43c0:  e59d80e4      ldr	r8, [sp, #228]
0x3ffe43c4:  e59d70e0      ldr	r7, [sp, #224]
0x3ffe43c8:  e58d300c      str	r3, [sp, #12]
0x3ffe43cc:  e59f32d8      ldr	r3, [pc, #728]	; 0x3ffe46ac
0x3ffe43d0:  e59d90dc      ldr	r9, [sp, #220]
0x3ffe43d4:  e59d40d8      ldr	r4, [sp, #216]
0x3ffe43d8:  e003c407      and	ip, r3, r7, lsl #8
0x3ffe43dc:  e208e0ff      and	lr, r8, #255	; 0xff
0x3ffe43e0:  e18ec00c      orr	ip, lr, ip
0x3ffe43e4:  e0033404      and	r3, r3, r4, lsl #8
0x3ffe43e8:  e58dc04c      str	ip, [sp, #76]
0x3ffe43ec:  e209c0ff      and	ip, r9, #255	; 0xff
0x3ffe43f0:  e18ce003      orr	lr, ip, r3
0x3ffe43f4:  e59da068      ldr	sl, [sp, #104]
0x3ffe43f8:  e59d30a0      ldr	r3, [sp, #160]
0x3ffe43fc:  e59db06c      ldr	fp, [sp, #108]
0x3ffe4400:  e59dc05c      ldr	ip, [sp, #92]
0x3ffe4404:  e58da010      str	sl, [sp, #16]
0x3ffe4408:  e58d3054      str	r3, [sp, #84]
0x3ffe440c:  e59da070      ldr	sl, [sp, #112]
0x3ffe4410:  e59d30d0      ldr	r3, [sp, #208]
0x3ffe4414:  e3a02070      mov	r2, #112	; 0x70
0x3ffe4418:  e1a01006      mov	r1, r6
0x3ffe441c:  e1a00005      mov	r0, r5
0x3ffe4420:  e58de050      str	lr, [sp, #80]
0x3ffe4424:  e58d3048      str	r3, [sp, #72]
0x3ffe4428:  e58db014      str	fp, [sp, #20]
0x3ffe442c:  e58da020      str	sl, [sp, #32]
0x3ffe4430:  e58dc024      str	ip, [sp, #36]
0x3ffe4434:  e59da0c0      ldr	sl, [sp, #192]
0x3ffe4438:  e28dc078      add	ip, sp, #120	; 0x78
0x3ffe443c:  e89c1800      ldm	ip, {fp, ip}
0x3ffe4440:  e88d1800      stm	sp, {fp, ip}
0x3ffe4444:  e28dc080      add	ip, sp, #128	; 0x80
0x3ffe4448:  e89c1800      ldm	ip, {fp, ip}
0x3ffe444c:  e58db018      str	fp, [sp, #24]
0x3ffe4450:  e58dc01c      str	ip, [sp, #28]
0x3ffe4454:  e28dc088      add	ip, sp, #136	; 0x88
0x3ffe4458:  e89c1800      ldm	ip, {fp, ip}
0x3ffe445c:  e58db028      str	fp, [sp, #40]
0x3ffe4460:  e58dc02c      str	ip, [sp, #44]
0x3ffe4464:  e28dc098      add	ip, sp, #152	; 0x98
0x3ffe4468:  e89c1800      ldm	ip, {fp, ip}
0x3ffe446c:  e58db030      str	fp, [sp, #48]
0x3ffe4470:  e58dc034      str	ip, [sp, #52]
0x3ffe4474:  e28dc0c8      add	ip, sp, #200	; 0xc8
0x3ffe4478:  e89c1800      ldm	ip, {fp, ip}
0x3ffe447c:  e58db038      str	fp, [sp, #56]
0x3ffe4480:  e58dc03c      str	ip, [sp, #60]
0x3ffe4484:  e28dc0b8      add	ip, sp, #184	; 0xb8
0x3ffe4488:  e89c1800      ldm	ip, {fp, ip}
0x3ffe448c:  e58db040      str	fp, [sp, #64]
0x3ffe4490:  e58dc044      str	ip, [sp, #68]
0x3ffe4494:  eb000711      bl	0x3ffe60e0

----------------
IN: 
0x3ffe4498:  e89d1800      ldm	sp, {fp, ip}
0x3ffe449c:  e59d300c      ldr	r3, [sp, #12]
0x3ffe44a0:  e3c77eff      bic	r7, r7, #4080	; 0xff0
0x3ffe44a4:  e5853010      str	r3, [r5, #16]
0x3ffe44a8:  e59d3010      ldr	r3, [sp, #16]
0x3ffe44ac:  e585b008      str	fp, [r5, #8]
0x3ffe44b0:  e585c00c      str	ip, [r5, #12]
0x3ffe44b4:  e28dc018      add	ip, sp, #24	; 0x18
0x3ffe44b8:  e89c1800      ldm	ip, {fp, ip}
0x3ffe44bc:  e5853014      str	r3, [r5, #20]
0x3ffe44c0:  e59d3020      ldr	r3, [sp, #32]
0x3ffe44c4:  e585b028      str	fp, [r5, #40]
0x3ffe44c8:  e585c02c      str	ip, [r5, #44]
0x3ffe44cc:  e28dc028      add	ip, sp, #40	; 0x28
0x3ffe44d0:  e89c1800      ldm	ip, {fp, ip}
0x3ffe44d4:  e585301c      str	r3, [r5, #28]
0x3ffe44d8:  e59d3024      ldr	r3, [sp, #36]
0x3ffe44dc:  e585b038      str	fp, [r5, #56]
0x3ffe44e0:  e585c03c      str	ip, [r5, #60]
0x3ffe44e4:  e28dc030      add	ip, sp, #48	; 0x30
0x3ffe44e8:  e89c1800      ldm	ip, {fp, ip}
0x3ffe44ec:  e5853030      str	r3, [r5, #48]
0x3ffe44f0:  e59d3054      ldr	r3, [sp, #84]
0x3ffe44f4:  e585b040      str	fp, [r5, #64]
0x3ffe44f8:  e585c044      str	ip, [r5, #68]
0x3ffe44fc:  e28dc038      add	ip, sp, #56	; 0x38
0x3ffe4500:  e89c1800      ldm	ip, {fp, ip}
0x3ffe4504:  e5853048      str	r3, [r5, #72]
0x3ffe4508:  e59d3048      ldr	r3, [sp, #72]
0x3ffe450c:  e585b050      str	fp, [r5, #80]
0x3ffe4510:  e585c054      str	ip, [r5, #84]
0x3ffe4514:  e28dc040      add	ip, sp, #64	; 0x40
0x3ffe4518:  e89c1800      ldm	ip, {fp, ip}
0x3ffe451c:  e5853058      str	r3, [r5, #88]
0x3ffe4520:  e59f3188      ldr	r3, [pc, #392]	; 0x3ffe46b0
0x3ffe4524:  e585b060      str	fp, [r5, #96]
0x3ffe4528:  e585c064      str	ip, [r5, #100]
0x3ffe452c:  e59de050      ldr	lr, [sp, #80]
0x3ffe4530:  e59dc04c      ldr	ip, [sp, #76]
0x3ffe4534:  e3c44eff      bic	r4, r4, #4080	; 0xff0
0x3ffe4538:  e3c7700f      bic	r7, r7, #15	; 0xf
0x3ffe453c:  e59db014      ldr	fp, [sp, #20]
0x3ffe4540:  e1877a28      orr	r7, r7, r8, lsr #20
0x3ffe4544:  e3c4400f      bic	r4, r4, #15	; 0xf
0x3ffe4548:  e0038608      and	r8, r3, r8, lsl #12
0x3ffe454c:  e0033609      and	r3, r3, r9, lsl #12
0x3ffe4550:  e1844a29      orr	r4, r4, r9, lsr #20
0x3ffe4554:  e188800c      orr	r8, r8, ip
0x3ffe4558:  e183300e      orr	r3, r3, lr
0x3ffe455c:  e585b018      str	fp, [r5, #24]
0x3ffe4560:  e585a068      str	sl, [r5, #104]
0x3ffe4564:  e5857004      str	r7, [r5, #4]
0x3ffe4568:  e5854024      str	r4, [r5, #36]
0x3ffe456c:  e5858000      str	r8, [r5]
0x3ffe4570:  e5853020      str	r3, [r5, #32]
0x3ffe4574:  e1a00006      mov	r0, r6
0x3ffe4578:  e28ddf57      add	sp, sp, #348	; 0x15c
0x3ffe457c:  e8bd8ff0      pop	{r4, r5, r6, r7, r8, r9, sl, fp, pc}

----------------
IN: 
0x3ffcfd74:  e3500000      cmp	r0, #0	; 0x0
0x3ffcfd78:  ba000003      blt	0x3ffcfd8c

----------------
IN: 
0x3ffcfd7c:  e59d1030      ldr	r1, [sp, #48]
0x3ffcfd80:  e3510000      cmp	r1, #0	; 0x0
0x3ffcfd84:  e5851000      str	r1, [r5]
0x3ffcfd88:  1a000005      bne	0x3ffcfda4

----------------
IN: 
0x3ffcfda4:  e3a00000      mov	r0, #0	; 0x0
0x3ffcfda8:  e3a03002      mov	r3, #2	; 0x2
0x3ffcfdac:  e1a02006      mov	r2, r6
0x3ffcfdb0:  e58d4000      str	r4, [sp]
0x3ffcfdb4:  e58d0004      str	r0, [sp, #4]
0x3ffcfdb8:  eb005400      bl	0x3ffe4dc0

----------------
IN: 
0x3ffe4dc0:  e92d00b0      push	{r4, r5, r7}
0x3ffe4dc4:  e59d5010      ldr	r5, [sp, #16]
0x3ffe4dc8:  e1a0ca05      lsl	ip, r5, #20
0x3ffe4dcc:  e1a0ca2c      lsr	ip, ip, #20
0x3ffe4dd0:  e35c0000      cmp	ip, #0	; 0x0
0x3ffe4dd4:  1a000008      bne	0x3ffe4dfc

----------------
IN: 
0x3ffe4dd8:  e3a070c0      mov	r7, #192	; 0xc0
0x3ffe4ddc:  e59d400c      ldr	r4, [sp, #12]
0x3ffe4de0:  e1a05625      lsr	r5, r5, #12
0x3ffe4de4:  ef000000      svc	0x00000000

----------------
IN: 
0x3ffe4de8:  e3700a01      cmn	r0, #4096	; 0x1000
0x3ffe4dec:  e1a03000      mov	r3, r0
0x3ffe4df0:  8a000008      bhi	0x3ffe4e18

----------------
IN: 
0x3ffe4df4:  e8bd00b0      pop	{r4, r5, r7}
0x3ffe4df8:  e12fff1e      bx	lr

----------------
IN: 
0x3ffcfdbc:  e1a05000      mov	r5, r0
0x3ffcfdc0:  eafffff2      b	0x3ffcfd90

----------------
IN: 
0x3ffcfd90:  e1a00004      mov	r0, r4
0x3ffcfd94:  eb0052aa      bl	0x3ffe4844

----------------
IN: 
0x3ffe4844:  e52d7004      push	{r7}		; (str r7, [sp, #-4]!)
0x3ffe4848:  e3a07006      mov	r7, #6	; 0x6
0x3ffe484c:  ef000000      svc	0x00000000

----------------
IN: 
0x3ffe4850:  e3700a01      cmn	r0, #4096	; 0x1000
0x3ffe4854:  8a000001      bhi	0x3ffe4860

----------------
IN: 
0x3ffe4858:  e49d7004      pop	{r7}		; (ldr r7, [sp], #4)
0x3ffe485c:  e12fff1e      bx	lr

----------------
IN: 
0x3ffcfd98:  e1a00005      mov	r0, r5
0x3ffcfd9c:  e28dd078      add	sp, sp, #120	; 0x78
0x3ffcfda0:  e8bd8070      pop	{r4, r5, r6, pc}

----------------
IN: 
0x3ffd8eec:  e3700001      cmn	r0, #1	; 0x1
0x3ffd8ef0:  e1a04000      mov	r4, r0
0x3ffd8ef4:  0afffff0      beq	0x3ffd8ebc

----------------
IN: 
0x3ffd8ef8:  e595700c      ldr	r7, [r5, #12]
0x3ffd8efc:  e3570030      cmp	r7, #48	; 0x30
0x3ffd8f00:  9affffe8      bls	0x3ffd8ea8

----------------
IN: 
0x3ffd8f04:  e59f11ac      ldr	r1, [pc, #428]	; 0x3ffd90b8
0x3ffd8f08:  e3a02014      mov	r2, #20	; 0x14
0x3ffd8f0c:  e08f1001      add	r1, pc, r1
0x3ffd8f10:  eb0032c9      bl	0x3ffe5a3c

----------------
IN: 
0x3ffe5a3c:  e92d4ff0      push	{r4, r5, r6, r7, r8, r9, sl, fp, lr}
0x3ffe5a40:  e352000f      cmp	r2, #15	; 0xf
0x3ffe5a44:  e1a0c000      mov	ip, r0
0x3ffe5a48:  e1a04001      mov	r4, r1
0x3ffe5a4c:  e24dd00c      sub	sp, sp, #12	; 0xc
0x3ffe5a50:  9a000027      bls	0x3ffe5af4

----------------
IN: 
0x3ffe5a54:  e3110003      tst	r1, #3	; 0x3
0x3ffe5a58:  e1a0e001      mov	lr, r1
0x3ffe5a5c:  0a000033      beq	0x3ffe5b30

----------------
IN: 
0x3ffe5b30:  e5918000      ldr	r8, [r1]
0x3ffe5b34:  e21c0003      ands	r0, ip, #3	; 0x3
0x3ffe5b38:  e1a01122      lsr	r1, r2, #2
0x3ffe5b3c:  e2013003      and	r3, r1, #3	; 0x3
0x3ffe5b40:  1a000016      bne	0x3ffe5ba0

----------------
IN: 
0x3ffe5b44:  e3530001      cmp	r3, #1	; 0x1
0x3ffe5b48:  e59c0000      ldr	r0, [ip]
0x3ffe5b4c:  0a00006b      beq	0x3ffe5d00

----------------
IN: 
0x3ffe5d00:  e2411001      sub	r1, r1, #1	; 0x1
0x3ffe5d04:  e28c3004      add	r3, ip, #4	; 0x4
0x3ffe5d08:  e28e4004      add	r4, lr, #4	; 0x4
0x3ffe5d0c:  e1500008      cmp	r0, r8
0x3ffe5d10:  e5935000      ldr	r5, [r3]
0x3ffe5d14:  e5946000      ldr	r6, [r4]
0x3ffe5d18:  0a00001a      beq	0x3ffe5d88

----------------
IN: 
0x3ffe5d88:  e1a08006      mov	r8, r6
0x3ffe5d8c:  e1a00005      mov	r0, r5
0x3ffe5d90:  eaffffcb      b	0x3ffe5cc4

----------------
IN: 
0x3ffe5cc4:  e1500008      cmp	r0, r8
0x3ffe5cc8:  e5945004      ldr	r5, [r4, #4]
0x3ffe5ccc:  e5936004      ldr	r6, [r3, #4]
0x3ffe5cd0:  0affff75      beq	0x3ffe5aac

----------------
IN: 
0x3ffe5aac:  e1560005      cmp	r6, r5
0x3ffe5ab0:  e5930008      ldr	r0, [r3, #8]
0x3ffe5ab4:  e5948008      ldr	r8, [r4, #8]
0x3ffe5ab8:  0a00002b      beq	0x3ffe5b6c

----------------
IN: 
0x3ffe5b6c:  e1500008      cmp	r0, r8
0x3ffe5b70:  e593600c      ldr	r6, [r3, #12]
0x3ffe5b74:  e594500c      ldr	r5, [r4, #12]
0x3ffe5b78:  0a000085      beq	0x3ffe5d94

----------------
IN: 
0x3ffe5d94:  e2511004      subs	r1, r1, #4	; 0x4
0x3ffe5d98:  0a00000a      beq	0x3ffe5dc8

----------------
IN: 
0x3ffe5dc8:  e1560005      cmp	r6, r5
0x3ffe5dcc:  0affff44      beq	0x3ffe5ae4

----------------
IN: 
0x3ffe5ae4:  e3c24003      bic	r4, r2, #3	; 0x3
0x3ffe5ae8:  e08cc004      add	ip, ip, r4
0x3ffe5aec:  e2022003      and	r2, r2, #3	; 0x3
0x3ffe5af0:  e084400e      add	r4, r4, lr
0x3ffe5af4:  e3520000      cmp	r2, #0	; 0x0
0x3ffe5af8:  0a00007e      beq	0x3ffe5cf8

----------------
IN: 
0x3ffe5cf8:  e1a00002      mov	r0, r2
0x3ffe5cfc:  eaffff63      b	0x3ffe5a90

----------------
IN: 
0x3ffe5a90:  e28dd00c      add	sp, sp, #12	; 0xc
0x3ffe5a94:  e8bd8ff0      pop	{r4, r5, r6, r7, r8, r9, sl, fp, pc}

----------------
IN: 
0x3ffd8f14:  e3500000      cmp	r0, #0	; 0x0
0x3ffd8f18:  1a000012      bne	0x3ffd8f68

----------------
IN: 
0x3ffd8f1c:  e59f2198      ldr	r2, [pc, #408]	; 0x3ffd90bc
0x3ffd8f20:  e2473030      sub	r3, r7, #48	; 0x30
0x3ffd8f24:  e0831392      umull	r1, r3, r2, r3
0x3ffd8f28:  e5942014      ldr	r2, [r4, #20]
0x3ffd8f2c:  e1520223      cmp	r2, r3, lsr #4
0x3ffd8f30:  8a00000c      bhi	0x3ffd8f68

----------------
IN: 
0x3ffd8f34:  e5d4301c      ldrb	r3, [r4, #28]
0x3ffd8f38:  e3530000      cmp	r3, #0	; 0x0
0x3ffd8f3c:  0a000052      beq	0x3ffd908c

----------------
IN: 
0x3ffd8f40:  e2033003      and	r3, r3, #3	; 0x3
0x3ffd8f44:  e3530002      cmp	r3, #2	; 0x2
0x3ffd8f48:  0a00004f      beq	0x3ffd908c

----------------
IN: 
0x3ffd908c:  e59f3058      ldr	r3, [pc, #88]	; 0x3ffd90ec
0x3ffd9090:  e08f3003      add	r3, pc, r3
0x3ffd9094:  e5834004      str	r4, [r3, #4]
0x3ffd9098:  e5834008      str	r4, [r3, #8]
0x3ffd909c:  eaffff53      b	0x3ffd8df0

----------------
IN: 
0x3ffd8df0:  e59f32b0      ldr	r3, [pc, #688]	; 0x3ffd90a8
0x3ffd8df4:  e08f3003      add	r3, pc, r3
0x3ffd8df8:  e5930004      ldr	r0, [r3, #4]
0x3ffd8dfc:  e593100c      ldr	r1, [r3, #12]
0x3ffd8e00:  e3700001      cmn	r0, #1	; 0x1
0x3ffd8e04:  0a00001a      beq	0x3ffd8e74

----------------
IN: 
0x3ffd8e08:  e3a0c018      mov	ip, #24	; 0x18
0x3ffd8e0c:  e5903014      ldr	r3, [r0, #20]
0x3ffd8e10:  e2802030      add	r2, r0, #48	; 0x30
0x3ffd8e14:  e58d6004      str	r6, [sp, #4]
0x3ffd8e18:  e58dc000      str	ip, [sp]
0x3ffd8e1c:  ebfffe01      bl	0x3ffd8628

----------------
IN: 
0x3ffd8628:  e92d4ff0      push	{r4, r5, r6, r7, r8, r9, sl, fp, lr}
0x3ffd862c:  e1a0c001      mov	ip, r1
0x3ffd8630:  e1a0e000      mov	lr, r0
0x3ffd8634:  e1a0a003      mov	sl, r3
0x3ffd8638:  e24dd064      sub	sp, sp, #100	; 0x64
0x3ffd863c:  e28d1048      add	r1, sp, #72	; 0x48
0x3ffd8640:  e1a04002      mov	r4, r2
0x3ffd8644:  e3a0000e      mov	r0, #14	; 0xe
0x3ffd8648:  e3a02000      mov	r2, #0	; 0x0
0x3ffd864c:  e1a0b00e      mov	fp, lr
0x3ffd8650:  e1a0800c      mov	r8, ip
0x3ffd8654:  e59d608c      ldr	r6, [sp, #140]
0x3ffd8658:  e58d1020      str	r1, [sp, #32]
0x3ffd865c:  e58de004      str	lr, [sp, #4]
0x3ffd8660:  e58dc00c      str	ip, [sp, #12]
0x3ffd8664:  eb000502      bl	0x3ffd9a74

----------------
IN: 
0x3ffd8668:  e59f3704      ldr	r3, [pc, #1796]	; 0x3ffd8d74
0x3ffd866c:  e59d2048      ldr	r2, [sp, #72]
0x3ffd8670:  e08f3003      add	r3, pc, r3
0x3ffd8674:  e58d2010      str	r2, [sp, #16]
0x3ffd8678:  e5932048      ldr	r2, [r3, #72]
0x3ffd867c:  e593304c      ldr	r3, [r3, #76]
0x3ffd8680:  e25aa001      subs	sl, sl, #1	; 0x1
0x3ffd8684:  e59d704c      ldr	r7, [sp, #76]
0x3ffd8688:  e58d2000      str	r2, [sp]
0x3ffd868c:  e58d3008      str	r3, [sp, #8]
0x3ffd8690:  4a00009b      bmi	0x3ffd8904

----------------
IN: 
0x3ffd8694:  e58d7014      str	r7, [sp, #20]
0x3ffd8698:  e3a09000      mov	r9, #0	; 0x0
0x3ffd869c:  e1a07006      mov	r7, r6
0x3ffd86a0:  ea000003      b	0x3ffd86b4

----------------
IN: 
0x3ffd86b4:  e59d6088      ldr	r6, [sp, #136]
0x3ffd86b8:  e08a5009      add	r5, sl, r9
0x3ffd86bc:  e1a050c5      asr	r5, r5, #1
0x3ffd86c0:  e0060695      mul	r6, r5, r6
0x3ffd86c4:  e0841006      add	r1, r4, r6
0x3ffd86c8:  e5910004      ldr	r0, [r1, #4]
0x3ffd86cc:  e1500008      cmp	r0, r8
0x3ffd86d0:  e08b1000      add	r1, fp, r0
0x3ffd86d4:  2a00008a      bcs	0x3ffd8904

----------------
IN: 
0x3ffd86d8:  e1a00007      mov	r0, r7
0x3ffd86dc:  ebffff90      bl	0x3ffd8524

----------------
IN: 
0x3ffd8524:  e5d03000      ldrb	r3, [r0]
0x3ffd8528:  e3530000      cmp	r3, #0	; 0x0
0x3ffd852c:  0a00003a      beq	0x3ffd861c

----------------
IN: 
0x3ffd8530:  e92d4010      push	{r4, lr}
0x3ffd8534:  ea000008      b	0x3ffd855c

----------------
IN: 
0x3ffd855c:  e5d1c000      ldrb	ip, [r1]
0x3ffd8560:  e243e030      sub	lr, r3, #48	; 0x30
0x3ffd8564:  e20e40ff      and	r4, lr, #255	; 0xff
0x3ffd8568:  e24c2030      sub	r2, ip, #48	; 0x30
0x3ffd856c:  e3540009      cmp	r4, #9	; 0x9
0x3ffd8570:  e20240ff      and	r4, r2, #255	; 0xff
0x3ffd8574:  8affffef      bhi	0x3ffd8538

----------------
IN: 
0x3ffd8538:  e3540009      cmp	r4, #9	; 0x9
0x3ffd853c:  9a000030      bls	0x3ffd8604

----------------
IN: 
0x3ffd8540:  e153000c      cmp	r3, ip
0x3ffd8544:  1a000030      bne	0x3ffd860c

----------------
IN: 
0x3ffd8548:  e2800001      add	r0, r0, #1	; 0x1
0x3ffd854c:  e2811001      add	r1, r1, #1	; 0x1
0x3ffd8550:  e5d03000      ldrb	r3, [r0]
0x3ffd8554:  e3530000      cmp	r3, #0	; 0x0
0x3ffd8558:  0a000026      beq	0x3ffd85f8

----------------
IN: 
0x3ffd860c:  e043000c      sub	r0, r3, ip
0x3ffd8610:  e8bd8010      pop	{r4, pc}

----------------
IN: 
0x3ffd86e0:  e3500000      cmp	r0, #0	; 0x0
0x3ffd86e4:  1affffee      bne	0x3ffd86a4

----------------
IN: 
0x3ffd86a4:  b2859001      addlt	r9, r5, #1	; 0x1
0x3ffd86a8:  a245a001      subge	sl, r5, #1	; 0x1
0x3ffd86ac:  e159000a      cmp	r9, sl
0x3ffd86b0:  ca000093      bgt	0x3ffd8904

----------------
IN: 
0x3ffd8578:  e3540009      cmp	r4, #9	; 0x9
0x3ffd857c:  8a000024      bhi	0x3ffd8614

----------------
IN: 
0x3ffd8580:  e5d0c001      ldrb	ip, [r0, #1]
0x3ffd8584:  e1a0300e      mov	r3, lr
0x3ffd8588:  e24ce030      sub	lr, ip, #48	; 0x30
0x3ffd858c:  e35e0009      cmp	lr, #9	; 0x9
0x3ffd8590:  e2800001      add	r0, r0, #1	; 0x1
0x3ffd8594:  e2814001      add	r4, r1, #1	; 0x1
0x3ffd8598:  8a000006      bhi	0x3ffd85b8

----------------
IN: 
0x3ffd85b8:  e5d1c001      ldrb	ip, [r1, #1]
0x3ffd85bc:  e24c1030      sub	r1, ip, #48	; 0x30
0x3ffd85c0:  e3510009      cmp	r1, #9	; 0x9
0x3ffd85c4:  e1a01004      mov	r1, r4
0x3ffd85c8:  8a000006      bhi	0x3ffd85e8

----------------
IN: 
0x3ffd85e8:  e1520003      cmp	r2, r3
0x3ffd85ec:  0affffd7      beq	0x3ffd8550

----------------
IN: 
0x3ffd8550:  e5d03000      ldrb	r3, [r0]
0x3ffd8554:  e3530000      cmp	r3, #0	; 0x0
0x3ffd8558:  0a000026      beq	0x3ffd85f8

----------------
IN: 
0x3ffd85f8:  e5d13000      ldrb	r3, [r1]
0x3ffd85fc:  e2630000      rsb	r0, r3, #0	; 0x0
0x3ffd8600:  e8bd8010      pop	{r4, pc}

----------------
IN: 
0x3ffd86e8:  e1a08006      mov	r8, r6
0x3ffd86ec:  e59d3088      ldr	r3, [sp, #136]
0x3ffd86f0:  e1a06007      mov	r6, r7
0x3ffd86f4:  e59d7014      ldr	r7, [sp, #20]
0x3ffd86f8:  e0488003      sub	r8, r8, r3
0x3ffd86fc:  e1a0b005      mov	fp, r5
0x3ffd8700:  e0848008      add	r8, r4, r8
0x3ffd8704:  e58d5014      str	r5, [sp, #20]
0x3ffd8708:  e58d4018      str	r4, [sp, #24]
0x3ffd870c:  e59d5004      ldr	r5, [sp, #4]
0x3ffd8710:  e1a04003      mov	r4, r3
0x3ffd8714:  e59d900c      ldr	r9, [sp, #12]
0x3ffd8718:  e58d701c      str	r7, [sp, #28]
0x3ffd871c:  ea00000a      b	0x3ffd874c

----------------
IN: 
0x3ffd874c:  e35b0000      cmp	fp, #0	; 0x0
0x3ffd8750:  1afffff2      bne	0x3ffd8720

----------------
IN: 
0x3ffd8720:  e5980004      ldr	r0, [r8, #4]
0x3ffd8724:  e24b7001      sub	r7, fp, #1	; 0x1
0x3ffd8728:  e1590000      cmp	r9, r0
0x3ffd872c:  e0851000      add	r1, r5, r0
0x3ffd8730:  9a000007      bls	0x3ffd8754

----------------
IN: 
0x3ffd8734:  e1a00006      mov	r0, r6
0x3ffd8738:  ebffff79      bl	0x3ffd8524

----------------
IN: 
0x3ffd873c:  e3500000      cmp	r0, #0	; 0x0
0x3ffd8740:  e0488004      sub	r8, r8, r4
0x3ffd8744:  1a000002      bne	0x3ffd8754

----------------
IN: 
0x3ffd8748:  e1a0b007      mov	fp, r7
0x3ffd874c:  e35b0000      cmp	fp, #0	; 0x0
0x3ffd8750:  1afffff2      bne	0x3ffd8720

----------------
IN: 
0x3ffd8754:  e59d701c      ldr	r7, [sp, #28]
0x3ffd8758:  e59d3008      ldr	r3, [sp, #8]
0x3ffd875c:  e59d2000      ldr	r2, [sp]
0x3ffd8760:  e0033007      and	r3, r3, r7
0x3ffd8764:  e3833102      orr	r3, r3, #-2147483648	; 0x80000000
0x3ffd8768:  e1e03003      mvn	r3, r3
0x3ffd876c:  e59d1010      ldr	r1, [sp, #16]
0x3ffd8770:  e59d5014      ldr	r5, [sp, #20]
0x3ffd8774:  e0022001      and	r2, r2, r1
0x3ffd8778:  e1e02002      mvn	r2, r2
0x3ffd877c:  e58d3014      str	r3, [sp, #20]
0x3ffd8780:  e3a03000      mov	r3, #0	; 0x0
0x3ffd8784:  e59d4018      ldr	r4, [sp, #24]
0x3ffd8788:  e59d7088      ldr	r7, [sp, #136]
0x3ffd878c:  e58d2010      str	r2, [sp, #16]
0x3ffd8790:  e027479b      mla	r7, fp, r7, r4
0x3ffd8794:  e59f25dc      ldr	r2, [pc, #1500]	; 0x3ffd8d78
0x3ffd8798:  e58da000      str	sl, [sp]
0x3ffd879c:  e08f2002      add	r2, pc, r2
0x3ffd87a0:  e59f95d4      ldr	r9, [pc, #1492]	; 0x3ffd8d7c
0x3ffd87a4:  e59da00c      ldr	sl, [sp, #12]
0x3ffd87a8:  e59d8088      ldr	r8, [sp, #136]
0x3ffd87ac:  e58d3024      str	r3, [sp, #36]
0x3ffd87b0:  e58d201c      str	r2, [sp, #28]
0x3ffd87b4:  e58d3008      str	r3, [sp, #8]
0x3ffd87b8:  e15b0005      cmp	fp, r5
0x3ffd87bc:  da000008      ble	0x3ffd87e4

----------------
IN: 
0x3ffd87e4:  e5973000      ldr	r3, [r7]
0x3ffd87e8:  e2434003      sub	r4, r3, #3	; 0x3
0x3ffd87ec:  e16f4f14      clz	r4, r4
0x3ffd87f0:  e1a042a4      lsr	r4, r4, #5
0x3ffd87f4:  e1530009      cmp	r3, r9
0x3ffd87f8:  11a02004      movne	r2, r4
0x3ffd87fc:  03842001      orreq	r2, r4, #1	; 0x1
0x3ffd8800:  e3520000      cmp	r2, #0	; 0x0
0x3ffd8804:  0a000023      beq	0x3ffd8898

----------------
IN: 
0x3ffd8898:  e59d3000      ldr	r3, [sp]
0x3ffd889c:  e28bb001      add	fp, fp, #1	; 0x1
0x3ffd88a0:  e15b0003      cmp	fp, r3
0x3ffd88a4:  e0877008      add	r7, r7, r8
0x3ffd88a8:  daffffc2      ble	0x3ffd87b8

----------------
IN: 
0x3ffd87b8:  e15b0005      cmp	fp, r5
0x3ffd87bc:  da000008      ble	0x3ffd87e4

----------------
IN: 
0x3ffd8808:  e5973008      ldr	r3, [r7, #8]
0x3ffd880c:  e153000a      cmp	r3, sl
0x3ffd8810:  2a000020      bcs	0x3ffd8898

----------------
IN: 
0x3ffd8814:  e3580018      cmp	r8, #24	; 0x18
0x3ffd8818:  1a00002d      bne	0x3ffd88d4

----------------
IN: 
0x3ffd881c:  e5971014      ldr	r1, [r7, #20]
0x3ffd8820:  e59de008      ldr	lr, [sp, #8]
0x3ffd8824:  e3c12fff      bic	r2, r1, #1020	; 0x3fc
0x3ffd8828:  e3c22003      bic	r2, r2, #3	; 0x3
0x3ffd882c:  e2522101      subs	r2, r2, #1073741824	; 0x40000000
0x3ffd8830:  13a00001      movne	r0, #1	; 0x1
0x3ffd8834:  03a00000      moveq	r0, #0	; 0x0
0x3ffd8838:  e58d0018      str	r0, [sp, #24]
0x3ffd883c:  e35e0000      cmp	lr, #0	; 0x0
0x3ffd8840:  03a00000      moveq	r0, #0	; 0x0
0x3ffd8844:  12000001      andne	r0, r0, #1	; 0x1
0x3ffd8848:  e597c010      ldr	ip, [r7, #16]
0x3ffd884c:  e3500000      cmp	r0, #0	; 0x0
0x3ffd8850:  e58dc00c      str	ip, [sp, #12]
0x3ffd8854:  1a000014      bne	0x3ffd88ac

----------------
IN: 
0x3ffd8858:  e59d0014      ldr	r0, [sp, #20]
0x3ffd885c:  e0011000      and	r1, r1, r0
0x3ffd8860:  e59d0010      ldr	r0, [sp, #16]
0x3ffd8864:  e000000c      and	r0, r0, ip
0x3ffd8868:  e1900001      orrs	r0, r0, r1
0x3ffd886c:  0a000011      beq	0x3ffd88b8

----------------
IN: 
0x3ffd88b8:  e59f14c4      ldr	r1, [pc, #1220]	; 0x3ffd8d84
0x3ffd88bc:  e08f1001      add	r1, pc, r1
0x3ffd88c0:  e5911004      ldr	r1, [r1, #4]
0x3ffd88c4:  e3510000      cmp	r1, #0	; 0x0
0x3ffd88c8:  1a000007      bne	0x3ffd88ec

----------------
IN: 
0x3ffd88ec:  e597000c      ldr	r0, [r7, #12]
0x3ffd88f0:  e1510000      cmp	r1, r0
0x3ffd88f4:  3affffe7      bcc	0x3ffd8898

----------------
IN: 
0x3ffd88f8:  e3922000      orrs	r2, r2, #0	; 0x0
0x3ffd88fc:  1afffff4      bne	0x3ffd88d4

----------------
IN: 
0x3ffd88d4:  e59d2004      ldr	r2, [sp, #4]
0x3ffd88d8:  e3540000      cmp	r4, #0	; 0x0
0x3ffd88dc:  e0823003      add	r3, r2, r3
0x3ffd88e0:  e58d3008      str	r3, [sp, #8]
0x3ffd88e4:  0affffeb      beq	0x3ffd8898

----------------
IN: 
0x3ffd88e8:  eaffffef      b	0x3ffd88ac

----------------
IN: 
0x3ffd88ac:  e59d0008      ldr	r0, [sp, #8]
0x3ffd88b0:  e28dd064      add	sp, sp, #100	; 0x64
0x3ffd88b4:  e8bd8ff0      pop	{r4, r5, r6, r7, r8, r9, sl, fp, pc}

----------------
IN: 
0x3ffd8e20:  e1a04000      mov	r4, r0
0x3ffd8e24:  e59f3280      ldr	r3, [pc, #640]	; 0x3ffd90ac
0x3ffd8e28:  e08f3003      add	r3, pc, r3
0x3ffd8e2c:  e5933000      ldr	r3, [r3]
0x3ffd8e30:  e3130001      tst	r3, #1	; 0x1
0x3ffd8e34:  1a000088      bne	0x3ffd905c

----------------
IN: 
0x3ffd8e38:  e3540000      cmp	r4, #0	; 0x0
0x3ffd8e3c:  0a000022      beq	0x3ffd8ecc

----------------
IN: 
0x3ffd8e40:  e1a00004      mov	r0, r4
0x3ffd8e44:  eb003225      bl	0x3ffe56e0

----------------
IN: 
0x3ffd8e48:  e2803008      add	r3, r0, #8	; 0x8
0x3ffd8e4c:  e3c33007      bic	r3, r3, #7	; 0x7
0x3ffd8e50:  e04dd003      sub	sp, sp, r3
0x3ffd8e54:  e28d3008      add	r3, sp, #8	; 0x8
0x3ffd8e58:  e2802001      add	r2, r0, #1	; 0x1
0x3ffd8e5c:  e1a01004      mov	r1, r4
0x3ffd8e60:  e1a00003      mov	r0, r3
0x3ffd8e64:  eb0034c9      bl	0x3ffe6190

----------------
IN: 
0x3ffe6274:  e3c11003      bic	r1, r1, #3	; 0x3
0x3ffe6278:  e35c0002      cmp	ip, #2	; 0x2
0x3ffe627c:  e491e004      ldr	lr, [r1], #4
0x3ffe6280:  0a000023      beq	0x3ffe6314

----------------
IN: 
0x3ffe6284:  ca000045      bgt	0x3ffe63a0

----------------
IN: 
0x3ffe63a0:  e252201c      subs	r2, r2, #28	; 0x1c
0x3ffe63a4:  3a000016      bcc	0x3ffe6404

----------------
IN: 
0x3ffe6404:  e212c01c      ands	ip, r2, #28	; 0x1c
0x3ffe6408:  0a000005      beq	0x3ffe6424

----------------
IN: 
0x3ffe640c:  e1a03c2e      lsr	r3, lr, #24
0x3ffe6410:  e491e004      ldr	lr, [r1], #4
0x3ffe6414:  e25cc004      subs	ip, ip, #4	; 0x4
0x3ffe6418:  e183340e      orr	r3, r3, lr, lsl #8
0x3ffe641c:  e4803004      str	r3, [r0], #4
0x3ffe6420:  cafffff9      bgt	0x3ffe640c

----------------
IN: 
0x3ffe6424:  e2411001      sub	r1, r1, #1	; 0x1
0x3ffe6428:  eaffff7d      b	0x3ffe6224

----------------
IN: 
0x3ffd8e68:  eb00320a      bl	0x3ffe5698

----------------
IN: 
0x3ffe5698:  e92d4070      push	{r4, r5, r6, lr}
0x3ffe569c:  e1a05000      mov	r5, r0
0x3ffe56a0:  eb00000e      bl	0x3ffe56e0

----------------
IN: 
0x3ffe56a4:  e59f3028      ldr	r3, [pc, #40]	; 0x3ffe56d4
0x3ffe56a8:  e2804001      add	r4, r0, #1	; 0x1
0x3ffe56ac:  e08f3003      add	r3, pc, r3
0x3ffe56b0:  e1a00004      mov	r0, r4
0x3ffe56b4:  e5933000      ldr	r3, [r3]
0x3ffe56b8:  e12fff33      blx	r3

----------------
IN: 
0x3ffe56bc:  e3500000      cmp	r0, #0	; 0x0
0x3ffe56c0:  08bd8070      popeq	{r4, r5, r6, pc}

----------------
IN: 
0x3ffe56c4:  e1a02004      mov	r2, r4
0x3ffe56c8:  e1a01005      mov	r1, r5
0x3ffe56cc:  e8bd4070      pop	{r4, r5, r6, lr}
0x3ffe56d0:  ea0002ae      b	0x3ffe6190

----------------
IN: 
0x3ffe61dc:  e4913004      ldr	r3, [r1], #4
0x3ffe61e0:  e4914004      ldr	r4, [r1], #4
0x3ffe61e4:  e4915004      ldr	r5, [r1], #4
0x3ffe61e8:  e4916004      ldr	r6, [r1], #4
0x3ffe61ec:  e4917004      ldr	r7, [r1], #4
0x3ffe61f0:  e4918004      ldr	r8, [r1], #4
0x3ffe61f4:  e491e004      ldr	lr, [r1], #4
0x3ffe61f8:  e08ff00c      add	pc, pc, ip

----------------
IN: 
0x3ffe6204:  e4803004      str	r3, [r0], #4
0x3ffe6208:  e4804004      str	r4, [r0], #4
0x3ffe620c:  e4805004      str	r5, [r0], #4
0x3ffe6210:  e4806004      str	r6, [r0], #4
0x3ffe6214:  e4807004      str	r7, [r0], #4
0x3ffe6218:  e4808004      str	r8, [r0], #4
0x3ffe621c:  e480e004      str	lr, [r0], #4
0x3ffe6220:  e8bd01e0      pop	{r5, r6, r7, r8}
0x3ffe6224:  e1b02f82      lsls	r2, r2, #31
0x3ffe6228:  14d13001      ldrbne	r3, [r1], #1
0x3ffe622c:  24d14001      ldrbcs	r4, [r1], #1
0x3ffe6230:  25d1c000      ldrbcs	ip, [r1]
0x3ffe6234:  14c03001      strbne	r3, [r0], #1
0x3ffe6238:  24c04001      strbcs	r4, [r0], #1
0x3ffe623c:  25c0c000      strbcs	ip, [r0]
0x3ffe6240:  e8bd8011      pop	{r0, r4, pc}

----------------
IN: 
0x3ffd8e6c:  e24bd018      sub	sp, fp, #24	; 0x18
0x3ffd8e70:  e8bd89f0      pop	{r4, r5, r6, r7, r8, fp, pc}

----------------
IN: 
0x3ffccce4:  e2507000      subs	r7, r0, #0	; 0x0
0x3ffccce8:  0a00008a      beq	0x3ffccf18

----------------
IN: 
0x3ffcccec:  e3560000      cmp	r6, #0	; 0x0
0x3ffcccf0:  0a0000f8      beq	0x3ffcd0d8

----------------
IN: 
0x3ffcccf4:  e5963214      ldr	r3, [r6, #532]
0x3ffcccf8:  e3130b02      tst	r3, #2048	; 0x800
0x3ffcccfc:  1a000129      bne	0x3ffcd1a8

----------------
IN: 
0x3ffccd00:  e1a02006      mov	r2, r6
0x3ffccd04:  e3a03000      mov	r3, #0	; 0x0
0x3ffccd08:  e58d3004      str	r3, [sp, #4]
0x3ffccd0c:  e28d303f      add	r3, sp, #63	; 0x3f
0x3ffccd10:  e58d3000      str	r3, [sp]
0x3ffccd14:  e1a00007      mov	r0, r7
0x3ffccd18:  e3a03008      mov	r3, #8	; 0x8
0x3ffccd1c:  e28d104c      add	r1, sp, #76	; 0x4c
0x3ffccd20:  ebfff212      bl	0x3ffc9570

----------------
IN: 
0x3ffc9570:  e92d4ff0      push	{r4, r5, r6, r7, r8, r9, sl, fp, lr}
0x3ffc9574:  e28db020      add	fp, sp, #32	; 0x20
0x3ffc9578:  e24dd024      sub	sp, sp, #36	; 0x24
0x3ffc957c:  e5dbc008      ldrb	ip, [fp, #8]
0x3ffc9580:  e1a06001      mov	r6, r1
0x3ffc9584:  e50bc034      str	ip, [fp, #-52]
0x3ffc9588:  e59fc5ec      ldr	ip, [pc, #1516]	; 0x3ffc9b7c
0x3ffc958c:  e50b002c      str	r0, [fp, #-44]
0x3ffc9590:  e08fc00c      add	ip, pc, ip
0x3ffc9594:  e59cc1e8      ldr	ip, [ip, #488]
0x3ffc9598:  e35c0000      cmp	ip, #0	; 0x0
0x3ffc959c:  1a000100      bne	0x3ffc99a4

----------------
IN: 
0x3ffc95a0:  e3a01702      mov	r1, #524288	; 0x80000
0x3ffc95a4:  e51b002c      ldr	r0, [fp, #-44]
0x3ffc95a8:  eb006d2f      bl	0x3ffe4a6c

----------------
IN: 
0x3ffc95ac:  e3700001      cmn	r0, #1	; 0x1
0x3ffc95b0:  e1a08000      mov	r8, r0
0x3ffc95b4:  0a000100      beq	0x3ffc99bc

----------------
IN: 
0x3ffc95b8:  e3a04000      mov	r4, #0	; 0x0
0x3ffc95bc:  e59f35bc      ldr	r3, [pc, #1468]	; 0x3ffc9b80
0x3ffc95c0:  e1a01004      mov	r1, r4
0x3ffc95c4:  e08f3003      add	r3, pc, r3
0x3ffc95c8:  e5834000      str	r4, [r3]
0x3ffc95cc:  e1a03006      mov	r3, r6
0x3ffc95d0:  e4834004      str	r4, [r3], #4
0x3ffc95d4:  e50b3028      str	r3, [fp, #-40]
0x3ffc95d8:  e51b3028      ldr	r3, [fp, #-40]
0x3ffc95dc:  e2612c02      rsb	r2, r1, #512	; 0x200
0x3ffc95e0:  e1a00008      mov	r0, r8
0x3ffc95e4:  e0831001      add	r1, r3, r1
0x3ffc95e8:  eb006d43      bl	0x3ffe4afc

----------------
IN: 
0x3ffe4afc:  e52d7004      push	{r7}		; (str r7, [sp, #-4]!)
0x3ffe4b00:  e3a07003      mov	r7, #3	; 0x3
0x3ffe4b04:  ef000000      svc	0x00000000

----------------
IN: 
0x3ffe4b08:  e3700a01      cmn	r0, #4096	; 0x1000
0x3ffe4b0c:  8a000001      bhi	0x3ffe4b18

----------------
IN: 
0x3ffe4b10:  e49d7004      pop	{r7}		; (ldr r7, [sp], #4)
0x3ffe4b14:  e12fff1e      bx	lr

----------------
IN: 
0x3ffc95ec:  e3500000      cmp	r0, #0	; 0x0
0x3ffc95f0:  da00011e      ble	0x3ffc9a70

----------------
IN: 
0x3ffc95f4:  e5963000      ldr	r3, [r6]
0x3ffc95f8:  e0801003      add	r1, r0, r3
0x3ffc95fc:  e3510033      cmp	r1, #51	; 0x33
0x3ffc9600:  e5861000      str	r1, [r6]
0x3ffc9604:  9afffff3      bls	0x3ffc95d8

----------------
IN: 
0x3ffc9608:  e1a04001      mov	r4, r1
0x3ffc960c:  e3540033      cmp	r4, #51	; 0x33
0x3ffc9610:  da0000eb      ble	0x3ffc99c4

----------------
IN: 
0x3ffc9614:  e59f1568      ldr	r1, [pc, #1384]	; 0x3ffc9b84
0x3ffc9618:  e3a02008      mov	r2, #8	; 0x8
0x3ffc961c:  e08f1001      add	r1, pc, r1
0x3ffc9620:  e51b0028      ldr	r0, [fp, #-40]
0x3ffc9624:  e2811054      add	r1, r1, #84	; 0x54
0x3ffc9628:  eb007103      bl	0x3ffe5a3c

----------------
IN: 
0x3ffe5af4:  e3520000      cmp	r2, #0	; 0x0
0x3ffe5af8:  0a00007e      beq	0x3ffe5cf8

----------------
IN: 
0x3ffe5afc:  e082200c      add	r2, r2, ip
0x3ffe5b00:  e044400c      sub	r4, r4, ip
0x3ffe5b04:  ea000001      b	0x3ffe5b10

----------------
IN: 
0x3ffe5b10:  e5dc0000      ldrb	r0, [ip]
0x3ffe5b14:  e7d4300c      ldrb	r3, [r4, ip]
0x3ffe5b18:  e28cc001      add	ip, ip, #1	; 0x1
0x3ffe5b1c:  e0500003      subs	r0, r0, r3
0x3ffe5b20:  0afffff8      beq	0x3ffe5b08

----------------
IN: 
0x3ffe5b08:  e15c0002      cmp	ip, r2
0x3ffe5b0c:  0affffdf      beq	0x3ffe5a90

----------------
IN: 
0x3ffe5b24:  e28dd00c      add	sp, sp, #12	; 0xc
0x3ffe5b28:  e8bd8ff0      pop	{r4, r5, r6, r7, r8, r9, sl, fp, pc}

----------------
IN: 
0x3ffc962c:  e3500000      cmp	r0, #0	; 0x0
0x3ffc9630:  1a0000fa      bne	0x3ffc9a20

----------------
IN: 
0x3ffc9a20:  e59f11a0      ldr	r1, [pc, #416]	; 0x3ffc9bc8
0x3ffc9a24:  e3a02008      mov	r2, #8	; 0x8
0x3ffc9a28:  e51b0028      ldr	r0, [fp, #-40]
0x3ffc9a2c:  e08f1001      add	r1, pc, r1
0x3ffc9a30:  eb007001      bl	0x3ffe5a3c

----------------
IN: 
0x3ffc9a34:  e3500000      cmp	r0, #0	; 0x0
0x3ffc9a38:  0afffefd      beq	0x3ffc9634

----------------
IN: 
0x3ffc9634:  e5962028      ldr	r2, [r6, #40]
0x3ffc9638:  e59f3548      ldr	r3, [pc, #1352]	; 0x3ffc9b88
0x3ffc963c:  e0033002      and	r3, r3, r2
0x3ffc9640:  e59f2544      ldr	r2, [pc, #1348]	; 0x3ffc9b8c
0x3ffc9644:  e1530002      cmp	r3, r2
0x3ffc9648:  0a000098      beq	0x3ffc98b0

----------------
IN: 
0x3ffc964c:  e5d6300c      ldrb	r3, [r6, #12]
0x3ffc9650:  e3530000      cmp	r3, #0	; 0x0
0x3ffc9654:  1a000091      bne	0x3ffc98a0

----------------
IN: 
0x3ffc9658:  e59f1530      ldr	r1, [pc, #1328]	; 0x3ffc9b90
0x3ffc965c:  e3a02007      mov	r2, #7	; 0x7
0x3ffc9660:  e08f1001      add	r1, pc, r1
0x3ffc9664:  e281105d      add	r1, r1, #93	; 0x5d
0x3ffc9668:  e286000d      add	r0, r6, #13	; 0xd
0x3ffc966c:  eb0070f2      bl	0x3ffe5a3c

----------------
IN: 
0x3ffc9670:  e2505000      subs	r5, r0, #0	; 0x0
0x3ffc9674:  1a00008d      bne	0x3ffc98b0

----------------
IN: 
0x3ffc9678:  e5963018      ldr	r3, [r6, #24]
0x3ffc967c:  e3530001      cmp	r3, #1	; 0x1
0x3ffc9680:  1a0000f5      bne	0x3ffc9a5c

----------------
IN: 
0x3ffc9684:  e1d631b6      ldrh	r3, [r6, #22]
0x3ffc9688:  e3530028      cmp	r3, #40	; 0x28
0x3ffc968c:  1a0000f5      bne	0x3ffc9a68

----------------
IN: 
0x3ffc9a68:  e50b5030      str	r5, [fp, #-48]
0x3ffc9a6c:  eaffff9b      b	0x3ffc98e0

----------------
IN: 
0x3ffc98e0:  e1a00008      mov	r0, r8
0x3ffc98e4:  eb006bd6      bl	0x3ffe4844

----------------
IN: 
0x3ffc98e8:  e3a02002      mov	r2, #2	; 0x2
0x3ffc98ec:  e59f32b8      ldr	r3, [pc, #696]	; 0x3ffc9bac
0x3ffc98f0:  e3e08000      mvn	r8, #0	; 0x0
0x3ffc98f4:  e08f3003      add	r3, pc, r3
0x3ffc98f8:  e5832000      str	r2, [r3]
0x3ffc98fc:  eaffffce      b	0x3ffc983c

----------------
IN: 
0x3ffc983c:  e59f335c      ldr	r3, [pc, #860]	; 0x3ffc9ba0
0x3ffc9840:  e51b0030      ldr	r0, [fp, #-48]
0x3ffc9844:  e08f3003      add	r3, pc, r3
0x3ffc9848:  e5933000      ldr	r3, [r3]
0x3ffc984c:  e12fff33      blx	r3

----------------
IN: 
0x3ffcfc6c:  e92d4070      push	{r4, r5, r6, lr}
0x3ffcfc70:  e59f4024      ldr	r4, [pc, #36]	; 0x3ffcfc9c
0x3ffcfc74:  e08f4004      add	r4, pc, r4
0x3ffcfc78:  e5945008      ldr	r5, [r4, #8]
0x3ffcfc7c:  e1550000      cmp	r5, r0
0x3ffcfc80:  18bd8070      popne	{r4, r5, r6, pc}

----------------
IN: 
0x3ffc9850:  e1a00008      mov	r0, r8
0x3ffc9854:  e24bd020      sub	sp, fp, #32	; 0x20
0x3ffc9858:  e8bd8ff0      pop	{r4, r5, r6, r7, r8, r9, sl, fp, pc}

----------------
IN: 
0x3ffccd24:  e3700001      cmn	r0, #1	; 0x1
0x3ffccd28:  e1a02000      mov	r2, r0
0x3ffccd2c:  0a000074      beq	0x3ffccf04

----------------
IN: 
0x3ffccf04:  e59f3494      ldr	r3, [pc, #1172]	; 0x3ffcd3a0
0x3ffccf08:  e1a00007      mov	r0, r7
0x3ffccf0c:  e08f3003      add	r3, pc, r3
0x3ffccf10:  e5933000      ldr	r3, [r3]
0x3ffccf14:  e12fff33      blx	r3

----------------
IN: 
0x3ffcfc84:  e5942004      ldr	r2, [r4, #4]
0x3ffcfc88:  e3a01000      mov	r1, #0	; 0x0
0x3ffcfc8c:  e0422005      sub	r2, r2, r5
0x3ffcfc90:  eb005912      bl	0x3ffe60e0

----------------
IN: 
0x3ffe6134:  e2522001      subs	r2, r2, #1	; 0x1
0x3ffe6138:  24c31001      strbcs	r1, [r3], #1
0x3ffe613c:  22522001      subscs	r2, r2, #1	; 0x1
0x3ffe6140:  24c31001      strbcs	r1, [r3], #1
0x3ffe6144:  22522001      subscs	r2, r2, #1	; 0x1
0x3ffe6148:  24c31001      strbcs	r1, [r3], #1
0x3ffe614c:  22522001      subscs	r2, r2, #1	; 0x1
0x3ffe6150:  24c31001      strbcs	r1, [r3], #1
0x3ffe6154:  2afffff6      bcs	0x3ffe6134

----------------
IN: 
0x3ffcfc94:  e5845004      str	r5, [r4, #4]
0x3ffcfc98:  e8bd8070      pop	{r4, r5, r6, pc}

----------------
IN: 
0x3ffccf18:  e3560000      cmp	r6, #0	; 0x0
0x3ffccf1c:  11a01006      movne	r1, r6
0x3ffccf20:  0a000059      beq	0x3ffcd08c

----------------
IN: 
0x3ffccf24:  e5913214      ldr	r3, [r1, #532]
0x3ffccf28:  e3130b02      tst	r3, #2048	; 0x800
0x3ffccf2c:  1a00009b      bne	0x3ffcd1a0

----------------
IN: 
0x3ffccf30:  e59f346c      ldr	r3, [pc, #1132]	; 0x3ffcd3a4
0x3ffccf34:  e08f3003      add	r3, pc, r3
0x3ffccf38:  e5932014      ldr	r2, [r3, #20]
0x3ffccf3c:  e3720001      cmn	r2, #1	; 0x1
0x3ffccf40:  0affff7b      beq	0x3ffccd34

----------------
IN: 
0x3ffccf44:  e3a02040      mov	r2, #64	; 0x40
0x3ffccf48:  e58d200c      str	r2, [sp, #12]
0x3ffccf4c:  e28d203f      add	r2, sp, #63	; 0x3f
0x3ffccf50:  e58d2010      str	r2, [sp, #16]
0x3ffccf54:  e28d704c      add	r7, sp, #76	; 0x4c
0x3ffccf58:  e28d2040      add	r2, sp, #64	; 0x40
0x3ffccf5c:  e58d1008      str	r1, [sp, #8]
0x3ffccf60:  e58d2000      str	r2, [sp]
0x3ffccf64:  e1a00004      mov	r0, r4
0x3ffccf68:  e59d2278      ldr	r2, [sp, #632]
0x3ffccf6c:  e59d1030      ldr	r1, [sp, #48]
0x3ffccf70:  e2833014      add	r3, r3, #20	; 0x14
0x3ffccf74:  e58d7004      str	r7, [sp, #4]
0x3ffccf78:  ebfff31f      bl	0x3ffc9bfc

----------------
IN: 
0x3ffc9bfc:  e92d4ff0      push	{r4, r5, r6, r7, r8, r9, sl, fp, lr}
0x3ffc9c00:  e28db020      add	fp, sp, #32	; 0x20
0x3ffc9c04:  e24dd0bc      sub	sp, sp, #188	; 0xbc
0x3ffc9c08:  e50b30cc      str	r3, [fp, #-204]
0x3ffc9c0c:  e5933000      ldr	r3, [r3]
0x3ffc9c10:  e50b00a4      str	r0, [fp, #-164]
0x3ffc9c14:  e3530000      cmp	r3, #0	; 0x0
0x3ffc9c18:  e50b20ac      str	r2, [fp, #-172]
0x3ffc9c1c:  e50b30b0      str	r3, [fp, #-176]
0x3ffc9c20:  0a000084      beq	0x3ffc9e38

----------------
IN: 
0x3ffc9c24:  e1a09001      mov	r9, r1
0x3ffc9c28:  e3a01000      mov	r1, #0	; 0x0
0x3ffc9c2c:  e1a08009      mov	r8, r9
0x3ffc9c30:  e59f35ec      ldr	r3, [pc, #1516]	; 0x3ffca224
0x3ffc9c34:  e59f25ec      ldr	r2, [pc, #1516]	; 0x3ffca228
0x3ffc9c38:  e08f3003      add	r3, pc, r3
0x3ffc9c3c:  e08f2002      add	r2, pc, r2
0x3ffc9c40:  e5933000      ldr	r3, [r3]
0x3ffc9c44:  e5922000      ldr	r2, [r2]
0x3ffc9c48:  e50b10b4      str	r1, [fp, #-180]
0x3ffc9c4c:  e0833002      add	r3, r3, r2
0x3ffc9c50:  e0833009      add	r3, r3, r9
0x3ffc9c54:  e2833007      add	r3, r3, #7	; 0x7
0x3ffc9c58:  e3c33007      bic	r3, r3, #7	; 0x7
0x3ffc9c5c:  e04dd003      sub	sp, sp, r3
0x3ffc9c60:  e51b30b0      ldr	r3, [fp, #-176]
0x3ffc9c64:  e28da008      add	sl, sp, #8	; 0x8
0x3ffc9c68:  e5933000      ldr	r3, [r3]
0x3ffc9c6c:  e50b10c4      str	r1, [fp, #-196]
0x3ffc9c70:  e50b30a0      str	r3, [fp, #-160]
0x3ffc9c74:  e59f35b0      ldr	r3, [pc, #1456]	; 0x3ffca22c
0x3ffc9c78:  e08f3003      add	r3, pc, r3
0x3ffc9c7c:  e50b30c8      str	r3, [fp, #-200]
0x3ffc9c80:  e59f35a8      ldr	r3, [pc, #1448]	; 0x3ffca230
0x3ffc9c84:  e08f3003      add	r3, pc, r3
0x3ffc9c88:  e50b30b8      str	r3, [fp, #-184]
0x3ffc9c8c:  e59f35a0      ldr	r3, [pc, #1440]	; 0x3ffca234
0x3ffc9c90:  e79f5003      ldr	r5, [pc, r3]
0x3ffc9c94:  e2155001      ands	r5, r5, #1	; 0x1
0x3ffc9c98:  1a0000c3      bne	0x3ffc9fac

----------------
IN: 
0x3ffc9c9c:  e3a06000      mov	r6, #0	; 0x0
0x3ffc9ca0:  e51b40a0      ldr	r4, [fp, #-160]
0x3ffc9ca4:  e1a0000a      mov	r0, sl
0x3ffc9ca8:  e5942010      ldr	r2, [r4, #16]
0x3ffc9cac:  e594100c      ldr	r1, [r4, #12]
0x3ffc9cb0:  eb007136      bl	0x3ffe6190

----------------
IN: 
0x3ffe61e4:  e4915004      ldr	r5, [r1], #4
0x3ffe61e8:  e4916004      ldr	r6, [r1], #4
0x3ffe61ec:  e4917004      ldr	r7, [r1], #4
0x3ffe61f0:  e4918004      ldr	r8, [r1], #4
0x3ffe61f4:  e491e004      ldr	lr, [r1], #4
0x3ffe61f8:  e08ff00c      add	pc, pc, ip

----------------
IN: 
0x3ffe620c:  e4805004      str	r5, [r0], #4
0x3ffe6210:  e4806004      str	r6, [r0], #4
0x3ffe6214:  e4807004      str	r7, [r0], #4
0x3ffe6218:  e4808004      str	r8, [r0], #4
0x3ffe621c:  e480e004      str	lr, [r0], #4
0x3ffe6220:  e8bd01e0      pop	{r5, r6, r7, r8}
0x3ffe6224:  e1b02f82      lsls	r2, r2, #31
0x3ffe6228:  14d13001      ldrbne	r3, [r1], #1
0x3ffe622c:  24d14001      ldrbcs	r4, [r1], #1
0x3ffe6230:  25d1c000      ldrbcs	ip, [r1]
0x3ffe6234:  14c03001      strbne	r3, [r0], #1
0x3ffe6238:  24c04001      strbcs	r4, [r0], #1
0x3ffe623c:  25c0c000      strbcs	ip, [r0]
0x3ffe6240:  e8bd8011      pop	{r0, r4, pc}

----------------
IN: 
0x3ffc9cb4:  e5943010      ldr	r3, [r4, #16]
0x3ffc9cb8:  e1a04006      mov	r4, r6
0x3ffc9cbc:  e0803003      add	r3, r0, r3
0x3ffc9cc0:  e50b309c      str	r3, [fp, #-156]
0x3ffc9cc4:  e59f356c      ldr	r3, [pc, #1388]	; 0x3ffca238
0x3ffc9cc8:  e59f956c      ldr	r9, [pc, #1388]	; 0x3ffca23c
0x3ffc9ccc:  e08f3003      add	r3, pc, r3
0x3ffc9cd0:  e50b30a8      str	r3, [fp, #-168]
0x3ffc9cd4:  e59f3564      ldr	r3, [pc, #1380]	; 0x3ffca240
0x3ffc9cd8:  e59f7564      ldr	r7, [pc, #1380]	; 0x3ffca244
0x3ffc9cdc:  e08f3003      add	r3, pc, r3
0x3ffc9ce0:  e50b30bc      str	r3, [fp, #-188]
0x3ffc9ce4:  e51b30a8      ldr	r3, [fp, #-168]
0x3ffc9ce8:  e08f9009      add	r9, pc, r9
0x3ffc9cec:  e5933004      ldr	r3, [r3, #4]
0x3ffc9cf0:  e08f7007      add	r7, pc, r7
0x3ffc9cf4:  e1530004      cmp	r3, r4
0x3ffc9cf8:  e50b6098      str	r6, [fp, #-152]
0x3ffc9cfc:  9a000038      bls	0x3ffc9de4

----------------
IN: 
0x3ffc9d00:  e51b30a0      ldr	r3, [fp, #-160]
0x3ffc9d04:  e2845005      add	r5, r4, #5	; 0x5
0x3ffc9d08:  e0835105      add	r5, r3, r5, lsl #2
0x3ffc9d0c:  e2844001      add	r4, r4, #1	; 0x1
0x3ffc9d10:  e4953004      ldr	r3, [r5], #4
0x3ffc9d14:  e3530001      cmp	r3, #1	; 0x1
0x3ffc9d18:  0a000050      beq	0x3ffc9e60

----------------
IN: 
0x3ffc9d1c:  e5992008      ldr	r2, [r9, #8]
0x3ffc9d20:  e1a03184      lsl	r3, r4, #3
0x3ffc9d24:  e2433008      sub	r3, r3, #8	; 0x8
0x3ffc9d28:  e0826003      add	r6, r2, r3
0x3ffc9d2c:  e7921003      ldr	r1, [r2, r3]
0x3ffc9d30:  e51b009c      ldr	r0, [fp, #-156]
0x3ffc9d34:  e5962004      ldr	r2, [r6, #4]
0x3ffc9d38:  eb007114      bl	0x3ffe6190

----------------
IN: 
0x3ffe626c:  e211c003      ands	ip, r1, #3	; 0x3
0x3ffe6270:  0affffcd      beq	0x3ffe61ac

----------------
IN: 
0x3ffe6288:  e252201c      subs	r2, r2, #28	; 0x1c
0x3ffe628c:  3a000016      bcc	0x3ffe62ec

----------------
IN: 
0x3ffe62ec:  e212c01c      ands	ip, r2, #28	; 0x1c
0x3ffe62f0:  0a000005      beq	0x3ffe630c

----------------
IN: 
0x3ffe62f4:  e1a0342e      lsr	r3, lr, #8
0x3ffe62f8:  e491e004      ldr	lr, [r1], #4
0x3ffe62fc:  e25cc004      subs	ip, ip, #4	; 0x4
0x3ffe6300:  e1833c0e      orr	r3, r3, lr, lsl #24
0x3ffe6304:  e4803004      str	r3, [r0], #4
0x3ffe6308:  cafffff9      bgt	0x3ffe62f4

----------------
IN: 
0x3ffe630c:  e2411003      sub	r1, r1, #3	; 0x3
0x3ffe6310:  eaffffc3      b	0x3ffe6224

----------------
IN: 
0x3ffc9d3c:  e5963004      ldr	r3, [r6, #4]
0x3ffc9d40:  e1a02008      mov	r2, r8
0x3ffc9d44:  e0800003      add	r0, r0, r3
0x3ffc9d48:  e51b10a4      ldr	r1, [fp, #-164]
0x3ffc9d4c:  eb00710f      bl	0x3ffe6190

----------------
IN: 
0x3ffc9d50:  e5973000      ldr	r3, [r7]
0x3ffc9d54:  e0806008      add	r6, r0, r8
0x3ffc9d58:  e3130001      tst	r3, #1	; 0x1
0x3ffc9d5c:  e046600a      sub	r6, r6, sl
0x3ffc9d60:  1a00007b      bne	0x3ffc9f54

----------------
IN: 
0x3ffc9d64:  e59b3014      ldr	r3, [fp, #20]
0x3ffc9d68:  e28b1008      add	r1, fp, #8	; 0x8
0x3ffc9d6c:  e58d3000      str	r3, [sp]
0x3ffc9d70:  e3a03000      mov	r3, #0	; 0x0
0x3ffc9d74:  e58d3004      str	r3, [sp, #4]
0x3ffc9d78:  e891000e      ldm	r1, {r1, r2, r3}
0x3ffc9d7c:  e1a0000a      mov	r0, sl
0x3ffc9d80:  ebfffdfa      bl	0x3ffc9570

----------------
IN: 
0x3ffe4acc:  e2602000      rsb	r2, r0, #0	; 0x0
0x3ffe4ad0:  e3e00000      mvn	r0, #0	; 0x0
0x3ffe4ad4:  e59f301c      ldr	r3, [pc, #28]	; 0x3ffe4af8
0x3ffe4ad8:  e08f3003      add	r3, pc, r3
0x3ffe4adc:  e5832000      str	r2, [r3]
0x3ffe4ae0:  e28dd008      add	sp, sp, #8	; 0x8
0x3ffe4ae4:  e49d7004      pop	{r7}		; (ldr r7, [sp], #4)
0x3ffe4ae8:  e28dd00c      add	sp, sp, #12	; 0xc
0x3ffe4aec:  e12fff1e      bx	lr

----------------
IN: 
0x3ffc99bc:  e3e08000      mvn	r8, #0	; 0x0
0x3ffc99c0:  eaffffa2      b	0x3ffc9850

----------------
IN: 
0x3ffc9d84:  e5152004      ldr	r2, [r5, #-4]
0x3ffc9d88:  e1a03000      mov	r3, r0
0x3ffc9d8c:  e3520000      cmp	r2, #0	; 0x0
0x3ffc9d90:  1a00002c      bne	0x3ffc9e48

----------------
IN: 
0x3ffc9d94:  e3700001      cmn	r0, #1	; 0x1
0x3ffc9d98:  0a000037      beq	0x3ffc9e7c

----------------
IN: 
0x3ffc9e7c:  e59b300c      ldr	r3, [fp, #12]
0x3ffc9e80:  e3530000      cmp	r3, #0	; 0x0
0x3ffc9e84:  0a00000a      beq	0x3ffc9eb4

----------------
IN: 
0x3ffc9e88:  e5933018      ldr	r3, [r3, #24]
0x3ffc9e8c:  e59f23bc      ldr	r2, [pc, #956]	; 0x3ffca250
0x3ffc9e90:  e0831103      add	r1, r3, r3, lsl #2
0x3ffc9e94:  e08f2002      add	r2, pc, r2
0x3ffc9e98:  e0833081      add	r3, r3, r1, lsl #1
0x3ffc9e9c:  e7923183      ldr	r3, [r2, r3, lsl #3]
0x3ffc9ea0:  e5d33199      ldrb	r3, [r3, #409]
0x3ffc9ea4:  e1b033a3      lsrs	r3, r3, #7
0x3ffc9ea8:  13a03001      movne	r3, #1	; 0x1
0x3ffc9eac:  150b3098      strne	r3, [fp, #-152]
0x3ffc9eb0:  1affffea      bne	0x3ffc9e60

----------------
IN: 
0x3ffc9eb4:  e3a03000      mov	r3, #0	; 0x0
0x3ffc9eb8:  e0466008      sub	r6, r6, r8
0x3ffc9ebc:  e08a6006      add	r6, sl, r6
0x3ffc9ec0:  e5463001      strb	r3, [r6, #-1]
0x3ffc9ec4:  e1a0000a      mov	r0, sl
0x3ffc9ec8:  e24b1094      sub	r1, fp, #148	; 0x94
0x3ffc9ecc:  eb0068d1      bl	0x3ffe4218

----------------
IN: 
0x3ffe4218:  e1a0c000      mov	ip, r0
0x3ffe421c:  e1a02001      mov	r2, r1
0x3ffe4220:  e3a03000      mov	r3, #0	; 0x0
0x3ffe4224:  e3e00063      mvn	r0, #99	; 0x63
0x3ffe4228:  e1a0100c      mov	r1, ip
0x3ffe422c:  ea000056      b	0x3ffe438c

----------------
IN: 
0x3ffe4580:  e3760026      cmn	r6, #38	; 0x26
0x3ffe4584:  1a000006      bne	0x3ffe45a4

----------------
IN: 
0x3ffe45a4:  e3760a01      cmn	r6, #4096	; 0x1000
0x3ffe45a8:  8a000037      bhi	0x3ffe468c

----------------
IN: 
0x3ffe468c:  e59f3024      ldr	r3, [pc, #36]	; 0x3ffe46b8
0x3ffe4690:  e2666000      rsb	r6, r6, #0	; 0x0
0x3ffe4694:  e08f3003      add	r3, pc, r3
0x3ffe4698:  e5836000      str	r6, [r3]
0x3ffe469c:  e3e06000      mvn	r6, #0	; 0x0
0x3ffe46a0:  eaffffb3      b	0x3ffe4574

----------------
IN: 
0x3ffe4574:  e1a00006      mov	r0, r6
0x3ffe4578:  e28ddf57      add	sp, sp, #348	; 0x15c
0x3ffe457c:  e8bd8ff0      pop	{r4, r5, r6, r7, r8, r9, sl, fp, pc}

----------------
IN: 
0x3ffc9ed0:  e3500000      cmp	r0, #0	; 0x0
0x3ffc9ed4:  13a03001      movne	r3, #1	; 0x1
0x3ffc9ed8:  1a000007      bne	0x3ffc9efc

----------------
IN: 
0x3ffc9efc:  e5053004      str	r3, [r5, #-4]
0x3ffc9f00:  eaffffd6      b	0x3ffc9e60

----------------
IN: 
0x3ffc9e60:  e59f33e4      ldr	r3, [pc, #996]	; 0x3ffca24c
0x3ffc9e64:  e08f3003      add	r3, pc, r3
0x3ffc9e68:  e5933004      ldr	r3, [r3, #4]
0x3ffc9e6c:  e1530004      cmp	r3, r4
0x3ffc9e70:  e2844001      add	r4, r4, #1	; 0x1
0x3ffc9e74:  8affffa5      bhi	0x3ffc9d10

----------------
IN: 
0x3ffc9d10:  e4953004      ldr	r3, [r5], #4
0x3ffc9d14:  e3530001      cmp	r3, #1	; 0x1
0x3ffc9d18:  0a000050      beq	0x3ffc9e60

----------------
IN: 
0x3ffe6314:  e252201c      subs	r2, r2, #28	; 0x1c
0x3ffe6318:  3a000016      bcc	0x3ffe6378

----------------
IN: 
0x3ffe6378:  e212c01c      ands	ip, r2, #28	; 0x1c
0x3ffe637c:  0a000005      beq	0x3ffe6398

----------------
IN: 
0x3ffe6380:  e1a0382e      lsr	r3, lr, #16
0x3ffe6384:  e491e004      ldr	lr, [r1], #4
0x3ffe6388:  e25cc004      subs	ip, ip, #4	; 0x4
0x3ffe638c:  e183380e      orr	r3, r3, lr, lsl #16
0x3ffe6390:  e4803004      str	r3, [r0], #4
0x3ffe6394:  cafffff9      bgt	0x3ffe6380

----------------
IN: 
0x3ffe6398:  e2411002      sub	r1, r1, #2	; 0x2
0x3ffe639c:  eaffffa0      b	0x3ffe6224

----------------
IN: 
0x3ffe61f0:  e4918004      ldr	r8, [r1], #4
0x3ffe61f4:  e491e004      ldr	lr, [r1], #4
0x3ffe61f8:  e08ff00c      add	pc, pc, ip

----------------
IN: 
0x3ffe6218:  e4808004      str	r8, [r0], #4
0x3ffe621c:  e480e004      str	lr, [r0], #4
0x3ffe6220:  e8bd01e0      pop	{r5, r6, r7, r8}
0x3ffe6224:  e1b02f82      lsls	r2, r2, #31
0x3ffe6228:  14d13001      ldrbne	r3, [r1], #1
0x3ffe622c:  24d14001      ldrbcs	r4, [r1], #1
0x3ffe6230:  25d1c000      ldrbcs	ip, [r1]
0x3ffe6234:  14c03001      strbne	r3, [r0], #1
0x3ffe6238:  24c04001      strbcs	r4, [r0], #1
0x3ffe623c:  25c0c000      strbcs	ip, [r0]
0x3ffe6240:  e8bd8011      pop	{r0, r4, pc}

----------------
IN: 
0x3ffc9edc:  e51b3084      ldr	r3, [fp, #-132]
0x3ffc9ee0:  e2033a0f      and	r3, r3, #61440	; 0xf000
0x3ffc9ee4:  e3530901      cmp	r3, #16384	; 0x4000
0x3ffc9ee8:  e51b3098      ldr	r3, [fp, #-152]
0x3ffc9eec:  03a03001      moveq	r3, #1	; 0x1
0x3ffc9ef0:  e50b3098      str	r3, [fp, #-152]
0x3ffc9ef4:  03a03002      moveq	r3, #2	; 0x2
0x3ffc9ef8:  13a03001      movne	r3, #1	; 0x1
0x3ffc9efc:  e5053004      str	r3, [r5, #-4]
0x3ffc9f00:  eaffffd6      b	0x3ffc9e60

----------------
IN: 
0x3ffc9e78:  eaffffd9      b	0x3ffc9de4

----------------
IN: 
0x3ffc9de4:  e51b6098      ldr	r6, [fp, #-152]
0x3ffc9de8:  e3560000      cmp	r6, #0	; 0x0
0x3ffc9dec:  0a000005      beq	0x3ffc9e08

----------------
IN: 
0x3ffc9df0:  e59f3450      ldr	r3, [pc, #1104]	; 0x3ffca248
0x3ffc9df4:  e08f3003      add	r3, pc, r3
0x3ffc9df8:  e5933000      ldr	r3, [r3]
0x3ffc9dfc:  e353000d      cmp	r3, #13	; 0xd
0x3ffc9e00:  13530002      cmpne	r3, #2	; 0x2
0x3ffc9e04:  1a00000b      bne	0x3ffc9e38

----------------
IN: 
0x3ffc9e08:  e51b30b4      ldr	r3, [fp, #-180]
0x3ffc9e0c:  e1833006      orr	r3, r3, r6
0x3ffc9e10:  e50b30b4      str	r3, [fp, #-180]
0x3ffc9e14:  e51b30b0      ldr	r3, [fp, #-176]
0x3ffc9e18:  e5b32004      ldr	r2, [r3, #4]!
0x3ffc9e1c:  e3520000      cmp	r2, #0	; 0x0
0x3ffc9e20:  e50b20a0      str	r2, [fp, #-160]
0x3ffc9e24:  e50b30b0      str	r3, [fp, #-176]
0x3ffc9e28:  1affff97      bne	0x3ffc9c8c

----------------
IN: 
0x3ffc9c8c:  e59f35a0      ldr	r3, [pc, #1440]	; 0x3ffca234
0x3ffc9c90:  e79f5003      ldr	r5, [pc, r3]
0x3ffc9c94:  e2155001      ands	r5, r5, #1	; 0x1
0x3ffc9c98:  1a0000c3      bne	0x3ffc9fac

----------------
IN: 
0x3ffe61e0:  e4914004      ldr	r4, [r1], #4
0x3ffe61e4:  e4915004      ldr	r5, [r1], #4
0x3ffe61e8:  e4916004      ldr	r6, [r1], #4
0x3ffe61ec:  e4917004      ldr	r7, [r1], #4
0x3ffe61f0:  e4918004      ldr	r8, [r1], #4
0x3ffe61f4:  e491e004      ldr	lr, [r1], #4
0x3ffe61f8:  e08ff00c      add	pc, pc, ip

----------------
IN: 
0x3ffe6208:  e4804004      str	r4, [r0], #4
0x3ffe620c:  e4805004      str	r5, [r0], #4
0x3ffe6210:  e4806004      str	r6, [r0], #4
0x3ffe6214:  e4807004      str	r7, [r0], #4
0x3ffe6218:  e4808004      str	r8, [r0], #4
0x3ffe621c:  e480e004      str	lr, [r0], #4
0x3ffe6220:  e8bd01e0      pop	{r5, r6, r7, r8}
0x3ffe6224:  e1b02f82      lsls	r2, r2, #31
0x3ffe6228:  14d13001      ldrbne	r3, [r1], #1
0x3ffe622c:  24d14001      ldrbcs	r4, [r1], #1
0x3ffe6230:  25d1c000      ldrbcs	ip, [r1]
0x3ffe6234:  14c03001      strbne	r3, [r0], #1
0x3ffe6238:  24c04001      strbcs	r4, [r0], #1
0x3ffe623c:  25c0c000      strbcs	ip, [r0]
0x3ffe6240:  e8bd8011      pop	{r0, r4, pc}

----------------
IN: 
0x3ffc9690:  e1d631b4      ldrh	r3, [r6, #20]
0x3ffc9694:  e2433002      sub	r3, r3, #2	; 0x2
0x3ffc9698:  e3530001      cmp	r3, #1	; 0x1
0x3ffc969c:  8a0000f5      bhi	0x3ffc9a78

----------------
IN: 
0x3ffc96a0:  e1d632be      ldrh	r3, [r6, #46]
0x3ffc96a4:  e3530020      cmp	r3, #32	; 0x20
0x3ffc96a8:  1a000070      bne	0x3ffc9870

----------------
IN: 
0x3ffc96ac:  e1d623b0      ldrh	r2, [r6, #48]
0x3ffc96b0:  e5967020      ldr	r7, [r6, #32]
0x3ffc96b4:  e1a09282      lsl	r9, r2, #5
0x3ffc96b8:  e0873282      add	r3, r7, r2, lsl #5
0x3ffc96bc:  e1530004      cmp	r3, r4
0x3ffc96c0:  8a000090      bhi	0x3ffc9908

----------------
IN: 
0x3ffc96c4:  e51b3028      ldr	r3, [fp, #-40]
0x3ffc96c8:  e0837007      add	r7, r3, r7
0x3ffc96cc:  e0879009      add	r9, r7, r9
0x3ffc96d0:  e1570009      cmp	r7, r9
0x3ffc96d4:  2a0000f7      bcs	0x3ffc9ab8

----------------
IN: 
0x3ffc96d8:  e3a03000      mov	r3, #0	; 0x0
0x3ffc96dc:  e59f94b0      ldr	r9, [pc, #1200]	; 0x3ffc9b94
0x3ffc96e0:  e50b3030      str	r3, [fp, #-48]
0x3ffc96e4:  e59f34ac      ldr	r3, [pc, #1196]	; 0x3ffc9b98
0x3ffc96e8:  e08f9009      add	r9, pc, r9
0x3ffc96ec:  e08f3003      add	r3, pc, r3
0x3ffc96f0:  e1a04007      mov	r4, r7
0x3ffc96f4:  e2899064      add	r9, r9, #100	; 0x64
0x3ffc96f8:  e50b3038      str	r3, [fp, #-56]
0x3ffc96fc:  ea000003      b	0x3ffc9710

----------------
IN: 
0x3ffc9710:  e5943000      ldr	r3, [r4]
0x3ffc9714:  e3530004      cmp	r3, #4	; 0x4
0x3ffc9718:  1afffff8      bne	0x3ffc9700

----------------
IN: 
0x3ffc9700:  e2844020      add	r4, r4, #32	; 0x20
0x3ffc9704:  e0873282      add	r3, r7, r2, lsl #5
0x3ffc9708:  e1540003      cmp	r4, r3
0x3ffc970c:  2a00004a      bcs	0x3ffc983c

----------------
IN: 
0x3ffc971c:  e594a010      ldr	sl, [r4, #16]
0x3ffc9720:  e35a001f      cmp	sl, #31	; 0x1f
0x3ffc9724:  9afffff5      bls	0x3ffc9700

----------------
IN: 
0x3ffc9728:  e594301c      ldr	r3, [r4, #28]
0x3ffc972c:  e2433004      sub	r3, r3, #4	; 0x4
0x3ffc9730:  e3d33004      bics	r3, r3, #4	; 0x4
0x3ffc9734:  1afffff1      bne	0x3ffc9700

----------------
IN: 
0x3ffc9738:  e5943004      ldr	r3, [r4, #4]
0x3ffc973c:  e5962000      ldr	r2, [r6]
0x3ffc9740:  e08a1003      add	r1, sl, r3
0x3ffc9744:  e1510002      cmp	r1, r2
0x3ffc9748:  9a000080      bls	0x3ffc9950

----------------
IN: 
0x3ffc9950:  e51b2028      ldr	r2, [fp, #-40]
0x3ffc9954:  e0825003      add	r5, r2, r3
0x3ffc9958:  eaffffa0      b	0x3ffc97e0

----------------
IN: 
0x3ffc97e0:  e3a02010      mov	r2, #16	; 0x10
0x3ffc97e4:  e1a01009      mov	r1, r9
0x3ffc97e8:  e1a00005      mov	r0, r5
0x3ffc97ec:  eb007092      bl	0x3ffe5a3c

----------------
IN: 
0x3ffe5b50:  e3530003      cmp	r3, #3	; 0x3
0x3ffe5b54:  0affffcf      beq	0x3ffe5a98

----------------
IN: 
0x3ffe5b58:  e3530000      cmp	r3, #0	; 0x0
0x3ffe5b5c:  0a000057      beq	0x3ffe5cc0

----------------
IN: 
0x3ffe5cc0:  e1a0300c      mov	r3, ip
0x3ffe5cc4:  e1500008      cmp	r0, r8
0x3ffe5cc8:  e5945004      ldr	r5, [r4, #4]
0x3ffe5ccc:  e5936004      ldr	r6, [r3, #4]
0x3ffe5cd0:  0affff75      beq	0x3ffe5aac

----------------
IN: 
0x3ffe5abc:  e1a0400d      mov	r4, sp
0x3ffe5ac0:  e88d0060      stm	sp, {r5, r6}
0x3ffe5ac4:  e28d0004      add	r0, sp, #4	; 0x4
0x3ffe5ac8:  e4d03001      ldrb	r3, [r0], #1
0x3ffe5acc:  e4d41001      ldrb	r1, [r4], #1
0x3ffe5ad0:  e1530001      cmp	r3, r1
0x3ffe5ad4:  0afffffb      beq	0x3ffe5ac8

----------------
IN: 
0x3ffe5ad8:  e0430001      sub	r0, r3, r1
0x3ffe5adc:  e3500000      cmp	r0, #0	; 0x0
0x3ffe5ae0:  1affffea      bne	0x3ffe5a90

----------------
IN: 
0x3ffc97f0:  e3500000      cmp	r0, #0	; 0x0
0x3ffc97f4:  1affffe9      bne	0x3ffc97a0

----------------
IN: 
0x3ffc97a0:  e594201c      ldr	r2, [r4, #28]
0x3ffc97a4:  e5951000      ldr	r1, [r5]
0x3ffc97a8:  e282300b      add	r3, r2, #11	; 0xb
0x3ffc97ac:  e5950004      ldr	r0, [r5, #4]
0x3ffc97b0:  e0833001      add	r3, r3, r1
0x3ffc97b4:  e2621000      rsb	r1, r2, #0	; 0x0
0x3ffc97b8:  e2422001      sub	r2, r2, #1	; 0x1
0x3ffc97bc:  e0822000      add	r2, r2, r0
0x3ffc97c0:  e0033001      and	r3, r3, r1
0x3ffc97c4:  e0833002      add	r3, r3, r2
0x3ffc97c8:  e0033001      and	r3, r3, r1
0x3ffc97cc:  e24a2020      sub	r2, sl, #32	; 0x20
0x3ffc97d0:  e1530002      cmp	r3, r2
0x3ffc97d4:  8a000049      bhi	0x3ffc9900

----------------
IN: 
0x3ffc97d8:  e04aa003      sub	sl, sl, r3
0x3ffc97dc:  e0855003      add	r5, r5, r3
0x3ffc97e0:  e3a02010      mov	r2, #16	; 0x10
0x3ffc97e4:  e1a01009      mov	r1, r9
0x3ffc97e8:  e1a00005      mov	r0, r5
0x3ffc97ec:  eb007092      bl	0x3ffe5a3c

----------------
IN: 
0x3ffc97f8:  e35a0000      cmp	sl, #0	; 0x0
0x3ffc97fc:  0a00003f      beq	0x3ffc9900

----------------
IN: 
0x3ffc9800:  e2850010      add	r0, r5, #16	; 0x10
0x3ffc9804:  e890000f      ldm	r0, {r0, r1, r2, r3}
0x3ffc9808:  e3500000      cmp	r0, #0	; 0x0
0x3ffc980c:  1a000033      bne	0x3ffc98e0

----------------
IN: 
0x3ffc9810:  e59f0384      ldr	r0, [pc, #900]	; 0x3ffc9b9c
0x3ffc9814:  e20110ff      and	r1, r1, #255	; 0xff
0x3ffc9818:  e08f0000      add	r0, pc, r0
0x3ffc981c:  e20220ff      and	r2, r2, #255	; 0xff
0x3ffc9820:  e5900004      ldr	r0, [r0, #4]
0x3ffc9824:  e0822401      add	r2, r2, r1, lsl #8
0x3ffc9828:  e20330ff      and	r3, r3, #255	; 0xff
0x3ffc982c:  e0833402      add	r3, r3, r2, lsl #8
0x3ffc9830:  e3500000      cmp	r0, #0	; 0x0
0x3ffc9834:  11530000      cmpne	r3, r0
0x3ffc9838:  8a000028      bhi	0x3ffc98e0

----------------
IN: 
0x3ffc9d9c:  e3a02002      mov	r2, #2	; 0x2
0x3ffc9da0:  e5052004      str	r2, [r5, #-4]
0x3ffc9da4:  e3a02001      mov	r2, #1	; 0x1
0x3ffc9da8:  e50b2098      str	r2, [fp, #-152]
0x3ffc9dac:  e51b20ac      ldr	r2, [fp, #-172]
0x3ffc9db0:  e3120301      tst	r2, #67108864	; 0x4000000
0x3ffc9db4:  0a000052      beq	0x3ffc9f04

----------------
IN: 
0x3ffc9f04:  e1a05006      mov	r5, r6
0x3ffc9f08:  e59f2344      ldr	r2, [pc, #836]	; 0x3ffca254
0x3ffc9f0c:  e1a00005      mov	r0, r5
0x3ffc9f10:  e08f2002      add	r2, pc, r2
0x3ffc9f14:  e5922000      ldr	r2, [r2]
0x3ffc9f18:  e50b3098      str	r3, [fp, #-152]
0x3ffc9f1c:  e12fff32      blx	r2

----------------
IN: 
0x3ffc9f20:  e59b3004      ldr	r3, [fp, #4]
0x3ffc9f24:  e3500000      cmp	r0, #0	; 0x0
0x3ffc9f28:  e5830000      str	r0, [r3]
0x3ffc9f2c:  e51b3098      ldr	r3, [fp, #-152]
0x3ffc9f30:  0a0000b8      beq	0x3ffca218

----------------
IN: 
0x3ffc9f34:  e1a02005      mov	r2, r5
0x3ffc9f38:  e1a0100a      mov	r1, sl
0x3ffc9f3c:  e50b3098      str	r3, [fp, #-152]
0x3ffc9f40:  eb007092      bl	0x3ffe6190

----------------
IN: 
0x3ffe61ec:  e4917004      ldr	r7, [r1], #4
0x3ffe61f0:  e4918004      ldr	r8, [r1], #4
0x3ffe61f4:  e491e004      ldr	lr, [r1], #4
0x3ffe61f8:  e08ff00c      add	pc, pc, ip

----------------
IN: 
0x3ffe6214:  e4807004      str	r7, [r0], #4
0x3ffe6218:  e4808004      str	r8, [r0], #4
0x3ffe621c:  e480e004      str	lr, [r0], #4
0x3ffe6220:  e8bd01e0      pop	{r5, r6, r7, r8}
0x3ffe6224:  e1b02f82      lsls	r2, r2, #31
0x3ffe6228:  14d13001      ldrbne	r3, [r1], #1
0x3ffe622c:  24d14001      ldrbcs	r4, [r1], #1
0x3ffe6230:  25d1c000      ldrbcs	ip, [r1]
0x3ffe6234:  14c03001      strbne	r3, [r0], #1
0x3ffe6238:  24c04001      strbcs	r4, [r0], #1
0x3ffe623c:  25c0c000      strbcs	ip, [r0]
0x3ffe6240:  e8bd8011      pop	{r0, r4, pc}

----------------
IN: 
0x3ffc9f44:  e51b3098      ldr	r3, [fp, #-152]
0x3ffc9f48:  e1a00003      mov	r0, r3
0x3ffc9f4c:  e24bd020      sub	sp, fp, #32	; 0x20
0x3ffc9f50:  e8bd8ff0      pop	{r4, r5, r6, r7, r8, r9, sl, fp, pc}

----------------
IN: 
0x3ffccf7c:  e1a02000      mov	r2, r0
0x3ffccf80:  eaffff6b      b	0x3ffccd34

----------------
IN: 
0x3ffccd34:  e59f3648      ldr	r3, [pc, #1608]	; 0x3ffcd384
0x3ffccd38:  e08f3003      add	r3, pc, r3
0x3ffccd3c:  e5933000      ldr	r3, [r3]
0x3ffccd40:  e3130001      tst	r3, #1	; 0x1
0x3ffccd44:  1a0000d9      bne	0x3ffcd0b0

----------------
IN: 
0x3ffccd48:  e59d3020      ldr	r3, [sp, #32]
0x3ffccd4c:  e3530000      cmp	r3, #0	; 0x0
0x3ffccd50:  13a06000      movne	r6, #0	; 0x0
0x3ffccd54:  e3720001      cmn	r2, #1	; 0x1
0x3ffccd58:  0affff80      beq	0x3ffccb60

----------------
IN: 
0x3ffccd5c:  e28d704c      add	r7, sp, #76	; 0x4c
0x3ffccd60:  eaffff55      b	0x3ffccabc

----------------
IN: 
0x3ffccabc:  e59dc278      ldr	ip, [sp, #632]
0x3ffccac0:  e58d5014      str	r5, [sp, #20]
0x3ffccac4:  e58dc00c      str	ip, [sp, #12]
0x3ffccac8:  e59dc040      ldr	ip, [sp, #64]
0x3ffccacc:  e58d8008      str	r8, [sp, #8]
0x3ffccad0:  e58dc000      str	ip, [sp]
0x3ffccad4:  e59fc880      ldr	ip, [pc, #2176]	; 0x3ffcd35c
0x3ffccad8:  e58d6004      str	r6, [sp, #4]
0x3ffccadc:  e08fc00c      add	ip, pc, ip
0x3ffccae0:  e59cc000      ldr	ip, [ip]
0x3ffccae4:  e1a03007      mov	r3, r7
0x3ffccae8:  e58dc044      str	ip, [sp, #68]
0x3ffccaec:  e28dc044      add	ip, sp, #68	; 0x44
0x3ffccaf0:  e1a00004      mov	r0, r4
0x3ffccaf4:  e59d1024      ldr	r1, [sp, #36]
0x3ffccaf8:  e58dc010      str	ip, [sp, #16]
0x3ffccafc:  ebfff9f2      bl	0x3ffcb2cc

----------------
IN: 
0x3ffcb2cc:  e1a0c000      mov	ip, r0
0x3ffcb2d0:  e92d4ff0      push	{r4, r5, r6, r7, r8, r9, sl, fp, lr}
0x3ffcb2d4:  e28db020      add	fp, sp, #32	; 0x20
0x3ffcb2d8:  e24ddf41      sub	sp, sp, #260	; 0x104
0x3ffcb2dc:  e59b0018      ldr	r0, [fp, #24]
0x3ffcb2e0:  e50b30d0      str	r3, [fp, #-208]
0x3ffcb2e4:  e50bc0c0      str	ip, [fp, #-192]
0x3ffcb2e8:  e50b10e4      str	r1, [fp, #-228]
0x3ffcb2ec:  e50b20b0      str	r2, [fp, #-176]
0x3ffcb2f0:  ebffebd3      bl	0x3ffc6244

----------------
IN: 
0x3ffc6244:  e2503000      subs	r3, r0, #0	; 0x0
0x3ffc6248:  0a000014      beq	0x3ffc62a0

----------------
IN: 
0x3ffc62a0:  e59f000c      ldr	r0, [pc, #12]	; 0x3ffc62b4
0x3ffc62a4:  e08f0000      add	r0, pc, r0
0x3ffc62a8:  eaffffee      b	0x3ffc6268

----------------
IN: 
0x3ffc6268:  e5902004      ldr	r2, [r0, #4]
0x3ffc626c:  e3520000      cmp	r2, #0	; 0x0
0x3ffc6270:  112fff1e      bxne	lr

----------------
IN: 
0x3ffcb2f4:  e59b3010      ldr	r3, [fp, #16]
0x3ffcb2f8:  e50b00e0      str	r0, [fp, #-224]
0x3ffcb2fc:  e2133202      ands	r3, r3, #536870912	; 0x20000000
0x3ffcb300:  e50b30dc      str	r3, [fp, #-220]
0x3ffcb304:  0a000169      beq	0x3ffcb8b0

----------------
IN: 
0x3ffcb8b0:  e51b00b0      ldr	r0, [fp, #-176]
0x3ffcb8b4:  e24b1094      sub	r1, fp, #148	; 0x94
0x3ffcb8b8:  eb00626f      bl	0x3ffe427c

----------------
IN: 
0x3ffcb8bc:  e3500000      cmp	r0, #0	; 0x0
0x3ffcb8c0:  ba00026b      blt	0x3ffcc274

----------------
IN: 
0x3ffcb8c4:  e59b2018      ldr	r2, [fp, #24]
0x3ffcb8c8:  e59b1018      ldr	r1, [fp, #24]
0x3ffcb8cc:  e59f3a08      ldr	r3, [pc, #2568]	; 0x3ffcc2dc
0x3ffcb8d0:  e0822102      add	r2, r2, r2, lsl #2
0x3ffcb8d4:  e0812082      add	r2, r1, r2, lsl #1
0x3ffcb8d8:  e08f3003      add	r3, pc, r3
0x3ffcb8dc:  e7934182      ldr	r4, [r3, r2, lsl #3]
0x3ffcb8e0:  e51b008c      ldr	r0, [fp, #-140]
0x3ffcb8e4:  e51b2094      ldr	r2, [fp, #-148]
0x3ffcb8e8:  e51b3090      ldr	r3, [fp, #-144]
0x3ffcb8ec:  e51b1088      ldr	r1, [fp, #-136]
0x3ffcb8f0:  e3540000      cmp	r4, #0	; 0x0
0x3ffcb8f4:  e50b20a4      str	r2, [fp, #-164]
0x3ffcb8f8:  e50b30a0      str	r3, [fp, #-160]
0x3ffcb8fc:  e50b009c      str	r0, [fp, #-156]
0x3ffcb900:  e50b1098      str	r1, [fp, #-152]
0x3ffcb904:  1a000003      bne	0x3ffcb918

----------------
IN: 
0x3ffcb918:  e5d4c19a      ldrb	ip, [r4, #410]
0x3ffcb91c:  e31c0002      tst	ip, #2	; 0x2
0x3ffcb920:  1afffff9      bne	0x3ffcb90c

----------------
IN: 
0x3ffcb924:  e594e1e8      ldr	lr, [r4, #488]
0x3ffcb928:  e594c1ec      ldr	ip, [r4, #492]
0x3ffcb92c:  e15c0003      cmp	ip, r3
0x3ffcb930:  015e0002      cmpeq	lr, r2
0x3ffcb934:  1afffff4      bne	0x3ffcb90c

----------------
IN: 
0x3ffcb90c:  e594400c      ldr	r4, [r4, #12]
0x3ffcb910:  e3540000      cmp	r4, #0	; 0x0
0x3ffcb914:  0a000019      beq	0x3ffcb980

----------------
IN: 
0x3ffcb980:  e59bc018      ldr	ip, [fp, #24]
0x3ffcb984:  e35c0000      cmp	ip, #0	; 0x0
0x3ffcb988:  0afffe66      beq	0x3ffcb328

----------------
IN: 
0x3ffcb328:  e59b3010      ldr	r3, [fp, #16]
0x3ffcb32c:  e2133004      ands	r3, r3, #4	; 0x4
0x3ffcb330:  e50b30d4      str	r3, [fp, #-212]
0x3ffcb334:  1a000217      bne	0x3ffcbb98

----------------
IN: 
0x3ffcb338:  e59f3f64      ldr	r3, [pc, #3940]	; 0x3ffcc2a4
0x3ffcb33c:  e08f3003      add	r3, pc, r3
0x3ffcb340:  e5933000      ldr	r3, [r3]
0x3ffcb344:  e3130040      tst	r3, #64	; 0x40
0x3ffcb348:  1a000317      bne	0x3ffcbfac

----------------
IN: 
0x3ffcb34c:  e59b3018      ldr	r3, [fp, #24]
0x3ffcb350:  e58d3004      str	r3, [sp, #4]
0x3ffcb354:  e59b3010      ldr	r3, [fp, #16]
0x3ffcb358:  e58d3000      str	r3, [sp]
0x3ffcb35c:  e59b3008      ldr	r3, [fp, #8]
0x3ffcb360:  e59b200c      ldr	r2, [fp, #12]
0x3ffcb364:  e51b10c0      ldr	r1, [fp, #-192]
0x3ffcb368:  e59b0004      ldr	r0, [fp, #4]
0x3ffcb36c:  eb001364      bl	0x3ffd0104

----------------
IN: 
0x3ffd012c:  e59f33a8      ldr	r3, [pc, #936]	; 0x3ffd04dc
0x3ffd0130:  e1a00001      mov	r0, r1
0x3ffd0134:  e08f3003      add	r3, pc, r3
0x3ffd0138:  e59361e8      ldr	r6, [r3, #488]
0x3ffd013c:  eb005567      bl	0x3ffe56e0

----------------
IN: 
0x3ffd0140:  e1a07186      lsl	r7, r6, #3
0x3ffd0144:  e2873f9e      add	r3, r7, #632	; 0x278
0x3ffd0148:  e2802001      add	r2, r0, #1	; 0x1
0x3ffd014c:  e1a0a000      mov	sl, r0
0x3ffd0150:  e0830002      add	r0, r3, r2
0x3ffd0154:  e59f3384      ldr	r3, [pc, #900]	; 0x3ffd04e0
0x3ffd0158:  e3a01001      mov	r1, #1	; 0x1
0x3ffd015c:  e08f3003      add	r3, pc, r3
0x3ffd0160:  e5933000      ldr	r3, [r3]
0x3ffd0164:  e58d2004      str	r2, [sp, #4]
0x3ffd0168:  e12fff33      blx	r3

----------------
IN: 
0x3ffcfb0c:  e59f30e0      ldr	r3, [pc, #224]	; 0x3ffcfbf4
0x3ffcfb10:  e08f3003      add	r3, pc, r3
0x3ffcfb14:  e5931010      ldr	r1, [r3, #16]
0x3ffcfb18:  e2413001      sub	r3, r1, #1	; 0x1
0x3ffcfb1c:  e0833004      add	r3, r3, r4
0x3ffcfb20:  e2612000      rsb	r2, r1, #0	; 0x0
0x3ffcfb24:  e0133002      ands	r3, r3, r2
0x3ffcfb28:  03a00001      moveq	r0, #1	; 0x1
0x3ffcfb2c:  13a00000      movne	r0, #0	; 0x0
0x3ffcfb30:  e3540000      cmp	r4, #0	; 0x0
0x3ffcfb34:  03a00000      moveq	r0, #0	; 0x0
0x3ffcfb38:  12000001      andne	r0, r0, #1	; 0x1
0x3ffcfb3c:  e3500000      cmp	r0, #0	; 0x0
0x3ffcfb40:  1a000026      bne	0x3ffcfbe0

----------------
IN: 
0x3ffcfb44:  e3e0c000      mvn	ip, #0	; 0x0
0x3ffcfb48:  e0815003      add	r5, r1, r3
0x3ffcfb4c:  e3a02003      mov	r2, #3	; 0x3
0x3ffcfb50:  e3a03022      mov	r3, #34	; 0x22
0x3ffcfb54:  e1a01005      mov	r1, r5
0x3ffcfb58:  e58d0004      str	r0, [sp, #4]
0x3ffcfb5c:  e58dc000      str	ip, [sp]
0x3ffcfb60:  eb005496      bl	0x3ffe4dc0

----------------
IN: 
0x3ffcfb64:  e3700001      cmn	r0, #1	; 0x1
0x3ffcfb68:  e1a03000      mov	r3, r0
0x3ffcfb6c:  0a00001b      beq	0x3ffcfbe0

----------------
IN: 
0x3ffcfb70:  e59f2080      ldr	r2, [pc, #128]	; 0x3ffcfbf8
0x3ffcfb74:  e08f2002      add	r2, pc, r2
0x3ffcfb78:  e5921000      ldr	r1, [r2]
0x3ffcfb7c:  e1510000      cmp	r1, r0
0x3ffcfb80:  11a00003      movne	r0, r3
0x3ffcfb84:  05920004      ldreq	r0, [r2, #4]
0x3ffcfb88:  e59f206c      ldr	r2, [pc, #108]	; 0x3ffcfbfc
0x3ffcfb8c:  e0833005      add	r3, r3, r5
0x3ffcfb90:  e08f2002      add	r2, pc, r2
0x3ffcfb94:  e5823000      str	r3, [r2]
0x3ffcfb98:  e0801004      add	r1, r0, r4
0x3ffcfb9c:  e59f305c      ldr	r3, [pc, #92]	; 0x3ffcfc00
0x3ffcfba0:  e08f3003      add	r3, pc, r3
0x3ffcfba4:  e5830008      str	r0, [r3, #8]
0x3ffcfba8:  e5831004      str	r1, [r3, #4]
0x3ffcfbac:  e28dd00c      add	sp, sp, #12	; 0xc
0x3ffcfbb0:  e8bd8030      pop	{r4, r5, pc}

----------------
IN: 
0x3ffd03c0:  e59d3030      ldr	r3, [sp, #48]
0x3ffd03c4:  e3130202      tst	r3, #536870912	; 0x20000000
0x3ffd03c8:  01a00009      moveq	r0, r9
0x3ffd03cc:  0affff79      beq	0x3ffd01b8

----------------
IN: 
0x3ffd01b8:  e59d3000      ldr	r3, [sp]
0x3ffd01bc:  e5840004      str	r0, [r4, #4]
0x3ffd01c0:  e2038003      and	r8, r3, #3	; 0x3
0x3ffd01c4:  e59f3318      ldr	r3, [pc, #792]	; 0x3ffd04e4
0x3ffd01c8:  e5845170      str	r5, [r4, #368]
0x3ffd01cc:  e08f3003      add	r3, pc, r3
0x3ffd01d0:  e5933000      ldr	r3, [r3]
0x3ffd01d4:  e584b018      str	fp, [r4, #24]
0x3ffd01d8:  e3130c01      tst	r3, #256	; 0x100
0x3ffd01dc:  e5d43198      ldrb	r3, [r4, #408]
0x3ffd01e0:  e3c33003      bic	r3, r3, #3	; 0x3
0x3ffd01e4:  e1888003      orr	r8, r8, r3
0x3ffd01e8:  03a03001      moveq	r3, #1	; 0x1
0x3ffd01ec:  0584320c      streq	r3, [r4, #524]
0x3ffd01f0:  e3560000      cmp	r6, #0	; 0x0
0x3ffd01f4:  e5c48198      strb	r8, [r4, #408]
0x3ffd01f8:  0a00000f      beq	0x3ffd023c

----------------
IN: 
0x3ffd0268:  e2832e16      add	r2, r3, #352	; 0x160
0x3ffd026c:  e3550000      cmp	r5, #0	; 0x0
0x3ffd0270:  e58421c4      str	r2, [r4, #452]
0x3ffd0274:  0a000056      beq	0x3ffd03d4

----------------
IN: 
0x3ffd0278:  e3a02001      mov	r2, #1	; 0x1
0x3ffd027c:  e1a03005      mov	r3, r5
0x3ffd0280:  e5955170      ldr	r5, [r5, #368]
0x3ffd0284:  e3550000      cmp	r5, #0	; 0x0
0x3ffd0288:  1afffffb      bne	0x3ffd027c

----------------
IN: 
0x3ffd028c:  e3520000      cmp	r2, #0	; 0x0
0x3ffd0290:  159421c4      ldrne	r2, [r4, #452]
0x3ffd0294:  1a00004f      bne	0x3ffd03d8

----------------
IN: 
0x3ffd03d8:  e2833e16      add	r3, r3, #352	; 0x160
0x3ffd03dc:  e1530002      cmp	r3, r2
0x3ffd03e0:  0affffae      beq	0x3ffd02a0

----------------
IN: 
0x3ffd02a0:  e2843e16      add	r3, r4, #352	; 0x160
0x3ffd02a4:  e58431dc      str	r3, [r4, #476]
0x3ffd02a8:  e5d95000      ldrb	r5, [r9]
0x3ffd02ac:  e3550000      cmp	r5, #0	; 0x0
0x3ffd02b0:  0a00003f      beq	0x3ffd03b4

----------------
IN: 
0x3ffd02b4:  e1a00009      mov	r0, r9
0x3ffd02b8:  eb005508      bl	0x3ffe56e0

----------------
IN: 
0x3ffd02bc:  e355002f      cmp	r5, #47	; 0x2f
0x3ffd02c0:  e2803001      add	r3, r0, #1	; 0x1
0x3ffd02c4:  e58d3000      str	r3, [sp]
0x3ffd02c8:  0a00004f      beq	0x3ffd040c

----------------
IN: 
0x3ffd040c:  e59f30e8      ldr	r3, [pc, #232]	; 0x3ffd04fc
0x3ffd0410:  e59d0000      ldr	r0, [sp]
0x3ffd0414:  e08f3003      add	r3, pc, r3
0x3ffd0418:  e5933000      ldr	r3, [r3]
0x3ffd041c:  e12fff33      blx	r3

----------------
IN: 
0x3ffd0420:  e2505000      subs	r5, r0, #0	; 0x0
0x3ffd0424:  11a00005      movne	r0, r5
0x3ffd0428:  1affffd3      bne	0x3ffd037c

----------------
IN: 
0x3ffd037c:  e59d6000      ldr	r6, [sp]
0x3ffd0380:  e1a01009      mov	r1, r9
0x3ffd0384:  e1a02006      mov	r2, r6
0x3ffd0388:  eb005780      bl	0x3ffe6190

----------------
IN: 
0x3ffd038c:  e0800006      add	r0, r0, r6
0x3ffd0390:  e1a02000      mov	r2, r0
0x3ffd0394:  e5703001      ldrb	r3, [r0, #-1]!
0x3ffd0398:  e353002f      cmp	r3, #47	; 0x2f
0x3ffd039c:  1afffffb      bne	0x3ffd0390

----------------
IN: 
0x3ffd0390:  e1a02000      mov	r2, r0
0x3ffd0394:  e5703001      ldrb	r3, [r0, #-1]!
0x3ffd0398:  e353002f      cmp	r3, #47	; 0x2f
0x3ffd039c:  1afffffb      bne	0x3ffd0390

----------------
IN: 
0x3ffd03a0:  e1550000      cmp	r5, r0
0x3ffd03a4:  01a00002      moveq	r0, r2
0x3ffd03a8:  e3a03000      mov	r3, #0	; 0x0
0x3ffd03ac:  e5c03000      strb	r3, [r0]
0x3ffd03b0:  e58451b4      str	r5, [r4, #436]
0x3ffd03b4:  e1a00004      mov	r0, r4
0x3ffd03b8:  e28dd00c      add	sp, sp, #12	; 0xc
0x3ffd03bc:  e8bd8ff0      pop	{r4, r5, r6, r7, r8, r9, sl, fp, pc}

----------------
IN: 
0x3ffcb370:  e2504000      subs	r4, r0, #0	; 0x0
0x3ffcb374:  0a000302      beq	0x3ffcbf84

----------------
IN: 
0x3ffcb378:  e51bc0d0      ldr	ip, [fp, #-208]
0x3ffcb37c:  e1dc33b0      ldrh	r3, [ip, #48]
0x3ffcb380:  e59c2020      ldr	r2, [ip, #32]
0x3ffcb384:  e59c001c      ldr	r0, [ip, #28]
0x3ffcb388:  e59c1000      ldr	r1, [ip]
0x3ffcb38c:  e5840158      str	r0, [r4, #344]
0x3ffcb390:  e0820283      add	r0, r2, r3, lsl #5
0x3ffcb394:  e1500001      cmp	r0, r1
0x3ffcb398:  e1a0100c      mov	r1, ip
0x3ffcb39c:  e1dcc1b4      ldrh	ip, [ip, #20]
0x3ffcb3a0:  e2840f57      add	r0, r4, #348	; 0x15c
0x3ffcb3a4:  e50b00c8      str	r0, [fp, #-200]
0x3ffcb3a8:  e50bc0ec      str	ip, [fp, #-236]
0x3ffcb3ac:  e1c030b0      strh	r3, [r0]
0x3ffcb3b0:  e1a05283      lsl	r5, r3, #5
0x3ffcb3b4:  8a00019b      bhi	0x3ffcba28

----------------
IN: 
0x3ffcb3b8:  e2813004      add	r3, r1, #4	; 0x4
0x3ffcb3bc:  e0833002      add	r3, r3, r2
0x3ffcb3c0:  e50b30d8      str	r3, [fp, #-216]
0x3ffcb3c4:  e51b30c8      ldr	r3, [fp, #-200]
0x3ffcb3c8:  e50bd0f0      str	sp, [fp, #-240]
0x3ffcb3cc:  e1d320b0      ldrh	r2, [r3]
0x3ffcb3d0:  e0623182      rsb	r3, r2, r2, lsl #3
0x3ffcb3d4:  e1a03103      lsl	r3, r3, #2
0x3ffcb3d8:  e2833007      add	r3, r3, #7	; 0x7
0x3ffcb3dc:  e3c33007      bic	r3, r3, #7	; 0x7
0x3ffcb3e0:  e04dd003      sub	sp, sp, r3
0x3ffcb3e4:  e51b30d8      ldr	r3, [fp, #-216]
0x3ffcb3e8:  e28da028      add	sl, sp, #40	; 0x28
0x3ffcb3ec:  e0832282      add	r2, r3, r2, lsl #5
0x3ffcb3f0:  e1530002      cmp	r3, r2
0x3ffcb3f4:  2a000342      bcs	0x3ffcc104

----------------
IN: 
0x3ffcb3f8:  e3a01007      mov	r1, #7	; 0x7
0x3ffcb3fc:  e3a07000      mov	r7, #0	; 0x0
0x3ffcb400:  e50b10bc      str	r1, [fp, #-188]
0x3ffcb404:  e59f1e9c      ldr	r1, [pc, #3740]	; 0x3ffcc2a8
0x3ffcb408:  e1a09007      mov	r9, r7
0x3ffcb40c:  e08f1001      add	r1, pc, r1
0x3ffcb410:  e591e010      ldr	lr, [r1, #16]
0x3ffcb414:  e59f1e90      ldr	r1, [pc, #3728]	; 0x3ffcc2ac
0x3ffcb418:  e50be0f4      str	lr, [fp, #-244]
0x3ffcb41c:  e08f1001      add	r1, pc, r1
0x3ffcb420:  e59118e4      ldr	r1, [r1, #2276]
0x3ffcb424:  e59fce84      ldr	ip, [pc, #3716]	; 0x3ffcc2b0
0x3ffcb428:  e50b10e8      str	r1, [fp, #-232]
0x3ffcb42c:  e1a0100e      mov	r1, lr
0x3ffcb430:  e2611000      rsb	r1, r1, #0	; 0x0
0x3ffcb434:  e50b10a8      str	r1, [fp, #-168]
0x3ffcb438:  e59b1010      ldr	r1, [fp, #16]
0x3ffcb43c:  e24ee001      sub	lr, lr, #1	; 0x1
0x3ffcb440:  e2011302      and	r1, r1, #134217728	; 0x8000000
0x3ffcb444:  e59f0e68      ldr	r0, [pc, #3688]	; 0x3ffcc2b4
0x3ffcb448:  e50be0c4      str	lr, [fp, #-196]
0x3ffcb44c:  e50b10f8      str	r1, [fp, #-248]
0x3ffcb450:  e50b70cc      str	r7, [fp, #-204]
0x3ffcb454:  e50b70b4      str	r7, [fp, #-180]
0x3ffcb458:  e50b70b8      str	r7, [fp, #-184]
0x3ffcb45c:  e5931000      ldr	r1, [r3]
0x3ffcb460:  e3510007      cmp	r1, #7	; 0x7
0x3ffcb464:  8a00000c      bhi	0x3ffcb49c

----------------
IN: 
0x3ffcb49c:  e151000c      cmp	r1, ip
0x3ffcb4a0:  0a0000fc      beq	0x3ffcb898

----------------
IN: 
0x3ffcb4a4:  e1510000      cmp	r1, r0
0x3ffcb4a8:  05931008      ldreq	r1, [r3, #8]
0x3ffcb4ac:  05841258      streq	r1, [r4, #600]
0x3ffcb4b0:  05931014      ldreq	r1, [r3, #20]
0x3ffcb4b4:  0584125c      streq	r1, [r4, #604]
0x3ffcb4b8:  e2833020      add	r3, r3, #32	; 0x20
0x3ffcb4bc:  e1530002      cmp	r3, r2
0x3ffcb4c0:  3affffe5      bcc	0x3ffcb45c

----------------
IN: 
0x3ffcb45c:  e5931000      ldr	r1, [r3]
0x3ffcb460:  e3510007      cmp	r1, #7	; 0x7
0x3ffcb464:  8a00000c      bhi	0x3ffcb49c

----------------
IN: 
0x3ffcb468:  e3510000      cmp	r1, #0	; 0x0
0x3ffcb46c:  0a000011      beq	0x3ffcb4b8

----------------
IN: 
0x3ffcb470:  e2411001      sub	r1, r1, #1	; 0x1
0x3ffcb474:  e3510006      cmp	r1, #6	; 0x6
0x3ffcb478:  908ff101      addls	pc, pc, r1, lsl #2

----------------
IN: 
0x3ffcb494:  ea0000f9      b	0x3ffcb880

----------------
IN: 
0x3ffcb880:  e5931008      ldr	r1, [r3, #8]
0x3ffcb884:  e2833020      add	r3, r3, #32	; 0x20
0x3ffcb888:  e1530002      cmp	r3, r2
0x3ffcb88c:  e5841154      str	r1, [r4, #340]
0x3ffcb890:  3afffef1      bcc	0x3ffcb45c

----------------
IN: 
0x3ffcb488:  ea00000a      b	0x3ffcb4b8

----------------
IN: 
0x3ffcb4b8:  e2833020      add	r3, r3, #32	; 0x20
0x3ffcb4bc:  e1530002      cmp	r3, r2
0x3ffcb4c0:  3affffe5      bcc	0x3ffcb45c

----------------
IN: 
0x3ffcb480:  ea0000c4      b	0x3ffcb798

----------------
IN: 
0x3ffcb798:  e51b60c4      ldr	r6, [fp, #-196]
0x3ffcb79c:  e9934002      ldmib	r3, {r1, lr}
0x3ffcb7a0:  e50b10ac      str	r1, [fp, #-172]
0x3ffcb7a4:  e04e1001      sub	r1, lr, r1
0x3ffcb7a8:  e1110006      tst	r1, r6
0x3ffcb7ac:  1a0000ca      bne	0x3ffcbadc

----------------
IN: 
0x3ffcb7b0:  e51b50a8      ldr	r5, [fp, #-168]
0x3ffcb7b4:  e5931010      ldr	r1, [r3, #16]
0x3ffcb7b8:  e5938014      ldr	r8, [r3, #20]
0x3ffcb7bc:  e08e1001      add	r1, lr, r1
0x3ffcb7c0:  e088800e      add	r8, r8, lr
0x3ffcb7c4:  e00ee005      and	lr, lr, r5
0x3ffcb7c8:  e0695189      rsb	r5, r9, r9, lsl #3
0x3ffcb7cc:  e78ae105      str	lr, [sl, r5, lsl #2]
0x3ffcb7d0:  e08a5105      add	r5, sl, r5, lsl #2
0x3ffcb7d4:  e585800c      str	r8, [r5, #12]
0x3ffcb7d8:  e51b80a8      ldr	r8, [fp, #-168]
0x3ffcb7dc:  e593701c      ldr	r7, [r3, #28]
0x3ffcb7e0:  e5851008      str	r1, [r5, #8]
0x3ffcb7e4:  e0861001      add	r1, r6, r1
0x3ffcb7e8:  e0011008      and	r1, r1, r8
0x3ffcb7ec:  e5851004      str	r1, [r5, #4]
0x3ffcb7f0:  e2471001      sub	r1, r7, #1	; 0x1
0x3ffcb7f4:  e1110007      tst	r1, r7
0x3ffcb7f8:  e2898001      add	r8, r9, #1	; 0x1
0x3ffcb7fc:  e1a01189      lsl	r1, r9, #3
0x3ffcb800:  1a000003      bne	0x3ffcb814

----------------
IN: 
0x3ffcb804:  e51b60b8      ldr	r6, [fp, #-184]
0x3ffcb808:  e1560007      cmp	r6, r7
0x3ffcb80c:  31a06007      movcc	r6, r7
0x3ffcb810:  e50b60b8      str	r6, [fp, #-184]
0x3ffcb814:  e51b70a8      ldr	r7, [fp, #-168]
0x3ffcb818:  e51b60ac      ldr	r6, [fp, #-172]
0x3ffcb81c:  e3580001      cmp	r8, #1	; 0x1
0x3ffcb820:  e0066007      and	r6, r6, r7
0x3ffcb824:  e0417009      sub	r7, r1, r9
0x3ffcb828:  e08a7107      add	r7, sl, r7, lsl #2
0x3ffcb82c:  e5876014      str	r6, [r7, #20]
0x3ffcb830:  9a000004      bls	0x3ffcb848

----------------
IN: 
0x3ffcb848:  e593e018      ldr	lr, [r3, #24]
0x3ffcb84c:  e59f5a84      ldr	r5, [pc, #2692]	; 0x3ffcc2d8
0x3ffcb850:  e20ee007      and	lr, lr, #7	; 0x7
0x3ffcb854:  e1a0e10e      lsl	lr, lr, #2
0x3ffcb858:  e0411009      sub	r1, r1, r9
0x3ffcb85c:  e1a0ee55      asr	lr, r5, lr
0x3ffcb860:  e2833020      add	r3, r3, #32	; 0x20
0x3ffcb864:  e08a1101      add	r1, sl, r1, lsl #2
0x3ffcb868:  e20ee00f      and	lr, lr, #15	; 0xf
0x3ffcb86c:  e1530002      cmp	r3, r2
0x3ffcb870:  e1a09008      mov	r9, r8
0x3ffcb874:  e581e018      str	lr, [r1, #24]
0x3ffcb878:  3afffef7      bcc	0x3ffcb45c

----------------
IN: 
0x3ffcb834:  e5155018      ldr	r5, [r5, #-24]
0x3ffcb838:  e51b60b4      ldr	r6, [fp, #-180]
0x3ffcb83c:  e15e0005      cmp	lr, r5
0x3ffcb840:  13a06001      movne	r6, #1	; 0x1
0x3ffcb844:  e50b60b4      str	r6, [fp, #-180]
0x3ffcb848:  e593e018      ldr	lr, [r3, #24]
0x3ffcb84c:  e59f5a84      ldr	r5, [pc, #2692]	; 0x3ffcc2d8
0x3ffcb850:  e20ee007      and	lr, lr, #7	; 0x7
0x3ffcb854:  e1a0e10e      lsl	lr, lr, #2
0x3ffcb858:  e0411009      sub	r1, r1, r9
0x3ffcb85c:  e1a0ee55      asr	lr, r5, lr
0x3ffcb860:  e2833020      add	r3, r3, #32	; 0x20
0x3ffcb864:  e08a1101      add	r1, sl, r1, lsl #2
0x3ffcb868:  e20ee00f      and	lr, lr, #15	; 0xf
0x3ffcb86c:  e1530002      cmp	r3, r2
0x3ffcb870:  e1a09008      mov	r9, r8
0x3ffcb874:  e581e018      str	lr, [r1, #24]
0x3ffcb878:  3afffef7      bcc	0x3ffcb45c

----------------
IN: 
0x3ffcb484:  ea0000ac      b	0x3ffcb73c

----------------
IN: 
0x3ffcb73c:  e5931010      ldr	r1, [r3, #16]
0x3ffcb740:  e3510000      cmp	r1, #0	; 0x0
0x3ffcb744:  03a01001      moveq	r1, #1	; 0x1
0x3ffcb748:  050b10cc      streq	r1, [fp, #-204]
0x3ffcb74c:  0affff59      beq	0x3ffcb4b8

----------------
IN: 
0x3ffcb750:  e593e008      ldr	lr, [r3, #8]
0x3ffcb754:  e5931014      ldr	r1, [r3, #20]
0x3ffcb758:  e584e008      str	lr, [r4, #8]
0x3ffcb75c:  e51be0c8      ldr	lr, [fp, #-200]
0x3ffcb760:  e1a011a1      lsr	r1, r1, #3
0x3ffcb764:  e1ce10b2      strh	r1, [lr, #2]
0x3ffcb768:  e5931018      ldr	r1, [r3, #24]
0x3ffcb76c:  e5d4e19a      ldrb	lr, [r4, #410]
0x3ffcb770:  e1a010a1      lsr	r1, r1, #1
0x3ffcb774:  e2211001      eor	r1, r1, #1	; 0x1
0x3ffcb778:  e2011001      and	r1, r1, #1	; 0x1
0x3ffcb77c:  e3cee020      bic	lr, lr, #32	; 0x20
0x3ffcb780:  e2833020      add	r3, r3, #32	; 0x20
0x3ffcb784:  e18ee281      orr	lr, lr, r1, lsl #5
0x3ffcb788:  e1530002      cmp	r3, r2
0x3ffcb78c:  e5c4e19a      strb	lr, [r4, #410]
0x3ffcb790:  3affff31      bcc	0x3ffcb45c

----------------
IN: 
0x3ffcb48c:  ea000009      b	0x3ffcb4b8

----------------
IN: 
0x3ffcb498:  ea000084      b	0x3ffcb6b0

----------------
IN: 
0x3ffcb6b0:  e5931014      ldr	r1, [r3, #20]
0x3ffcb6b4:  e3510000      cmp	r1, #0	; 0x0
0x3ffcb6b8:  0affff7e      beq	0x3ffcb4b8

----------------
IN: 
0x3ffcb6bc:  e5841240      str	r1, [r4, #576]
0x3ffcb6c0:  e593101c      ldr	r1, [r3, #28]
0x3ffcb6c4:  e5841244      str	r1, [r4, #580]
0x3ffcb6c8:  e593e008      ldr	lr, [r3, #8]
0x3ffcb6cc:  e3510000      cmp	r1, #0	; 0x0
0x3ffcb6d0:  12411001      subne	r1, r1, #1	; 0x1
0x3ffcb6d4:  1001100e      andne	r1, r1, lr
0x3ffcb6d8:  e5841248      str	r1, [r4, #584]
0x3ffcb6dc:  e5d41198      ldrb	r1, [r4, #408]
0x3ffcb6e0:  e2011003      and	r1, r1, #3	; 0x3
0x3ffcb6e4:  e3510001      cmp	r1, #1	; 0x1
0x3ffcb6e8:  e5931010      ldr	r1, [r3, #16]
0x3ffcb6ec:  e584e238      str	lr, [r4, #568]
0x3ffcb6f0:  e584123c      str	r1, [r4, #572]
0x3ffcb6f4:  0affff6f      beq	0x3ffcb4b8

----------------
IN: 
0x3ffcb898:  e5931018      ldr	r1, [r3, #24]
0x3ffcb89c:  e2833020      add	r3, r3, #32	; 0x20
0x3ffcb8a0:  e1530002      cmp	r3, r2
0x3ffcb8a4:  e50b10bc      str	r1, [fp, #-188]
0x3ffcb8a8:  3afffeeb      bcc	0x3ffcb45c

----------------
IN: 
0x3ffcb4c4:  e3590000      cmp	r9, #0	; 0x0
0x3ffcb4c8:  e51b70b8      ldr	r7, [fp, #-184]
0x3ffcb4cc:  0a00030c      beq	0x3ffcc104

----------------
IN: 
0x3ffcb4d0:  e3a03000      mov	r3, #0	; 0x0
0x3ffcb4d4:  e1a02189      lsl	r2, r9, #3
0x3ffcb4d8:  e50b20ac      str	r2, [fp, #-172]
0x3ffcb4dc:  e0691189      rsb	r1, r9, r9, lsl #3
0x3ffcb4e0:  e28a2010      add	r2, sl, #16	; 0x10
0x3ffcb4e4:  e7827103      str	r7, [r2, r3, lsl #2]
0x3ffcb4e8:  e2833007      add	r3, r3, #7	; 0x7
0x3ffcb4ec:  e1510003      cmp	r1, r3
0x3ffcb4f0:  1afffffb      bne	0x3ffcb4e4

----------------
IN: 
0x3ffcb4e4:  e7827103      str	r7, [r2, r3, lsl #2]
0x3ffcb4e8:  e2833007      add	r3, r3, #7	; 0x7
0x3ffcb4ec:  e1510003      cmp	r1, r3
0x3ffcb4f0:  1afffffb      bne	0x3ffcb4e4

----------------
IN: 
0x3ffcb4f4:  e51b30ec      ldr	r3, [fp, #-236]
0x3ffcb4f8:  e3530003      cmp	r3, #3	; 0x3
0x3ffcb4fc:  1a000310      bne	0x3ffcc144

----------------
IN: 
0x3ffcb500:  e5943008      ldr	r3, [r4, #8]
0x3ffcb504:  e3530000      cmp	r3, #0	; 0x0
0x3ffcb508:  0a00049e      beq	0x3ffcc788

----------------
IN: 
0x3ffcb50c:  e51b30cc      ldr	r3, [fp, #-204]
0x3ffcb510:  e3530000      cmp	r3, #0	; 0x0
0x3ffcb514:  1a00033a      bne	0x3ffcc204

----------------
IN: 
0x3ffcb518:  e59f2d98      ldr	r2, [pc, #3480]	; 0x3ffcc2b8
0x3ffcb51c:  e2493001      sub	r3, r9, #1	; 0x1
0x3ffcb520:  e0633183      rsb	r3, r3, r3, lsl #3
0x3ffcb524:  e08f2002      add	r2, pc, r2
0x3ffcb528:  e08a3103      add	r3, sl, r3, lsl #2
0x3ffcb52c:  e592016c      ldr	r0, [r2, #364]
0x3ffcb530:  e59a6000      ldr	r6, [sl]
0x3ffcb534:  e593300c      ldr	r3, [r3, #12]
0x3ffcb538:  e59a5010      ldr	r5, [sl, #16]
0x3ffcb53c:  e51b20f4      ldr	r2, [fp, #-244]
0x3ffcb540:  e0433006      sub	r3, r3, r6
0x3ffcb544:  e1520005      cmp	r2, r5
0x3ffcb548:  e50b30a8      str	r3, [fp, #-168]
0x3ffcb54c:  e0000006      and	r0, r0, r6
0x3ffcb550:  3a0003b4      bcc	0x3ffcc428

----------------
IN: 
0x3ffcc428:  e51b30a8      ldr	r3, [fp, #-168]
0x3ffcc42c:  e3a02000      mov	r2, #0	; 0x0
0x3ffcc430:  e1550003      cmp	r5, r3
0x3ffcc434:  90858003      addls	r8, r5, r3
0x3ffcc438:  e3e03000      mvn	r3, #0	; 0x0
0x3ffcc43c:  81a08085      lslhi	r8, r5, #1
0x3ffcc440:  e58d3000      str	r3, [sp]
0x3ffcc444:  e1a01008      mov	r1, r8
0x3ffcc448:  e3a03022      mov	r3, #34	; 0x22
0x3ffcc44c:  e58d2004      str	r2, [sp, #4]
0x3ffcc450:  eb00625a      bl	0x3ffe4dc0

----------------
IN: 
0x3ffcc454:  e3700001      cmn	r0, #1	; 0x1
0x3ffcc458:  e1a07000      mov	r7, r0
0x3ffcc45c:  0afffc90      beq	0x3ffcb6a4

----------------
IN: 
0x3ffcc460:  e59a3014      ldr	r3, [sl, #20]
0x3ffcc464:  e59a2018      ldr	r2, [sl, #24]
0x3ffcc468:  e58d3004      str	r3, [sp, #4]
0x3ffcc46c:  e51b30b0      ldr	r3, [fp, #-176]
0x3ffcc470:  e58d3000      str	r3, [sp]
0x3ffcc474:  e2453001      sub	r3, r5, #1	; 0x1
0x3ffcc478:  e0833000      add	r3, r3, r0
0x3ffcc47c:  e2650000      rsb	r0, r5, #0	; 0x0
0x3ffcc480:  e0000003      and	r0, r0, r3
0x3ffcc484:  e51b10a8      ldr	r1, [fp, #-168]
0x3ffcc488:  e51f30fc      ldr	r3, [pc, #-252]	; 0x3ffcc394
0x3ffcc48c:  eb00624b      bl	0x3ffe4dc0

----------------
IN: 
0x3ffcc490:  e3700001      cmn	r0, #1	; 0x1
0x3ffcc494:  e1a05000      mov	r5, r0
0x3ffcc498:  0a0000bd      beq	0x3ffcc794

----------------
IN: 
0x3ffcc49c:  e0501007      subs	r1, r0, r7
0x3ffcc4a0:  1a00005a      bne	0x3ffcc610

----------------
IN: 
0x3ffcc610:  e1a00007      mov	r0, r7
0x3ffcc614:  eb006209      bl	0x3ffe4e40

----------------
IN: 
0x3ffe4e40:  e52d7004      push	{r7}		; (str r7, [sp, #-4]!)
0x3ffe4e44:  e3a0705b      mov	r7, #91	; 0x5b
0x3ffe4e48:  ef000000      svc	0x00000000

----------------
IN: 
0x3ffe4e4c:  e49d7004      pop	{r7}		; (ldr r7, [sp], #4)
0x3ffe4e50:  e3700a01      cmn	r0, #4096	; 0x1000
0x3ffe4e54:  312fff1e      bxcc	lr

----------------
IN: 
0x3ffcc618:  eaffffa1      b	0x3ffcc4a4

----------------
IN: 
0x3ffcc4a4:  e51f2114      ldr	r2, [pc, #-276]	; 0x3ffcc398
0x3ffcc4a8:  e51b10a8      ldr	r1, [fp, #-168]
0x3ffcc4ac:  e08f2002      add	r2, pc, r2
0x3ffcc4b0:  e5922010      ldr	r2, [r2, #16]
0x3ffcc4b4:  e0883007      add	r3, r8, r7
0x3ffcc4b8:  e2420001      sub	r0, r2, #1	; 0x1
0x3ffcc4bc:  e0800001      add	r0, r0, r1
0x3ffcc4c0:  e0800005      add	r0, r0, r5
0x3ffcc4c4:  e2622000      rsb	r2, r2, #0	; 0x0
0x3ffcc4c8:  e0000002      and	r0, r0, r2
0x3ffcc4cc:  e0531000      subs	r1, r3, r0
0x3ffcc4d0:  1a00004c      bne	0x3ffcc608

----------------
IN: 
0x3ffcc608:  eb00620c      bl	0x3ffe4e40

----------------
IN: 
0x3ffcc60c:  eaffffb0      b	0x3ffcc4d4

----------------
IN: 
0x3ffcc4d4:  e58451b8      str	r5, [r4, #440]
0x3ffcc4d8:  eafffc29      b	0x3ffcb584

----------------
IN: 
0x3ffcb584:  e51b30b4      ldr	r3, [fp, #-180]
0x3ffcb588:  e0456006      sub	r6, r5, r6
0x3ffcb58c:  e3530000      cmp	r3, #0	; 0x0
0x3ffcb590:  e51b30a8      ldr	r3, [fp, #-168]
0x3ffcb594:  e5846000      str	r6, [r4]
0x3ffcb598:  e0835005      add	r5, r3, r5
0x3ffcb59c:  e58451bc      str	r5, [r4, #444]
0x3ffcb5a0:  1a00012f      bne	0x3ffcba64

----------------
IN: 
0x3ffcba64:  e51b30ac      ldr	r3, [fp, #-172]
0x3ffcba68:  e59a0004      ldr	r0, [sl, #4]
0x3ffcba6c:  e0433009      sub	r3, r3, r9
0x3ffcba70:  e08a3103      add	r3, sl, r3, lsl #2
0x3ffcba74:  e513101c      ldr	r1, [r3, #-28]
0x3ffcba78:  e3a02000      mov	r2, #0	; 0x0
0x3ffcba7c:  e0411000      sub	r1, r1, r0
0x3ffcba80:  e0860000      add	r0, r6, r0
0x3ffcba84:  eb0064fd      bl	0x3ffe4e80

----------------
IN: 
0x3ffe4e80:  e52d7004      push	{r7}		; (str r7, [sp, #-4]!)
0x3ffe4e84:  e3a0707d      mov	r7, #125	; 0x7d
0x3ffe4e88:  ef000000      svc	0x00000000

----------------
IN: 
0x3ffe4e8c:  e49d7004      pop	{r7}		; (ldr r7, [sp], #4)
0x3ffe4e90:  e3700a01      cmn	r0, #4096	; 0x1000
0x3ffe4e94:  312fff1e      bxcc	lr

----------------
IN: 
0x3ffcba88:  e3500000      cmp	r0, #0	; 0x0
0x3ffcba8c:  aafffec4      bge	0x3ffcb5a4

----------------
IN: 
0x3ffcb5a4:  e1a0500a      mov	r5, sl
0x3ffcb5a8:  e5d4319a      ldrb	r3, [r4, #410]
0x3ffcb5ac:  e3833004      orr	r3, r3, #4	; 0x4
0x3ffcb5b0:  e5c4319a      strb	r3, [r4, #410]
0x3ffcb5b4:  e5953018      ldr	r3, [r5, #24]
0x3ffcb5b8:  e3130004      tst	r3, #4	; 0x4
0x3ffcb5bc:  e50b30b4      str	r3, [fp, #-180]
0x3ffcb5c0:  15952004      ldrne	r2, [r5, #4]
0x3ffcb5c4:  15943000      ldrne	r3, [r4]
0x3ffcb5c8:  10833002      addne	r3, r3, r2
0x3ffcb5cc:  158431c0      strne	r3, [r4, #448]
0x3ffcb5d0:  e5943154      ldr	r3, [r4, #340]
0x3ffcb5d4:  e3530000      cmp	r3, #0	; 0x0
0x3ffcb5d8:  0a00012f      beq	0x3ffcba9c

----------------
IN: 
0x3ffcb5dc:  e595700c      ldr	r7, [r5, #12]
0x3ffcb5e0:  e5958008      ldr	r8, [r5, #8]
0x3ffcb5e4:  e1570008      cmp	r7, r8
0x3ffcb5e8:  9a000017      bls	0x3ffcb64c

----------------
IN: 
0x3ffcb64c:  e285501c      add	r5, r5, #28	; 0x1c
0x3ffcb650:  e51b30ac      ldr	r3, [fp, #-172]
0x3ffcb654:  e0433009      sub	r3, r3, r9
0x3ffcb658:  e08a3103      add	r3, sl, r3, lsl #2
0x3ffcb65c:  e1550003      cmp	r5, r3
0x3ffcb660:  2a000157      bcs	0x3ffcbbc4

----------------
IN: 
0x3ffcb664:  e5951004      ldr	r1, [r5, #4]
0x3ffcb668:  e5953000      ldr	r3, [r5]
0x3ffcb66c:  e1510003      cmp	r1, r3
0x3ffcb670:  9affffcf      bls	0x3ffcb5b4

----------------
IN: 
0x3ffcb674:  e5940000      ldr	r0, [r4]
0x3ffcb678:  e0411003      sub	r1, r1, r3
0x3ffcb67c:  e0830000      add	r0, r3, r0
0x3ffcb680:  e5953014      ldr	r3, [r5, #20]
0x3ffcb684:  e5952018      ldr	r2, [r5, #24]
0x3ffcb688:  e58d3004      str	r3, [sp, #4]
0x3ffcb68c:  e51b30b0      ldr	r3, [fp, #-176]
0x3ffcb690:  e58d3000      str	r3, [sp]
0x3ffcb694:  e59f3cf8      ldr	r3, [pc, #3320]	; 0x3ffcc394
0x3ffcb698:  eb0065c8      bl	0x3ffe4dc0

----------------
IN: 
0x3ffcb69c:  e3700001      cmn	r0, #1	; 0x1
0x3ffcb6a0:  1affffc3      bne	0x3ffcb5b4

----------------
IN: 
0x3ffcb5b4:  e5953018      ldr	r3, [r5, #24]
0x3ffcb5b8:  e3130004      tst	r3, #4	; 0x4
0x3ffcb5bc:  e50b30b4      str	r3, [fp, #-180]
0x3ffcb5c0:  15952004      ldrne	r2, [r5, #4]
0x3ffcb5c4:  15943000      ldrne	r3, [r4]
0x3ffcb5c8:  10833002      addne	r3, r3, r2
0x3ffcb5cc:  158431c0      strne	r3, [r4, #448]
0x3ffcb5d0:  e5943154      ldr	r3, [r4, #340]
0x3ffcb5d4:  e3530000      cmp	r3, #0	; 0x0
0x3ffcb5d8:  0a00012f      beq	0x3ffcba9c

----------------
IN: 
0x3ffcb5ec:  e59f3ccc      ldr	r3, [pc, #3276]	; 0x3ffcc2c0
0x3ffcb5f0:  e5942000      ldr	r2, [r4]
0x3ffcb5f4:  e08f3003      add	r3, pc, r3
0x3ffcb5f8:  e5931010      ldr	r1, [r3, #16]
0x3ffcb5fc:  e0888002      add	r8, r8, r2
0x3ffcb600:  e2416001      sub	r6, r1, #1	; 0x1
0x3ffcb604:  e0866008      add	r6, r6, r8
0x3ffcb608:  e2610000      rsb	r0, r1, #0	; 0x0
0x3ffcb60c:  e0066000      and	r6, r6, r0
0x3ffcb610:  e0877002      add	r7, r7, r2
0x3ffcb614:  e1560007      cmp	r6, r7
0x3ffcb618:  21a06007      movcs	r6, r7
0x3ffcb61c:  e1580006      cmp	r8, r6
0x3ffcb620:  2a000007      bcs	0x3ffcb644

----------------
IN: 
0x3ffcb624:  e51b20b4      ldr	r2, [fp, #-180]
0x3ffcb628:  e2122002      ands	r2, r2, #2	; 0x2
0x3ffcb62c:  e50b20b8      str	r2, [fp, #-184]
0x3ffcb630:  0a000402      beq	0x3ffcc640

----------------
IN: 
0x3ffcb634:  e3a01000      mov	r1, #0	; 0x0
0x3ffcb638:  e1a00008      mov	r0, r8
0x3ffcb63c:  e0462008      sub	r2, r6, r8
0x3ffcb640:  eb006aa6      bl	0x3ffe60e0

----------------
IN: 
0x3ffcb644:  e1570006      cmp	r7, r6
0x3ffcb648:  8a000267      bhi	0x3ffcbfec

----------------
IN: 
0x3ffcbfec:  e3e03000      mvn	r3, #0	; 0x0
0x3ffcbff0:  e3a0c000      mov	ip, #0	; 0x0
0x3ffcbff4:  e51b20b4      ldr	r2, [fp, #-180]
0x3ffcbff8:  e1a00006      mov	r0, r6
0x3ffcbffc:  e88d1008      stm	sp, {r3, ip}

----------------
IN: 
0x3ffcc000:  e0471006      sub	r1, r7, r6
0x3ffcc004:  e3a03032      mov	r3, #50	; 0x32
0x3ffcc008:  eb00636c      bl	0x3ffe4dc0

----------------
IN: 
0x3ffcc00c:  e3700001      cmn	r0, #1	; 0x1
0x3ffcc010:  1afffd8d      bne	0x3ffcb64c

----------------
IN: 
0x3ffcbbc4:  e5943008      ldr	r3, [r4, #8]
0x3ffcbbc8:  e51bd0f0      ldr	sp, [fp, #-240]
0x3ffcbbcc:  e3530000      cmp	r3, #0	; 0x0
0x3ffcbbd0:  0a00014e      beq	0x3ffcc110

----------------
IN: 
0x3ffcbbd4:  e5946000      ldr	r6, [r4]
0x3ffcbbd8:  e0832006      add	r2, r3, r6
0x3ffcbbdc:  e3520000      cmp	r2, #0	; 0x0
0x3ffcbbe0:  e5842008      str	r2, [r4, #8]
0x3ffcbbe4:  0a000149      beq	0x3ffcc110

----------------
IN: 
0x3ffcbbe8:  e7933006      ldr	r3, [r3, r6]
0x3ffcbbec:  e2841020      add	r1, r4, #32	; 0x20
0x3ffcbbf0:  e3530000      cmp	r3, #0	; 0x0
0x3ffcbbf4:  0a00001c      beq	0x3ffcbc6c

----------------
IN: 
0x3ffcbbf8:  e3e0c209      mvn	ip, #-1879048192	; 0x90000000
0x3ffcbbfc:  e59f570c      ldr	r5, [pc, #1804]	; 0x3ffcc310
0x3ffcbc00:  e59f770c      ldr	r7, [pc, #1804]	; 0x3ffcc314
0x3ffcbc04:  e59f970c      ldr	r9, [pc, #1804]	; 0x3ffcc318
0x3ffcbc08:  e59f870c      ldr	r8, [pc, #1804]	; 0x3ffcc31c
0x3ffcbc0c:  e59fe70c      ldr	lr, [pc, #1804]	; 0x3ffcc320
0x3ffcbc10:  e3530022      cmp	r3, #34	; 0x22
0x3ffcbc14:  9a000010      bls	0x3ffcbc5c

----------------
IN: 
0x3ffcbc5c:  e7812103      str	r2, [r1, r3, lsl #2]
0x3ffcbc60:  e5b23008      ldr	r3, [r2, #8]!
0x3ffcbc64:  e3530000      cmp	r3, #0	; 0x0
0x3ffcbc68:  1affffe8      bne	0x3ffcbc10

----------------
IN: 
0x3ffcbc10:  e3530022      cmp	r3, #34	; 0x22
0x3ffcbc14:  9a000010      bls	0x3ffcbc5c

----------------
IN: 
0x3ffcbc18:  e04c0003      sub	r0, ip, r3
0x3ffcbc1c:  e350000f      cmp	r0, #15	; 0xf
0x3ffcbc20:  904e3003      subls	r3, lr, r3
0x3ffcbc24:  9a00000c      bls	0x3ffcbc5c

----------------
IN: 
0x3ffcbc28:  e1a00083      lsl	r0, r3, #1
0x3ffcbc2c:  e3700008      cmn	r0, #8	; 0x8
0x3ffcbc30:  e1a000c0      asr	r0, r0, #1
0x3ffcbc34:  82603032      rsbhi	r3, r0, #50	; 0x32
0x3ffcbc38:  8a000007      bhi	0x3ffcbc5c

----------------
IN: 
0x3ffcbc3c:  e0450003      sub	r0, r5, r3
0x3ffcbc40:  e350000b      cmp	r0, #11	; 0xb
0x3ffcbc44:  90483003      subls	r3, r8, r3
0x3ffcbc48:  9a000003      bls	0x3ffcbc5c

----------------
IN: 
0x3ffcbc4c:  e0470003      sub	r0, r7, r3
0x3ffcbc50:  e350000a      cmp	r0, #10	; 0xa
0x3ffcbc54:  8a000001      bhi	0x3ffcbc60

----------------
IN: 
0x3ffcbc58:  e0493003      sub	r3, r9, r3
0x3ffcbc5c:  e7812103      str	r2, [r1, r3, lsl #2]
0x3ffcbc60:  e5b23008      ldr	r3, [r2, #8]!
0x3ffcbc64:  e3530000      cmp	r3, #0	; 0x0
0x3ffcbc68:  1affffe8      bne	0x3ffcbc10

----------------
IN: 
0x3ffcbc6c:  e3560000      cmp	r6, #0	; 0x0
0x3ffcbc70:  0a000002      beq	0x3ffcbc80

----------------
IN: 
0x3ffcbc74:  e5d4319a      ldrb	r3, [r4, #410]
0x3ffcbc78:  e3130020      tst	r3, #32	; 0x20
0x3ffcbc7c:  0a0000ee      beq	0x3ffcc03c

----------------
IN: 
0x3ffcc03c:  e5943030      ldr	r3, [r4, #48]
0x3ffcc040:  e3530000      cmp	r3, #0	; 0x0
0x3ffcc044:  15932004      ldrne	r2, [r3, #4]
0x3ffcc048:  10822006      addne	r2, r2, r6
0x3ffcc04c:  15832004      strne	r2, [r3, #4]
0x3ffcc050:  e594302c      ldr	r3, [r4, #44]
0x3ffcc054:  e3530000      cmp	r3, #0	; 0x0
0x3ffcc058:  15932004      ldrne	r2, [r3, #4]
0x3ffcc05c:  10822006      addne	r2, r2, r6
0x3ffcc060:  15832004      strne	r2, [r3, #4]
0x3ffcc064:  e5943034      ldr	r3, [r4, #52]
0x3ffcc068:  e3530000      cmp	r3, #0	; 0x0
0x3ffcc06c:  15932004      ldrne	r2, [r3, #4]
0x3ffcc070:  10822006      addne	r2, r2, r6
0x3ffcc074:  15832004      strne	r2, [r3, #4]
0x3ffcc078:  e5943038      ldr	r3, [r4, #56]
0x3ffcc07c:  e3530000      cmp	r3, #0	; 0x0
0x3ffcc080:  15932004      ldrne	r2, [r3, #4]
0x3ffcc084:  10822006      addne	r2, r2, r6
0x3ffcc088:  15832004      strne	r2, [r3, #4]
0x3ffcc08c:  e594303c      ldr	r3, [r4, #60]
0x3ffcc090:  e3530000      cmp	r3, #0	; 0x0
0x3ffcc094:  15932004      ldrne	r2, [r3, #4]
0x3ffcc098:  10822006      addne	r2, r2, r6
0x3ffcc09c:  15832004      strne	r2, [r3, #4]
0x3ffcc0a0:  e5943064      ldr	r3, [r4, #100]
0x3ffcc0a4:  e3530000      cmp	r3, #0	; 0x0
0x3ffcc0a8:  15932004      ldrne	r2, [r3, #4]
0x3ffcc0ac:  10822006      addne	r2, r2, r6
0x3ffcc0b0:  15832004      strne	r2, [r3, #4]
0x3ffcc0b4:  e594307c      ldr	r3, [r4, #124]
0x3ffcc0b8:  e3530000      cmp	r3, #0	; 0x0
0x3ffcc0bc:  15932004      ldrne	r2, [r3, #4]
0x3ffcc0c0:  10822006      addne	r2, r2, r6
0x3ffcc0c4:  15832004      strne	r2, [r3, #4]
0x3ffcc0c8:  e59430e8      ldr	r3, [r4, #232]
0x3ffcc0cc:  e3530000      cmp	r3, #0	; 0x0
0x3ffcc0d0:  15932004      ldrne	r2, [r3, #4]
0x3ffcc0d4:  10822006      addne	r2, r2, r6
0x3ffcc0d8:  15832004      strne	r2, [r3, #4]
0x3ffcc0dc:  e5943150      ldr	r3, [r4, #336]
0x3ffcc0e0:  e3530000      cmp	r3, #0	; 0x0
0x3ffcc0e4:  15932004      ldrne	r2, [r3, #4]
0x3ffcc0e8:  10822006      addne	r2, r2, r6
0x3ffcc0ec:  15832004      strne	r2, [r3, #4]
0x3ffcc0f0:  eafffee2      b	0x3ffcbc80

----------------
IN: 
0x3ffcbc80:  e5943070      ldr	r3, [r4, #112]
0x3ffcbc84:  e3530000      cmp	r3, #0	; 0x0
0x3ffcbc88:  0a000003      beq	0x3ffcbc9c

----------------
IN: 
0x3ffcbc8c:  e5933004      ldr	r3, [r3, #4]
0x3ffcbc90:  e3530007      cmp	r3, #7	; 0x7
0x3ffcbc94:  13530011      cmpne	r3, #17	; 0x11
0x3ffcbc98:  1a0002e6      bne	0x3ffcc838

----------------
IN: 
0x3ffcbc9c:  e594303c      ldr	r3, [r4, #60]
0x3ffcbca0:  e3530000      cmp	r3, #0	; 0x0
0x3ffcbca4:  0a000003      beq	0x3ffcbcb8

----------------
IN: 
0x3ffcbcb8:  e5943064      ldr	r3, [r4, #100]
0x3ffcbcbc:  e3530000      cmp	r3, #0	; 0x0
0x3ffcbcc0:  0a000003      beq	0x3ffcbcd4

----------------
IN: 
0x3ffcbcc4:  e594306c      ldr	r3, [r4, #108]
0x3ffcbcc8:  e5933004      ldr	r3, [r3, #4]
0x3ffcbccc:  e3530008      cmp	r3, #8	; 0x8
0x3ffcbcd0:  1a0002e0      bne	0x3ffcc858

----------------
IN: 
0x3ffcbcd4:  e5943098      ldr	r3, [r4, #152]
0x3ffcbcd8:  e3530000      cmp	r3, #0	; 0x0
0x3ffcbcdc:  0a000007      beq	0x3ffcbd00

----------------
IN: 
0x3ffcbce0:  e5932004      ldr	r2, [r3, #4]
0x3ffcbce4:  e3120002      tst	r2, #2	; 0x2
0x3ffcbce8:  15843060      strne	r3, [r4, #96]
0x3ffcbcec:  e3120004      tst	r2, #4	; 0x4
0x3ffcbcf0:  15843078      strne	r3, [r4, #120]
0x3ffcbcf4:  e3120008      tst	r2, #8	; 0x8
0x3ffcbcf8:  e5842218      str	r2, [r4, #536]
0x3ffcbcfc:  15843080      strne	r3, [r4, #128]
0x3ffcbd00:  e59430bc      ldr	r3, [r4, #188]
0x3ffcbd04:  e3530000      cmp	r3, #0	; 0x0
0x3ffcbd08:  05943214      ldreq	r3, [r4, #532]
0x3ffcbd0c:  0a00000c      beq	0x3ffcbd44

----------------
IN: 
0x3ffcbd44:  e5942094      ldr	r2, [r4, #148]
0x3ffcbd48:  e3520000      cmp	r2, #0	; 0x0
0x3ffcbd4c:  13a02000      movne	r2, #0	; 0x0
0x3ffcbd50:  1584205c      strne	r2, [r4, #92]
0x3ffcbd54:  e59b2010      ldr	r2, [fp, #16]
0x3ffcbd58:  e1a02fa2      lsr	r2, r2, #31
0x3ffcbd5c:  e0122323      ands	r2, r2, r3, lsr #6
0x3ffcbd60:  1a00028f      bne	0x3ffcc7a4

----------------
IN: 
0x3ffcbd64:  e51b20dc      ldr	r2, [fp, #-220]
0x3ffcbd68:  e16f2f12      clz	r2, r2
0x3ffcbd6c:  e1a022a2      lsr	r2, r2, #5
0x3ffcbd70:  e0122da3      ands	r2, r2, r3, lsr #27
0x3ffcbd74:  1a00028a      bne	0x3ffcc7a4

----------------
IN: 
0x3ffcbd78:  e5943154      ldr	r3, [r4, #340]
0x3ffcbd7c:  e3530000      cmp	r3, #0	; 0x0
0x3ffcbd80:  0a00010d      beq	0x3ffcc1bc

----------------
IN: 
0x3ffcbd84:  e5942000      ldr	r2, [r4]
0x3ffcbd88:  e0833002      add	r3, r3, r2
0x3ffcbd8c:  e5843154      str	r3, [r4, #340]
0x3ffcbd90:  e59f2590      ldr	r2, [pc, #1424]	; 0x3ffcc328
0x3ffcbd94:  e51b10bc      ldr	r1, [fp, #-188]
0x3ffcbd98:  e08f2002      add	r2, pc, r2
0x3ffcbd9c:  e59238d8      ldr	r3, [r2, #2264]
0x3ffcbda0:  e1c13003      bic	r3, r1, r3
0x3ffcbda4:  e3130001      tst	r3, #1	; 0x1
0x3ffcbda8:  1a0001df      bne	0x3ffcc52c

----------------
IN: 
0x3ffcbdac:  e5943238      ldr	r3, [r4, #568]
0x3ffcbdb0:  e3530000      cmp	r3, #0	; 0x0
0x3ffcbdb4:  15942000      ldrne	r2, [r4]
0x3ffcbdb8:  10833002      addne	r3, r3, r2
0x3ffcbdbc:  15843238      strne	r3, [r4, #568]
0x3ffcbdc0:  e51b30c8      ldr	r3, [fp, #-200]
0x3ffcbdc4:  e5942154      ldr	r2, [r4, #340]
0x3ffcbdc8:  e1d360b0      ldrh	r6, [r3]
0x3ffcbdcc:  e0826286      add	r6, r2, r6, lsl #5
0x3ffcbdd0:  e1520006      cmp	r2, r6
0x3ffcbdd4:  0a00000e      beq	0x3ffcbe14

----------------
IN: 
0x3ffcbdd8:  e59f554c      ldr	r5, [pc, #1356]	; 0x3ffcc32c
0x3ffcbddc:  e51b70b0      ldr	r7, [fp, #-176]
0x3ffcbde0:  ea000001      b	0x3ffcbdec

----------------
IN: 
0x3ffcbdec:  e5363020      ldr	r3, [r6, #-32]!
0x3ffcbdf0:  e1530005      cmp	r3, r5
0x3ffcbdf4:  1afffffa      bne	0x3ffcbde4

----------------
IN: 
0x3ffcbde4:  e1520006      cmp	r2, r6
0x3ffcbde8:  0a000009      beq	0x3ffcbe14

----------------
IN: 
0x3ffcbe14:  e51b00b0      ldr	r0, [fp, #-176]
0x3ffcbe18:  eb006289      bl	0x3ffe4844

----------------
IN: 
0x3ffcbe1c:  e3500000      cmp	r0, #0	; 0x0
0x3ffcbe20:  1a0001b7      bne	0x3ffcc504

----------------
IN: 
0x3ffcbe24:  e51b30ec      ldr	r3, [fp, #-236]
0x3ffcbe28:  e3530002      cmp	r3, #2	; 0x2
0x3ffcbe2c:  0a0000b9      beq	0x3ffcc118

----------------
IN: 
0x3ffcbe30:  e59f34f8      ldr	r3, [pc, #1272]	; 0x3ffcc330
0x3ffcbe34:  e5941158      ldr	r1, [r4, #344]
0x3ffcbe38:  e08f3003      add	r3, pc, r3
0x3ffcbe3c:  e5933000      ldr	r3, [r3]
0x3ffcbe40:  e594c000      ldr	ip, [r4]
0x3ffcbe44:  e3130040      tst	r3, #64	; 0x40
0x3ffcbe48:  e08c1001      add	r1, ip, r1
0x3ffcbe4c:  e5841158      str	r1, [r4, #344]
0x3ffcbe50:  1a0001c6      bne	0x3ffcc570

----------------
IN: 
0x3ffcbe54:  e1a00004      mov	r0, r4
0x3ffcbe58:  eb002811      bl	0x3ffd5ea4

----------------
IN: 
0x3ffcbe5c:  e59b3010      ldr	r3, [fp, #16]
0x3ffcbe60:  e3130008      tst	r3, #8	; 0x8
0x3ffcbe64:  1a000002      bne	0x3ffcbe74

----------------
IN: 
0x3ffcbe68:  e5943060      ldr	r3, [r4, #96]
0x3ffcbe6c:  e3530000      cmp	r3, #0	; 0x0
0x3ffcbe70:  1a00020c      bne	0x3ffcc6a8

----------------
IN: 
0x3ffcbe74:  e5943214      ldr	r3, [r4, #532]
0x3ffcbe78:  e3130020      tst	r3, #32	; 0x20
0x3ffcbe7c:  159f34b0      ldrne	r3, [pc, #1200]	; 0x3ffcc334
0x3ffcbe80:  108f3003      addne	r3, pc, r3
0x3ffcbe84:  158345d8      strne	r4, [r3, #1496]
0x3ffcbe88:  e51b30e4      ldr	r3, [fp, #-228]
0x3ffcbe8c:  e284cf7a      add	ip, r4, #488	; 0x1e8
0x3ffcbe90:  e3530000      cmp	r3, #0	; 0x0
0x3ffcbe94:  e24b30a4      sub	r3, fp, #164	; 0xa4
0x3ffcbe98:  e893000f      ldm	r3, {r0, r1, r2, r3}
0x3ffcbe9c:  e88c000f      stm	ip, {r0, r1, r2, r3}
0x3ffcbea0:  1a0001d4      bne	0x3ffcc5f8

----------------
IN: 
0x3ffcbea4:  e59f348c      ldr	r3, [pc, #1164]	; 0x3ffcc338
0x3ffcbea8:  e08f3003      add	r3, pc, r3
0x3ffcbeac:  e593317c      ldr	r3, [r3, #380]
0x3ffcbeb0:  e3530000      cmp	r3, #0	; 0x0
0x3ffcbeb4:  1a0001c1      bne	0x3ffcc5c0

----------------
IN: 
0x3ffcbeb8:  e59b2018      ldr	r2, [fp, #24]
0x3ffcbebc:  e59f3478      ldr	r3, [pc, #1144]	; 0x3ffcc33c
0x3ffcbec0:  e59b1018      ldr	r1, [fp, #24]
0x3ffcbec4:  e1a05102      lsl	r5, r2, #2
0x3ffcbec8:  e0822102      add	r2, r2, r2, lsl #2
0x3ffcbecc:  e08f3003      add	r3, pc, r3
0x3ffcbed0:  e0812082      add	r2, r1, r2, lsl #1
0x3ffcbed4:  e0833182      add	r3, r3, r2, lsl #3
0x3ffcbed8:  e5933014      ldr	r3, [r3, #20]
0x3ffcbedc:  e3530000      cmp	r3, #0	; 0x0
0x3ffcbee0:  0a0000ca      beq	0x3ffcc210

----------------
IN: 
0x3ffcc210:  e5943058      ldr	r3, [r4, #88]
0x3ffcc214:  e3530000      cmp	r3, #0	; 0x0
0x3ffcc218:  0affff31      beq	0x3ffcbee4

----------------
IN: 
0x3ffcc21c:  e5930004      ldr	r0, [r3, #4]
0x3ffcc220:  e5942034      ldr	r2, [r4, #52]
0x3ffcc224:  e5d4319a      ldrb	r3, [r4, #410]
0x3ffcc228:  e5922004      ldr	r2, [r2, #4]
0x3ffcc22c:  e2133020      ands	r3, r3, #32	; 0x20
0x3ffcc230:  15943000      ldrne	r3, [r4]
0x3ffcc234:  e59f1148      ldr	r1, [pc, #328]	; 0x3ffcc384
0x3ffcc238:  e0800002      add	r0, r0, r2
0x3ffcc23c:  e0800003      add	r0, r0, r3
0x3ffcc240:  e08f1001      add	r1, pc, r1
0x3ffcc244:  eb0064b8      bl	0x3ffe552c

----------------
IN: 
0x3ffe554c:  e2620000      rsb	r0, r2, #0	; 0x0
0x3ffe5550:  e12fff1e      bx	lr

----------------
IN: 
0x3ffcc248:  e3500000      cmp	r0, #0	; 0x0
0x3ffcc24c:  1affff24      bne	0x3ffcbee4

----------------
IN: 
0x3ffcc250:  e59b3018      ldr	r3, [fp, #24]
0x3ffcc254:  e59f212c      ldr	r2, [pc, #300]	; 0x3ffcc388
0x3ffcc258:  e59b1018      ldr	r1, [fp, #24]
0x3ffcc25c:  e0853003      add	r3, r5, r3
0x3ffcc260:  e08f2002      add	r2, pc, r2
0x3ffcc264:  e0813083      add	r3, r1, r3, lsl #1
0x3ffcc268:  e0823183      add	r3, r2, r3, lsl #3
0x3ffcc26c:  e5834014      str	r4, [r3, #20]
0x3ffcc270:  eaffff1b      b	0x3ffcbee4

----------------
IN: 
0x3ffcbee4:  e5943240      ldr	r3, [r4, #576]
0x3ffcbee8:  e3530000      cmp	r3, #0	; 0x0
0x3ffcbeec:  0a000005      beq	0x3ffcbf08

----------------
IN: 
0x3ffcbef0:  e5d43198      ldrb	r3, [r4, #408]
0x3ffcbef4:  e2033003      and	r3, r3, #3	; 0x3
0x3ffcbef8:  e3530001      cmp	r3, #1	; 0x1
0x3ffcbefc:  1a0001e3      bne	0x3ffcc690

----------------
IN: 
0x3ffcbf00:  e1a00004      mov	r0, r4
0x3ffcbf04:  eb002af9      bl	0x3ffd6af0

----------------
IN: 
0x3ffd6af0:  e59f20f8      ldr	r2, [pc, #248]	; 0x3ffd6bf0
0x3ffd6af4:  e92d4070      push	{r4, r5, r6, lr}
0x3ffd6af8:  e08f2002      add	r2, pc, r2
0x3ffd6afc:  e5d238dc      ldrb	r3, [r2, #2268]
0x3ffd6b00:  e59248e0      ldr	r4, [r2, #2272]
0x3ffd6b04:  e3530000      cmp	r3, #0	; 0x0
0x3ffd6b08:  1a000005      bne	0x3ffd6b24

----------------
IN: 
0x3ffd6b0c:  e2843001      add	r3, r4, #1	; 0x1
0x3ffd6b10:  e59f20dc      ldr	r2, [pc, #220]	; 0x3ffd6bf4
0x3ffd6b14:  e08f2002      add	r2, pc, r2
0x3ffd6b18:  e58238e0      str	r3, [r2, #2272]
0x3ffd6b1c:  e5803250      str	r3, [r0, #592]
0x3ffd6b20:  e8bd8070      pop	{r4, r5, r6, pc}

----------------
IN: 
0x3ffcbf08:  e1a00004      mov	r0, r4
0x3ffcbf0c:  e59b1018      ldr	r1, [fp, #24]
0x3ffcbf10:  eb001047      bl	0x3ffd0034

----------------
IN: 
0x3ffd0080:  e1a02003      mov	r2, r3
0x3ffd0084:  e593300c      ldr	r3, [r3, #12]
0x3ffd0088:  e3530000      cmp	r3, #0	; 0x0
0x3ffd008c:  1afffffb      bne	0x3ffd0080

----------------
IN: 
0x3ffd0090:  e5852010      str	r2, [r5, #16]
0x3ffd0094:  e582500c      str	r5, [r2, #12]
0x3ffd0098:  e59f305c      ldr	r3, [pc, #92]	; 0x3ffd00fc
0x3ffd009c:  e0812004      add	r2, r1, r4
0x3ffd00a0:  e08f3003      add	r3, pc, r3
0x3ffd00a4:  e0844082      add	r4, r4, r2, lsl #1
0x3ffd00a8:  e0834184      add	r4, r3, r4, lsl #3
0x3ffd00ac:  e5942004      ldr	r2, [r4, #4]
0x3ffd00b0:  e59315d0      ldr	r1, [r3, #1488]
0x3ffd00b4:  e2822001      add	r2, r2, #1	; 0x1
0x3ffd00b8:  e5842004      str	r2, [r4, #4]
0x3ffd00bc:  e291c001      adds	ip, r1, #1	; 0x1
0x3ffd00c0:  e59325d4      ldr	r2, [r3, #1492]
0x3ffd00c4:  e5851260      str	r1, [r5, #608]
0x3ffd00c8:  e59f1030      ldr	r1, [pc, #48]	; 0x3ffd0100
0x3ffd00cc:  e5852264      str	r2, [r5, #612]
0x3ffd00d0:  e08f1001      add	r1, pc, r1
0x3ffd00d4:  e2a22000      adc	r2, r2, #0	; 0x0
0x3ffd00d8:  e2830e59      add	r0, r3, #1424	; 0x590
0x3ffd00dc:  e5911000      ldr	r1, [r1]
0x3ffd00e0:  e583c5d0      str	ip, [r3, #1488]
0x3ffd00e4:  e58325d4      str	r2, [r3, #1492]
0x3ffd00e8:  e280000c      add	r0, r0, #12	; 0xc
0x3ffd00ec:  e8bd4070      pop	{r4, r5, r6, lr}
0x3ffd00f0:  e12fff11      bx	r1

----------------
IN: 
0x3ffcbf14:  e51b30e0      ldr	r3, [fp, #-224]
0x3ffcbf18:  e593300c      ldr	r3, [r3, #12]
0x3ffcbf1c:  e3530000      cmp	r3, #0	; 0x0
0x3ffcbf20:  1a000027      bne	0x3ffcbfc4

----------------
IN: 
0x3ffcbfc4:  e3530001      cmp	r3, #1	; 0x1
0x3ffcbfc8:  0affffdc      beq	0x3ffcbf40

----------------
IN: 
0x3ffcbf40:  e5943018      ldr	r3, [r4, #24]
0x3ffcbf44:  e59f23f4      ldr	r2, [pc, #1012]	; 0x3ffcc340
0x3ffcbf48:  e0831103      add	r1, r3, r3, lsl #2
0x3ffcbf4c:  e08f2002      add	r2, pc, r2
0x3ffcbf50:  e0833081      add	r3, r3, r1, lsl #1
0x3ffcbf54:  e7923183      ldr	r3, [r2, r3, lsl #3]
0x3ffcbf58:  e5d33199      ldrb	r3, [r3, #409]
0x3ffcbf5c:  e1b033a3      lsrs	r3, r3, #7
0x3ffcbf60:  1afffe83      bne	0x3ffcb974

----------------
IN: 
0x3ffcbf64:  e1a00004      mov	r0, r4
0x3ffcbf68:  e59b1018      ldr	r1, [fp, #24]
0x3ffcbf6c:  eb00385c      bl	0x3ffda0e4

----------------
IN: 
0x3ffda0e4:  e92d4ff0      push	{r4, r5, r6, r7, r8, r9, sl, fp, lr}
0x3ffda0e8:  e59f60ac      ldr	r6, [pc, #172]	; 0x3ffda19c
0x3ffda0ec:  e24dd00c      sub	sp, sp, #12	; 0xc
0x3ffda0f0:  e08f6006      add	r6, pc, r6
0x3ffda0f4:  e59631e8      ldr	r3, [r6, #488]
0x3ffda0f8:  e3530000      cmp	r3, #0	; 0x0
0x3ffda0fc:  1a000001      bne	0x3ffda108

----------------
IN: 
0x3ffda100:  e28dd00c      add	sp, sp, #12	; 0xc
0x3ffda104:  e8bd8ff0      pop	{r4, r5, r6, r7, r8, r9, sl, fp, pc}

----------------
IN: 
0x3ffcbf70:  eafffe7f      b	0x3ffcb974

----------------
IN: 
0x3ffcb974:  e1a00004      mov	r0, r4
0x3ffcb978:  e24bd020      sub	sp, fp, #32	; 0x20
0x3ffcb97c:  e8bd8ff0      pop	{r4, r5, r6, r7, r8, r9, sl, fp, pc}

----------------
IN: 
0x3ffccb00:  e1a09000      mov	r9, r0
0x3ffccb04:  e1a00009      mov	r0, r9
0x3ffccb08:  e28ddf95      add	sp, sp, #596	; 0x254
0x3ffccb0c:  e8bd8ff0      pop	{r4, r5, r6, r7, r8, r9, sl, fp, pc}

----------------
IN: 
0x3ffc64f4:  e5840014      str	r0, [r4, #20]
0x3ffc64f8:  e28dd008      add	sp, sp, #8	; 0x8
0x3ffc64fc:  e8bd8010      pop	{r4, pc}

----------------
IN: 
0x3ffdb9f0:  e59f3064      ldr	r3, [pc, #100]	; 0x3ffdba5c
0x3ffdb9f4:  e59d2000      ldr	r2, [sp]
0x3ffdb9f8:  e59d1004      ldr	r1, [sp, #4]
0x3ffdb9fc:  e08f3003      add	r3, pc, r3
0x3ffdba00:  e5824000      str	r4, [r2]
0x3ffdba04:  e5831000      str	r1, [r3]
0x3ffdba08:  e5824004      str	r4, [r2, #4]
0x3ffdba0c:  e5824008      str	r4, [r2, #8]
0x3ffdba10:  e1a00004      mov	r0, r4
0x3ffdba14:  e28ddf6b      add	sp, sp, #428	; 0x1ac
0x3ffdba18:  e8bd8030      pop	{r4, r5, pc}

----------------
IN: 
0x3ffc6804:  e51b344c      ldr	r3, [fp, #-1100]
0x3ffc6808:  e3530000      cmp	r3, #0	; 0x0
0x3ffc680c:  1a000079      bne	0x3ffc69f8

----------------
IN: 
0x3ffc6810:  e51b2430      ldr	r2, [fp, #-1072]
0x3ffc6814:  e5d23198      ldrb	r3, [r2, #408]
0x3ffc6818:  e2133060      ands	r3, r3, #96	; 0x60
0x3ffc681c:  1a00000e      bne	0x3ffc685c

----------------
IN: 
0x3ffc6820:  e51b145c      ldr	r1, [fp, #-1116]
0x3ffc6824:  e24dd010      sub	sp, sp, #16	; 0x10
0x3ffc6828:  e2811001      add	r1, r1, #1	; 0x1
0x3ffc682c:  e50b145c      str	r1, [fp, #-1116]
0x3ffc6830:  e1a0100d      mov	r1, sp
0x3ffc6834:  e5813000      str	r3, [r1]
0x3ffc6838:  e5813008      str	r3, [r1, #8]
0x3ffc683c:  e51b3460      ldr	r3, [fp, #-1120]
0x3ffc6840:  e5812004      str	r2, [r1, #4]
0x3ffc6844:  e5831008      str	r1, [r3, #8]
0x3ffc6848:  e5d23198      ldrb	r3, [r2, #408]
0x3ffc684c:  e50b1460      str	r1, [fp, #-1120]
0x3ffc6850:  e3c33040      bic	r3, r3, #64	; 0x40
0x3ffc6854:  e3833020      orr	r3, r3, #32	; 0x20
0x3ffc6858:  e5c23198      strb	r3, [r2, #408]
0x3ffc685c:  e3590000      cmp	r9, #0	; 0x0
0x3ffc6860:  17892106      strne	r2, [r9, r6, lsl #2]
0x3ffc6864:  12866001      addne	r6, r6, #1	; 0x1
0x3ffc6868:  e4953008      ldr	r3, [r5], #8
0x3ffc686c:  e3530000      cmp	r3, #0	; 0x0
0x3ffc6870:  0affff75      beq	0x3ffc664c

----------------
IN: 
0x3ffe54cc:  e5523003      ldrb	r3, [r2, #-3]
0x3ffe54d0:  e1530001      cmp	r3, r1
0x3ffe54d4:  0a00000d      beq	0x3ffe5510

----------------
IN: 
0x3ffe54d8:  e3530000      cmp	r3, #0	; 0x0
0x3ffe54dc:  0a000009      beq	0x3ffe5508

----------------
IN: 
0x3ffe54e0:  e5523002      ldrb	r3, [r2, #-2]
0x3ffe54e4:  e1530001      cmp	r3, r1
0x3ffe54e8:  0a00000a      beq	0x3ffe5518

----------------
IN: 
0x3ffe54ec:  e3530000      cmp	r3, #0	; 0x0
0x3ffe54f0:  0a000004      beq	0x3ffe5508

----------------
IN: 
0x3ffcfe1c:  e3a00001      mov	r0, #1	; 0x1
0x3ffcfe20:  e8bd8070      pop	{r4, r5, r6, pc}

----------------
IN: 
0x3ffcc9f4:  e1a00009      mov	r0, r9
0x3ffcc9f8:  e28ddf95      add	sp, sp, #596	; 0x254
0x3ffcc9fc:  e8bd8ff0      pop	{r4, r5, r6, r7, r8, r9, sl, fp, pc}

----------------
IN: 
0x3ffc6910:  e3c33002      bic	r3, r3, #2	; 0x2
0x3ffc6914:  e373010e      cmn	r3, #-2147483645	; 0x80000003
0x3ffc6918:  1affffd2      bne	0x3ffc6868

----------------
IN: 
0x3ffc6868:  e4953008      ldr	r3, [r5], #8
0x3ffc686c:  e3530000      cmp	r3, #0	; 0x0
0x3ffc6870:  0affff75      beq	0x3ffc664c

----------------
IN: 
0x3ffc664c:  e3590000      cmp	r9, #0	; 0x0
0x3ffc6650:  0a00001c      beq	0x3ffc66c8

----------------
IN: 
0x3ffc66c8:  e51b3468      ldr	r3, [fp, #-1128]
0x3ffc66cc:  e5933000      ldr	r3, [r3]
0x3ffc66d0:  e3530000      cmp	r3, #0	; 0x0
0x3ffc66d4:  1a000229      bne	0x3ffc6f80

----------------
IN: 
0x3ffc6f80:  e51b3468      ldr	r3, [fp, #-1128]
0x3ffc6f84:  ea000002      b	0x3ffc6f94

----------------
IN: 
0x3ffc6f94:  e5933008      ldr	r3, [r3, #8]
0x3ffc6f98:  e3530000      cmp	r3, #0	; 0x0
0x3ffc6f9c:  1afffff9      bne	0x3ffc6f88

----------------
IN: 
0x3ffc6f88:  e5932000      ldr	r2, [r3]
0x3ffc6f8c:  e3520000      cmp	r2, #0	; 0x0
0x3ffc6f90:  0a00008b      beq	0x3ffc71c4

----------------
IN: 
0x3ffc71c4:  e50b3468      str	r3, [fp, #-1128]
0x3ffc71c8:  eafffd42      b	0x3ffc66d8

----------------
IN: 
0x3ffc66d8:  e51b3468      ldr	r3, [fp, #-1128]
0x3ffc66dc:  e5937004      ldr	r7, [r3, #4]
0x3ffc66e0:  eaffffc9      b	0x3ffc660c

----------------
IN: 
0x3ffc660c:  e3a03001      mov	r3, #1	; 0x1
0x3ffc6610:  e5979160      ldr	r9, [r7, #352]
0x3ffc6614:  e51b2468      ldr	r2, [fp, #-1128]
0x3ffc6618:  e3590000      cmp	r9, #0	; 0x0
0x3ffc661c:  13a09000      movne	r9, #0	; 0x0
0x3ffc6620:  e5823000      str	r3, [r2]
0x3ffc6624:  0a0001e9      beq	0x3ffc6dd0

----------------
IN: 
0x3ffc6df0:  e2873f57      add	r3, r7, #348	; 0x15c
0x3ffc6df4:  e1d310b2      ldrh	r1, [r3, #2]
0x3ffc6df8:  e3510000      cmp	r1, #0	; 0x0
0x3ffc6dfc:  0afffe09      beq	0x3ffc6628

----------------
IN: 
0x3ffc6e00:  e51b3480      ldr	r3, [fp, #-1152]
0x3ffc6e04:  e3a02004      mov	r2, #4	; 0x4
0x3ffc6e08:  e2430008      sub	r0, r3, #8	; 0x8
0x3ffc6e0c:  eb0077af      bl	0x3ffe4cd0

----------------
IN: 
0x3ffe4cd0:  e92d4070      push	{r4, r5, r6, lr}
0x3ffe4cd4:  e1a05002      mov	r5, r2
0x3ffe4cd8:  e0060192      mul	r6, r2, r1
0x3ffe4cdc:  e1812002      orr	r2, r1, r2
0x3ffe4ce0:  e1a02822      lsr	r2, r2, #16
0x3ffe4ce4:  e3510000      cmp	r1, #0	; 0x0
0x3ffe4ce8:  13520000      cmpne	r2, #0	; 0x0
0x3ffe4cec:  e1a04000      mov	r4, r0
0x3ffe4cf0:  1a000019      bne	0x3ffe4d5c

----------------
IN: 
0x3ffe4cf4:  e5943004      ldr	r3, [r4, #4]
0x3ffe4cf8:  e1530006      cmp	r3, r6
0x3ffe4cfc:  2a000014      bcs	0x3ffe4d54

----------------
IN: 
0x3ffe4d54:  e3a00001      mov	r0, #1	; 0x1
0x3ffe4d58:  e8bd8070      pop	{r4, r5, r6, pc}

----------------
IN: 
0x3ffc6e10:  e2502000      subs	r2, r0, #0	; 0x0
0x3ffc6e14:  0a000113      beq	0x3ffc7268

----------------
IN: 
0x3ffc6e18:  e51b942c      ldr	r9, [fp, #-1068]
0x3ffc6e1c:  eafffe01      b	0x3ffc6628

----------------
IN: 
0x3ffc685c:  e3590000      cmp	r9, #0	; 0x0
0x3ffc6860:  17892106      strne	r2, [r9, r6, lsl #2]
0x3ffc6864:  12866001      addne	r6, r6, #1	; 0x1
0x3ffc6868:  e4953008      ldr	r3, [r5], #8
0x3ffc686c:  e3530000      cmp	r3, #0	; 0x0
0x3ffc6870:  0affff75      beq	0x3ffc664c

----------------
IN: 
0x3ffc6654:  e3a03000      mov	r3, #0	; 0x0
0x3ffc6658:  e7893106      str	r3, [r9, r6, lsl #2]
0x3ffc665c:  e59f3d50      ldr	r3, [pc, #3408]	; 0x3ffc73b4
0x3ffc6660:  e1a00186      lsl	r0, r6, #3
0x3ffc6664:  e08f3003      add	r3, pc, r3
0x3ffc6668:  e5933000      ldr	r3, [r3]
0x3ffc666c:  e280000c      add	r0, r0, #12	; 0xc
0x3ffc6670:  e12fff33      blx	r3

----------------
IN: 
0x3ffc6674:  e2504000      subs	r4, r0, #0	; 0x0
0x3ffc6678:  e1a06106      lsl	r6, r6, #2
0x3ffc667c:  0a0002ff      beq	0x3ffc7280

----------------
IN: 
0x3ffc6680:  e1a00004      mov	r0, r4
0x3ffc6684:  e2865004      add	r5, r6, #4	; 0x4
0x3ffc6688:  e1a01009      mov	r1, r9
0x3ffc668c:  e1a02005      mov	r2, r5
0x3ffc6690:  e4807004      str	r7, [r0], #4
0x3ffc6694:  e2866008      add	r6, r6, #8	; 0x8
0x3ffc6698:  eb007ebc      bl	0x3ffe6190

----------------
IN: 
0x3ffc669c:  e1a02005      mov	r2, r5
0x3ffc66a0:  e1a01004      mov	r1, r4
0x3ffc66a4:  e0840006      add	r0, r4, r6
0x3ffc66a8:  eb007eb8      bl	0x3ffe6190

----------------
IN: 
0x3ffc66ac:  e3e0ca0f      mvn	ip, #61440	; 0xf000
0x3ffc66b0:  e1a0e00f      mov	lr, pc
0x3ffc66b4:  e24cf05f      sub	pc, ip, #95	; 0x5f

----------------
IN: 
0x3ffc66b8:  e5d7319a      ldrb	r3, [r7, #410]
0x3ffc66bc:  e5874200      str	r4, [r7, #512]
0x3ffc66c0:  e3833010      orr	r3, r3, #16	; 0x10
0x3ffc66c4:  e5c7319a      strb	r3, [r7, #410]
0x3ffc66c8:  e51b3468      ldr	r3, [fp, #-1128]
0x3ffc66cc:  e5933000      ldr	r3, [r3]
0x3ffc66d0:  e3530000      cmp	r3, #0	; 0x0
0x3ffc66d4:  1a000229      bne	0x3ffc6f80

----------------
IN: 
0x3ffc6634:  e59730f4      ldr	r3, [r7, #244]
0x3ffc6638:  e3530000      cmp	r3, #0	; 0x0
0x3ffc663c:  1a000028      bne	0x3ffc66e4

----------------
IN: 
0x3ffc6640:  e59760ec      ldr	r6, [r7, #236]
0x3ffc6644:  e3560000      cmp	r6, #0	; 0x0
0x3ffc6648:  1a000025      bne	0x3ffc66e4

----------------
IN: 
0x3ffc6fa0:  e51b9484      ldr	r9, [fp, #-1156]
0x3ffc6fa4:  e51ba474      ldr	sl, [fp, #-1140]
0x3ffc6fa8:  e50b3458      str	r3, [fp, #-1112]
0x3ffc6fac:  eafffe97      b	0x3ffc6a10

----------------
IN: 
0x3ffc6a10:  e51b042c      ldr	r0, [fp, #-1068]
0x3ffc6a14:  e51b3480      ldr	r3, [fp, #-1152]
0x3ffc6a18:  e1500003      cmp	r0, r3
0x3ffc6a1c:  0a000003      beq	0x3ffc6a30

----------------
IN: 
0x3ffc6a30:  e59f29a8      ldr	r2, [pc, #2472]	; 0x3ffc73e0
0x3ffc6a34:  e51b147c      ldr	r1, [fp, #-1148]
0x3ffc6a38:  e08f2002      add	r2, pc, r2
0x3ffc6a3c:  e5923000      ldr	r3, [r2]
0x3ffc6a40:  e3510000      cmp	r1, #0	; 0x0
0x3ffc6a44:  e16f3f13      clz	r3, r3
0x3ffc6a48:  e1a032a3      lsr	r3, r3, #5
0x3ffc6a4c:  03a03000      moveq	r3, #0	; 0x0
0x3ffc6a50:  e3530000      cmp	r3, #0	; 0x0
0x3ffc6a54:  11a03001      movne	r3, r1
0x3ffc6a58:  15823000      strne	r3, [r2]
0x3ffc6a5c:  e59a3200      ldr	r3, [sl, #512]
0x3ffc6a60:  e3530000      cmp	r3, #0	; 0x0
0x3ffc6a64:  e50b3460      str	r3, [fp, #-1120]
0x3ffc6a68:  0a000005      beq	0x3ffc6a84

----------------
IN: 
0x3ffc6a84:  e51b245c      ldr	r2, [fp, #-1116]
0x3ffc6a88:  e59f3954      ldr	r3, [pc, #2388]	; 0x3ffc73e4
0x3ffc6a8c:  e1a00182      lsl	r0, r2, #3
0x3ffc6a90:  e08f3003      add	r3, pc, r3
0x3ffc6a94:  e5933000      ldr	r3, [r3]
0x3ffc6a98:  e2800004      add	r0, r0, #4	; 0x4
0x3ffc6a9c:  e12fff33      blx	r3

----------------
IN: 
0x3ffc6aa0:  e2507000      subs	r7, r0, #0	; 0x0
0x3ffc6aa4:  0a00020c      beq	0x3ffc72dc

----------------
IN: 
0x3ffc6aa8:  e3a04000      mov	r4, #0	; 0x0
0x3ffc6aac:  e3e05000      mvn	r5, #0	; 0x0
0x3ffc6ab0:  e51b345c      ldr	r3, [fp, #-1116]
0x3ffc6ab4:  e51b0470      ldr	r0, [fp, #-1136]
0x3ffc6ab8:  e58a3164      str	r3, [sl, #356]
0x3ffc6abc:  e2833001      add	r3, r3, #1	; 0x1
0x3ffc6ac0:  e0873103      add	r3, r7, r3, lsl #2
0x3ffc6ac4:  e58a3160      str	r3, [sl, #352]
0x3ffc6ac8:  e3500000      cmp	r0, #0	; 0x0
0x3ffc6acc:  e5992004      ldr	r2, [r9, #4]
0x3ffc6ad0:  1a0000ac      bne	0x3ffc6d88

----------------
IN: 
0x3ffc6ad4:  e15a0002      cmp	sl, r2
0x3ffc6ad8:  01a05004      moveq	r5, r4
0x3ffc6adc:  e7832104      str	r2, [r3, r4, lsl #2]
0x3ffc6ae0:  e2844001      add	r4, r4, #1	; 0x1
0x3ffc6ae4:  e5d21198      ldrb	r1, [r2, #408]
0x3ffc6ae8:  e3c11060      bic	r1, r1, #96	; 0x60
0x3ffc6aec:  e5c21198      strb	r1, [r2, #408]
0x3ffc6af0:  e5999008      ldr	r9, [r9, #8]
0x3ffc6af4:  e3590000      cmp	r9, #0	; 0x0
0x3ffc6af8:  1afffff2      bne	0x3ffc6ac8

----------------
IN: 
0x3ffc6ac8:  e3500000      cmp	r0, #0	; 0x0
0x3ffc6acc:  e5992004      ldr	r2, [r9, #4]
0x3ffc6ad0:  1a0000ac      bne	0x3ffc6d88

----------------
IN: 
0x3ffc6afc:  e59f28e4      ldr	r2, [pc, #2276]	; 0x3ffc73e8
0x3ffc6b00:  e08f2002      add	r2, pc, r2
0x3ffc6b04:  e5922000      ldr	r2, [r2]
0x3ffc6b08:  e3120b02      tst	r2, #2048	; 0x800
0x3ffc6b0c:  1a00012c      bne	0x3ffc6fc4

----------------
IN: 
0x3ffc6b10:  e59a8204      ldr	r8, [sl, #516]
0x3ffc6b14:  e3580000      cmp	r8, #0	; 0x0
0x3ffc6b18:  0a000057      beq	0x3ffc6c7c

----------------
IN: 
0x3ffc6c7c:  e1550004      cmp	r5, r4
0x3ffc6c80:  2a000139      bcs	0x3ffc716c

----------------
IN: 
0x3ffc6c84:  e3550000      cmp	r5, #0	; 0x0
0x3ffc6c88:  e59a1160      ldr	r1, [sl, #352]
0x3ffc6c8c:  e1a06104      lsl	r6, r4, #2
0x3ffc6c90:  0a0000a2      beq	0x3ffc6f20

----------------
IN: 
0x3ffc6f20:  e1a02006      mov	r2, r6
0x3ffc6f24:  e1a00007      mov	r0, r7
0x3ffc6f28:  eb007c98      bl	0x3ffe6190

----------------
IN: 
0x3ffc6f2c:  eaffff6c      b	0x3ffc6ce4

----------------
IN: 
0x3ffc6ce4:  e5972000      ldr	r2, [r7]
0x3ffc6ce8:  e59f0700      ldr	r0, [pc, #1792]	; 0x3ffc73f0
0x3ffc6cec:  e592c018      ldr	ip, [r2, #24]
0x3ffc6cf0:  e08f0000      add	r0, pc, r0
0x3ffc6cf4:  e08ce10c      add	lr, ip, ip, lsl #2
0x3ffc6cf8:  e08cc08e      add	ip, ip, lr, lsl #1
0x3ffc6cfc:  e080018c      add	r0, r0, ip, lsl #3
0x3ffc6d00:  e5900014      ldr	r0, [r0, #20]
0x3ffc6d04:  e1a01004      mov	r1, r4
0x3ffc6d08:  e0502002      subs	r2, r0, r2
0x3ffc6d0c:  e3a03000      mov	r3, #0	; 0x0
0x3ffc6d10:  13a02001      movne	r2, #1	; 0x1
0x3ffc6d14:  e1a00007      mov	r0, r7
0x3ffc6d18:  eb003ce3      bl	0x3ffd60ac

----------------
IN: 
0x3ffd60ac:  e92d4ff0      push	{r4, r5, r6, r7, r8, r9, sl, fp, lr}
0x3ffd60b0:  e28db020      add	fp, sp, #32	; 0x20
0x3ffd60b4:  e24dd03c      sub	sp, sp, #60	; 0x3c
0x3ffd60b8:  e59fc414      ldr	ip, [pc, #1044]	; 0x3ffd64d4
0x3ffd60bc:  e1a05000      mov	r5, r0
0x3ffd60c0:  e08fc00c      add	ip, pc, ip
0x3ffd60c4:  e59c61b0      ldr	r6, [ip, #432]
0x3ffd60c8:  e50b3038      str	r3, [fp, #-56]
0x3ffd60cc:  e3560000      cmp	r6, #0	; 0x0
0x3ffd60d0:  1a00008b      bne	0x3ffd6304

----------------
IN: 
0x3ffd6304:  e2517001      subs	r7, r1, #1	; 0x1
0x3ffd6308:  e1a0600d      mov	r6, sp
0x3ffd630c:  e1a04101      lsl	r4, r1, #2
0x3ffd6310:  4a000050      bmi	0x3ffd6458

----------------
IN: 
0x3ffd6314:  e0808004      add	r8, r0, r4
0x3ffd6318:  e1a00008      mov	r0, r8
0x3ffd631c:  e1a02007      mov	r2, r7
0x3ffd6320:  e5301004      ldr	r1, [r0, #-4]!
0x3ffd6324:  e2422001      sub	r2, r2, #1	; 0x1
0x3ffd6328:  e5d13199      ldrb	r3, [r1, #409]
0x3ffd632c:  e3720001      cmn	r2, #1	; 0x1
0x3ffd6330:  e3c33001      bic	r3, r3, #1	; 0x1
0x3ffd6334:  e5c13199      strb	r3, [r1, #409]
0x3ffd6338:  1afffff8      bne	0x3ffd6320

----------------
IN: 
0x3ffd6320:  e5301004      ldr	r1, [r0, #-4]!
0x3ffd6324:  e2422001      sub	r2, r2, #1	; 0x1
0x3ffd6328:  e5d13199      ldrb	r3, [r1, #409]
0x3ffd632c:  e3720001      cmn	r2, #1	; 0x1
0x3ffd6330:  e3c33001      bic	r3, r3, #1	; 0x1
0x3ffd6334:  e5c13199      strb	r3, [r1, #409]
0x3ffd6338:  1afffff8      bne	0x3ffd6320

----------------
IN: 
0x3ffd633c:  e2843007      add	r3, r4, #7	; 0x7
0x3ffd6340:  e3c33007      bic	r3, r3, #7	; 0x7
0x3ffd6344:  e04dd003      sub	sp, sp, r3
0x3ffd6348:  e1a0900d      mov	r9, sp
0x3ffd634c:  e3a03000      mov	r3, #0	; 0x0
0x3ffd6350:  e51b2038      ldr	r2, [fp, #-56]
0x3ffd6354:  e54b302d      strb	r3, [fp, #-45]
0x3ffd6358:  e3520000      cmp	r2, #0	; 0x0
0x3ffd635c:  e0893004      add	r3, r9, r4
0x3ffd6360:  124b202d      subne	r2, fp, #45	; 0x2d
0x3ffd6364:  e24b002c      sub	r0, fp, #44	; 0x2c
0x3ffd6368:  e1a0a007      mov	sl, r7
0x3ffd636c:  e50b6038      str	r6, [fp, #-56]
0x3ffd6370:  e50b703c      str	r7, [fp, #-60]
0x3ffd6374:  e1a06009      mov	r6, r9
0x3ffd6378:  e50b4040      str	r4, [fp, #-64]
0x3ffd637c:  e1a09008      mov	r9, r8
0x3ffd6380:  e1a04008      mov	r4, r8
0x3ffd6384:  e1a07000      mov	r7, r0
0x3ffd6388:  e1a08005      mov	r8, r5
0x3ffd638c:  e50b302c      str	r3, [fp, #-44]
0x3ffd6390:  e1a05002      mov	r5, r2
0x3ffd6394:  ea000001      b	0x3ffd63a0

----------------
IN: 
0x3ffd63a0:  e5341004      ldr	r1, [r4, #-4]!
0x3ffd63a4:  e5d1c199      ldrb	ip, [r1, #409]
0x3ffd63a8:  e31c0001      tst	ip, #1	; 0x1
0x3ffd63ac:  1a000002      bne	0x3ffd63bc

----------------
IN: 
0x3ffd63b0:  e1a02005      mov	r2, r5
0x3ffd63b4:  e1a00007      mov	r0, r7
0x3ffd63b8:  ebfffeed      bl	0x3ffd5f74

----------------
IN: 
0x3ffd5f74:  e92d41f0      push	{r4, r5, r6, r7, r8, lr}
0x3ffd5f78:  e5913200      ldr	r3, [r1, #512]
0x3ffd5f7c:  e1a07002      mov	r7, r2
0x3ffd5f80:  e5d12199      ldrb	r2, [r1, #409]
0x3ffd5f84:  e3530000      cmp	r3, #0	; 0x0
0x3ffd5f88:  e3822001      orr	r2, r2, #1	; 0x1
0x3ffd5f8c:  e1a05001      mov	r5, r1
0x3ffd5f90:  e1a06000      mov	r6, r0
0x3ffd5f94:  e5c12199      strb	r2, [r1, #409]
0x3ffd5f98:  0a00000b      beq	0x3ffd5fcc

----------------
IN: 
0x3ffd5fcc:  e3570000      cmp	r7, #0	; 0x0
0x3ffd5fd0:  1a00000c      bne	0x3ffd6008

----------------
IN: 
0x3ffd5fd4:  e5963000      ldr	r3, [r6]
0x3ffd5fd8:  e2432004      sub	r2, r3, #4	; 0x4
0x3ffd5fdc:  e5862000      str	r2, [r6]
0x3ffd5fe0:  e5035004      str	r5, [r3, #-4]
0x3ffd5fe4:  e8bd81f0      pop	{r4, r5, r6, r7, r8, pc}

----------------
IN: 
0x3ffd63bc:  e51b102c      ldr	r1, [fp, #-44]
0x3ffd63c0:  e1510006      cmp	r1, r6
0x3ffd63c4:  1afffff3      bne	0x3ffd6398

----------------
IN: 
0x3ffd6398:  e25aa001      subs	sl, sl, #1	; 0x1
0x3ffd639c:  3a000037      bcc	0x3ffd6480

----------------
IN: 
0x3ffd5f9c:  e5931000      ldr	r1, [r3]
0x3ffd5fa0:  e3510000      cmp	r1, #0	; 0x0
0x3ffd5fa4:  0a000008      beq	0x3ffd5fcc

----------------
IN: 
0x3ffd5fa8:  e3a04004      mov	r4, #4	; 0x4
0x3ffd5fac:  e2810f66      add	r0, r1, #408	; 0x198
0x3ffd5fb0:  e1d000b0      ldrh	r0, [r0]
0x3ffd5fb4:  e3100d06      tst	r0, #384	; 0x180
0x3ffd5fb8:  0a00000a      beq	0x3ffd5fe8

----------------
IN: 
0x3ffd5fbc:  e7931004      ldr	r1, [r3, r4]
0x3ffd5fc0:  e2844004      add	r4, r4, #4	; 0x4
0x3ffd5fc4:  e3510000      cmp	r1, #0	; 0x0
0x3ffd5fc8:  1afffff7      bne	0x3ffd5fac

----------------
IN: 
0x3ffd5fac:  e2810f66      add	r0, r1, #408	; 0x198
0x3ffd5fb0:  e1d000b0      ldrh	r0, [r0]
0x3ffd5fb4:  e3100d06      tst	r0, #384	; 0x180
0x3ffd5fb8:  0a00000a      beq	0x3ffd5fe8

----------------
IN: 
0x3ffd63c8:  e55b302d      ldrb	r3, [fp, #-45]
0x3ffd63cc:  e1a05008      mov	r5, r8
0x3ffd63d0:  e3530000      cmp	r3, #0	; 0x0
0x3ffd63d4:  e1a08009      mov	r8, r9
0x3ffd63d8:  e51b703c      ldr	r7, [fp, #-60]
0x3ffd63dc:  e1a09006      mov	r9, r6
0x3ffd63e0:  e51b4040      ldr	r4, [fp, #-64]
0x3ffd63e4:  e51b6038      ldr	r6, [fp, #-56]
0x3ffd63e8:  0a000034      beq	0x3ffd64c0

----------------
IN: 
0x3ffd64c0:  e1a02004      mov	r2, r4
0x3ffd64c4:  e1a01009      mov	r1, r9
0x3ffd64c8:  e1a00005      mov	r0, r5
0x3ffd64cc:  eb003f2f      bl	0x3ffe6190

----------------
IN: 
0x3ffd64d0:  eaffffde      b	0x3ffd6450

----------------
IN: 
0x3ffd6450:  e1a0d006      mov	sp, r6
0x3ffd6454:  eaffffa8      b	0x3ffd62fc

----------------
IN: 
0x3ffd62fc:  e24bd020      sub	sp, fp, #32	; 0x20
0x3ffd6300:  e8bd8ff0      pop	{r4, r5, r6, r7, r8, r9, sl, fp, pc}

----------------
IN: 
0x3ffc6d1c:  e3a03000      mov	r3, #0	; 0x0
0x3ffc6d20:  e7873006      str	r3, [r7, r6]
0x3ffc6d24:  e3e0ca0f      mvn	ip, #61440	; 0xf000
0x3ffc6d28:  e1a0e00f      mov	lr, pc
0x3ffc6d2c:  e24cf05f      sub	pc, ip, #95	; 0x5f

----------------
IN: 
0x3ffc6d30:  e5da319a      ldrb	r3, [sl, #410]
0x3ffc6d34:  e3590000      cmp	r9, #0	; 0x0
0x3ffc6d38:  e3833010      orr	r3, r3, #16	; 0x10
0x3ffc6d3c:  e58a7200      str	r7, [sl, #512]
0x3ffc6d40:  e5ca319a      strb	r3, [sl, #410]
0x3ffc6d44:  0a000005      beq	0x3ffc6d60

----------------
IN: 
0x3ffc6d60:  e51b3460      ldr	r3, [fp, #-1120]
0x3ffc6d64:  e3530000      cmp	r3, #0	; 0x0
0x3ffc6d68:  0a000001      beq	0x3ffc6d74

----------------
IN: 
0x3ffc6d74:  e51b3458      ldr	r3, [fp, #-1112]
0x3ffc6d78:  e3530000      cmp	r3, #0	; 0x0
0x3ffc6d7c:  1a000161      bne	0x3ffc7308

----------------
IN: 
0x3ffc6d80:  e24bd020      sub	sp, fp, #32	; 0x20
0x3ffc6d84:  e8bd8ff0      pop	{r4, r5, r6, r7, r8, r9, sl, fp, pc}

----------------
IN: 
0x3ffe1150:  e59a0164      ldr	r0, [sl, #356]
0x3ffe1154:  e3500000      cmp	r0, #0	; 0x0
0x3ffe1158:  0a00038e      beq	0x3ffe1f98

----------------
IN: 
0x3ffe115c:  e59ac160      ldr	ip, [sl, #352]
0x3ffe1160:  e08c2100      add	r2, ip, r0, lsl #2
0x3ffe1164:  e5321004      ldr	r1, [r2, #-4]!
0x3ffe1168:  e5d13198      ldrb	r3, [r1, #408]
0x3ffe116c:  e152000c      cmp	r2, ip
0x3ffe1170:  e3833010      orr	r3, r3, #16	; 0x10
0x3ffe1174:  e5c13198      strb	r3, [r1, #408]
0x3ffe1178:  1afffff9      bne	0x3ffe1164

----------------
IN: 
0x3ffe1164:  e5321004      ldr	r1, [r2, #-4]!
0x3ffe1168:  e5d13198      ldrb	r3, [r1, #408]
0x3ffe116c:  e152000c      cmp	r2, ip
0x3ffe1170:  e3833010      orr	r3, r3, #16	; 0x10
0x3ffe1174:  e5c13198      strb	r3, [r1, #408]
0x3ffe1178:  1afffff9      bne	0x3ffe1164

----------------
IN: 
0x3ffe117c:  e51f3f98      ldr	r3, [pc, #-3992]	; 0x3ffe01ec
0x3ffe1180:  e51be02c      ldr	lr, [fp, #-44]
0x3ffe1184:  e08f3003      add	r3, pc, r3
0x3ffe1188:  e5932600      ldr	r2, [r3, #1536]
0x3ffe118c:  e59315fc      ldr	r1, [r3, #1532]
0x3ffe1190:  e582100c      str	r1, [r2, #12]
0x3ffe1194:  e59335fc      ldr	r3, [r3, #1532]
0x3ffe1198:  e3530000      cmp	r3, #0	; 0x0
0x3ffe119c:  0a000000      beq	0x3ffe11a4

----------------
IN: 
0x3ffe11a0:  e5832010      str	r2, [r3, #16]
0x3ffe11a4:  e3500001      cmp	r0, #1	; 0x1
0x3ffe11a8:  9a0000e3      bls	0x3ffe153c

----------------
IN: 
0x3ffe11ac:  e51f6fc4      ldr	r6, [pc, #-4036]	; 0x3ffe01f0
0x3ffe11b0:  e59a4160      ldr	r4, [sl, #352]
0x3ffe11b4:  e08f6006      add	r6, pc, r6
0x3ffe11b8:  e3a03001      mov	r3, #1	; 0x1
0x3ffe11bc:  e1a02004      mov	r2, r4
0x3ffe11c0:  e286ce5f      add	ip, r6, #1520	; 0x5f0
0x3ffe11c4:  ea000002      b	0x3ffe11d4

----------------
IN: 
0x3ffe11d4:  e5b21004      ldr	r1, [r2, #4]!
0x3ffe11d8:  e151000c      cmp	r1, ip
0x3ffe11dc:  1afffff9      bne	0x3ffe11c8

----------------
IN: 
0x3ffe11c8:  e2833001      add	r3, r3, #1	; 0x1
0x3ffe11cc:  e1500003      cmp	r0, r3
0x3ffe11d0:  0a0000d9      beq	0x3ffe153c

----------------
IN: 
0x3ffe11e0:  e2431107      sub	r1, r3, #-1073741823	; 0xc0000001
0x3ffe11e4:  e7942101      ldr	r2, [r4, r1, lsl #2]
0x3ffe11e8:  e35e0000      cmp	lr, #0	; 0x0
0x3ffe11ec:  e1a01101      lsl	r1, r1, #2
0x3ffe11f0:  e5862600      str	r2, [r6, #1536]
0x3ffe11f4:  1a00065b      bne	0x3ffe2b68

----------------
IN: 
0x3ffe11f8:  e2833001      add	r3, r3, #1	; 0x1
0x3ffe11fc:  e1530000      cmp	r3, r0
0x3ffe1200:  21a0300e      movcs	r3, lr
0x3ffe1204:  30841001      addcc	r1, r4, r1
0x3ffe1208:  35913008      ldrcc	r3, [r1, #8]
0x3ffe120c:  e59f1fd8      ldr	r1, [pc, #4056]	; 0x3ffe21ec
0x3ffe1210:  e59fcfd8      ldr	ip, [pc, #4056]	; 0x3ffe21f0
0x3ffe1214:  e08f1001      add	r1, pc, r1
0x3ffe1218:  e5911194      ldr	r1, [r1, #404]
0x3ffe121c:  e08fc00c      add	ip, pc, ip
0x3ffe1220:  e58c35fc      str	r3, [ip, #1532]
0x3ffe1224:  e3510000      cmp	r1, #0	; 0x0
0x3ffe1228:  e592000c      ldr	r0, [r2, #12]
0x3ffe122c:  0a000005      beq	0x3ffe1248

----------------
IN: 
0x3ffe1248:  e1530000      cmp	r3, r0
0x3ffe124c:  1a0007cf      bne	0x3ffe3190

----------------
IN: 
0x3ffe1250:  e59f3f9c      ldr	r3, [pc, #3996]	; 0x3ffe21f4
0x3ffe1254:  e08f3003      add	r3, pc, r3
0x3ffe1258:  e2831e5f      add	r1, r3, #1520	; 0x5f0
0x3ffe125c:  e582100c      str	r1, [r2, #12]
0x3ffe1260:  e59335fc      ldr	r3, [r3, #1532]
0x3ffe1264:  e3530000      cmp	r3, #0	; 0x0
0x3ffe1268:  0a0002a3      beq	0x3ffe1cfc

----------------
IN: 
0x3ffe1cfc:  e3a03001      mov	r3, #1	; 0x1
0x3ffe1d00:  e50b31d0      str	r3, [fp, #-464]
0x3ffe1d04:  eafffd5e      b	0x3ffe1284

----------------
IN: 
0x3ffe1284:  e16f3f1e      clz	r3, lr
0x3ffe1288:  e24ee003      sub	lr, lr, #3	; 0x3
0x3ffe128c:  e16fef1e      clz	lr, lr
0x3ffe1290:  e59f1f60      ldr	r1, [pc, #3936]	; 0x3ffe21f8
0x3ffe1294:  e59f0f60      ldr	r0, [pc, #3936]	; 0x3ffe21fc
0x3ffe1298:  e24b9e1a      sub	r9, fp, #416	; 0x1a0
0x3ffe129c:  e1a032a3      lsr	r3, r3, #5
0x3ffe12a0:  e1a0e2ae      lsr	lr, lr, #5
0x3ffe12a4:  e1a02009      mov	r2, r9
0x3ffe12a8:  e08f1001      add	r1, pc, r1
0x3ffe12ac:  e08f0000      add	r0, pc, r0
0x3ffe12b0:  e50b31a0      str	r3, [fp, #-416]
0x3ffe12b4:  e50be19c      str	lr, [fp, #-412]
0x3ffe12b8:  ebffe9fb      bl	0x3ffdbaac

----------------
IN: 
0x3ffdbaac:  e1a03000      mov	r3, r0
0x3ffdbab0:  e3a00000      mov	r0, #0	; 0x0
0x3ffdbab4:  e92d4070      push	{r4, r5, r6, lr}
0x3ffdbab8:  e59f4024      ldr	r4, [pc, #36]	; 0x3ffdbae4
0x3ffdbabc:  e08f4004      add	r4, pc, r4
0x3ffdbac0:  e5946000      ldr	r6, [r4]
0x3ffdbac4:  e5945004      ldr	r5, [r4, #4]
0x3ffdbac8:  e5840000      str	r0, [r4]
0x3ffdbacc:  e1a00002      mov	r0, r2
0x3ffdbad0:  e5843004      str	r3, [r4, #4]
0x3ffdbad4:  e12fff31      blx	r1

----------------
IN: 
0x3ffde60c:  e92d4010      push	{r4, lr}
0x3ffde610:  e1a04000      mov	r4, r0
0x3ffde614:  e59f3030      ldr	r3, [pc, #48]	; 0x3ffde64c
0x3ffde618:  e3a01001      mov	r1, #1	; 0x1
0x3ffde61c:  e08f3003      add	r3, pc, r3
0x3ffde620:  e5930000      ldr	r0, [r3]
0x3ffde624:  e5942004      ldr	r2, [r4, #4]
0x3ffde628:  ebffe79d      bl	0x3ffd84a4

----------------
IN: 
0x3ffd84a4:  e92d41f0      push	{r4, r5, r6, r7, r8, lr}
0x3ffd84a8:  e2504000      subs	r4, r0, #0	; 0x0
0x3ffd84ac:  0a000014      beq	0x3ffd8504

----------------
IN: 
0x3ffd84b0:  e1a06001      mov	r6, r1
0x3ffd84b4:  e1a07002      mov	r7, r2
0x3ffd84b8:  e3a05000      mov	r5, #0	; 0x0
0x3ffd84bc:  ea000002      b	0x3ffd84cc

----------------
IN: 
0x3ffd84cc:  e5d43199      ldrb	r3, [r4, #409]
0x3ffd84d0:  e3130020      tst	r3, #32	; 0x20
0x3ffd84d4:  1afffff9      bne	0x3ffd84c0

----------------
IN: 
0x3ffd84d8:  e1a00004      mov	r0, r4
0x3ffd84dc:  e1a02007      mov	r2, r7
0x3ffd84e0:  e1a01006      mov	r1, r6
0x3ffd84e4:  ebfffdc9      bl	0x3ffd7c10

----------------
IN: 
0x3ffd7c10:  e92d4ff0      push	{r4, r5, r6, r7, r8, r9, sl, fp, lr}
0x3ffd7c14:  e5903034      ldr	r3, [r0, #52]
0x3ffd7c18:  e24dd06c      sub	sp, sp, #108	; 0x6c
0x3ffd7c1c:  e3530000      cmp	r3, #0	; 0x0
0x3ffd7c20:  e58d1030      str	r1, [sp, #48]
0x3ffd7c24:  e58d2034      str	r2, [sp, #52]
0x3ffd7c28:  0a00017f      beq	0x3ffd822c

----------------
IN: 
0x3ffd7c2c:  e5d0219a      ldrb	r2, [r0, #410]
0x3ffd7c30:  e5931004      ldr	r1, [r3, #4]
0x3ffd7c34:  e3120020      tst	r2, #32	; 0x20
0x3ffd7c38:  15903000      ldrne	r3, [r0]
0x3ffd7c3c:  e58d1010      str	r1, [sp, #16]
0x3ffd7c40:  10813003      addne	r3, r1, r3
0x3ffd7c44:  158d3010      strne	r3, [sp, #16]
0x3ffd7c48:  e59030b0      ldr	r3, [r0, #176]
0x3ffd7c4c:  e59020b8      ldr	r2, [r0, #184]
0x3ffd7c50:  e3530000      cmp	r3, #0	; 0x0
0x3ffd7c54:  e1a0b000      mov	fp, r0
0x3ffd7c58:  e58d3044      str	r3, [sp, #68]
0x3ffd7c5c:  e58d2040      str	r2, [sp, #64]
0x3ffd7c60:  0a00016e      beq	0x3ffd8220

----------------
IN: 
0x3ffd7c64:  e5902000      ldr	r2, [r0]
0x3ffd7c68:  e5933004      ldr	r3, [r3, #4]
0x3ffd7c6c:  e19210b3      ldrh	r1, [r2, r3]
0x3ffd7c70:  e3510001      cmp	r1, #1	; 0x1
0x3ffd7c74:  e0821003      add	r1, r2, r3
0x3ffd7c78:  e58d1028      str	r1, [sp, #40]
0x3ffd7c7c:  1a0001a9      bne	0x3ffd8328

----------------
IN: 
0x3ffd7c80:  e3a08000      mov	r8, #0	; 0x0
0x3ffd7c84:  e1a0b008      mov	fp, r8
0x3ffd7c88:  e58d802c      str	r8, [sp, #44]
0x3ffd7c8c:  e1a08000      mov	r8, r0
0x3ffd7c90:  e59f3780      ldr	r3, [pc, #1920]	; 0x3ffd8418
0x3ffd7c94:  e08f3003      add	r3, pc, r3
0x3ffd7c98:  e58d3038      str	r3, [sp, #56]
0x3ffd7c9c:  e59f3778      ldr	r3, [pc, #1912]	; 0x3ffd841c
0x3ffd7ca0:  e08f3003      add	r3, pc, r3
0x3ffd7ca4:  e58d3020      str	r3, [sp, #32]
0x3ffd7ca8:  e59f3770      ldr	r3, [pc, #1904]	; 0x3ffd8420
0x3ffd7cac:  e08f3003      add	r3, pc, r3
0x3ffd7cb0:  e58d3024      str	r3, [sp, #36]
0x3ffd7cb4:  e59f3768      ldr	r3, [pc, #1896]	; 0x3ffd8424
0x3ffd7cb8:  e08f3003      add	r3, pc, r3
0x3ffd7cbc:  e58d303c      str	r3, [sp, #60]
0x3ffd7cc0:  e59d2028      ldr	r2, [sp, #40]
0x3ffd7cc4:  e5983018      ldr	r3, [r8, #24]
0x3ffd7cc8:  e5924004      ldr	r4, [r2, #4]
0x3ffd7ccc:  e59d2010      ldr	r2, [sp, #16]
0x3ffd7cd0:  e0824004      add	r4, r2, r4
0x3ffd7cd4:  e0832103      add	r2, r3, r3, lsl #2
0x3ffd7cd8:  e0833082      add	r3, r3, r2, lsl #1
0x3ffd7cdc:  e59d2038      ldr	r2, [sp, #56]
0x3ffd7ce0:  e7926183      ldr	r6, [r2, r3, lsl #3]
0x3ffd7ce4:  e3560000      cmp	r6, #0	; 0x0
0x3ffd7ce8:  1a000003      bne	0x3ffd7cfc

----------------
IN: 
0x3ffd7cfc:  e1a01006      mov	r1, r6
0x3ffd7d00:  e1a00004      mov	r0, r4
0x3ffd7d04:  ebffe02e      bl	0x3ffcfdc4

----------------
IN: 
0x3ffd7d08:  e3500000      cmp	r0, #0	; 0x0
0x3ffd7d0c:  0afffff7      beq	0x3ffd7cf0

----------------
IN: 
0x3ffd7cf0:  e596600c      ldr	r6, [r6, #12]
0x3ffd7cf4:  e3560000      cmp	r6, #0	; 0x0
0x3ffd7cf8:  0a0000b0      beq	0x3ffd7fc0

----------------
IN: 
0x3ffd7d10:  e59d3034      ldr	r3, [sp, #52]
0x3ffd7d14:  e3530000      cmp	r3, #0	; 0x0
0x3ffd7d18:  1a0000e7      bne	0x3ffd80bc

----------------
IN: 
0x3ffd7d1c:  e59d3028      ldr	r3, [sp, #40]
0x3ffd7d20:  e59da03c      ldr	sl, [sp, #60]
0x3ffd7d24:  e5934008      ldr	r4, [r3, #8]
0x3ffd7d28:  e58d6014      str	r6, [sp, #20]
0x3ffd7d2c:  e0834004      add	r4, r3, r4
0x3ffd7d30:  e58d800c      str	r8, [sp, #12]
0x3ffd7d34:  e59d300c      ldr	r3, [sp, #12]
0x3ffd7d38:  e5936004      ldr	r6, [r3, #4]
0x3ffd7d3c:  e5d63000      ldrb	r3, [r6]
0x3ffd7d40:  e3530000      cmp	r3, #0	; 0x0
0x3ffd7d44:  1a000005      bne	0x3ffd7d60

----------------
IN: 
0x3ffd7d48:  e59d3020      ldr	r3, [sp, #32]
0x3ffd7d4c:  e5933000      ldr	r3, [r3]
0x3ffd7d50:  e5936000      ldr	r6, [r3]
0x3ffd7d54:  e59d3024      ldr	r3, [sp, #36]
0x3ffd7d58:  e3560000      cmp	r6, #0	; 0x0
0x3ffd7d5c:  01a06003      moveq	r6, r3
0x3ffd7d60:  e59d3014      ldr	r3, [sp, #20]
0x3ffd7d64:  e5947008      ldr	r7, [r4, #8]
0x3ffd7d68:  e5935014      ldr	r5, [r3, #20]
0x3ffd7d6c:  e59d3010      ldr	r3, [sp, #16]
0x3ffd7d70:  e5948000      ldr	r8, [r4]
0x3ffd7d74:  e0837007      add	r7, r3, r7
0x3ffd7d78:  e5d5319a      ldrb	r3, [r5, #410]
0x3ffd7d7c:  e3130020      tst	r3, #32	; 0x20
0x3ffd7d80:  e5953034      ldr	r3, [r5, #52]
0x3ffd7d84:  e5939004      ldr	r9, [r3, #4]
0x3ffd7d88:  e1d430b4      ldrh	r3, [r4, #4]
0x3ffd7d8c:  e58d3018      str	r3, [sp, #24]
0x3ffd7d90:  15953000      ldrne	r3, [r5]
0x3ffd7d94:  10899003      addne	r9, r9, r3
0x3ffd7d98:  e59a3000      ldr	r3, [sl]
0x3ffd7d9c:  e3130010      tst	r3, #16	; 0x10
0x3ffd7da0:  1a000072      bne	0x3ffd7f70

----------------
IN: 
0x3ffd7da4:  e59530b8      ldr	r3, [r5, #184]
0x3ffd7da8:  e3530000      cmp	r3, #0	; 0x0
0x3ffd7dac:  0a00005b      beq	0x3ffd7f20

----------------
IN: 
0x3ffd7db0:  e5933004      ldr	r3, [r3, #4]
0x3ffd7db4:  e3530000      cmp	r3, #0	; 0x0
0x3ffd7db8:  0a00017a      beq	0x3ffd83a8

----------------
IN: 
0x3ffd7dbc:  e5952000      ldr	r2, [r5]
0x3ffd7dc0:  e19310b2      ldrh	r1, [r3, r2]
0x3ffd7dc4:  e0833002      add	r3, r3, r2
0x3ffd7dc8:  e3510001      cmp	r1, #1	; 0x1
0x3ffd7dcc:  1a000015      bne	0x3ffd7e28

----------------
IN: 
0x3ffd7dd0:  e58d601c      str	r6, [sp, #28]
0x3ffd7dd4:  e1a06009      mov	r6, r9
0x3ffd7dd8:  e1a09008      mov	r9, r8
0x3ffd7ddc:  e1a08003      mov	r8, r3
0x3ffd7de0:  e1a0300a      mov	r3, sl
0x3ffd7de4:  e1a0a004      mov	sl, r4
0x3ffd7de8:  e1a04005      mov	r4, r5
0x3ffd7dec:  e1a05003      mov	r5, r3
0x3ffd7df0:  e5983008      ldr	r3, [r8, #8]
0x3ffd7df4:  e1590003      cmp	r9, r3
0x3ffd7df8:  0a000036      beq	0x3ffd7ed8

----------------
IN: 
0x3ffd7dfc:  e5983010      ldr	r3, [r8, #16]
0x3ffd7e00:  e3530000      cmp	r3, #0	; 0x0
0x3ffd7e04:  0a000089      beq	0x3ffd8030

----------------
IN: 
0x3ffd7e08:  e1b830b3      ldrh	r3, [r8, r3]!
0x3ffd7e0c:  e3530001      cmp	r3, #1	; 0x1
0x3ffd7e10:  0afffff6      beq	0x3ffd7df0

----------------
IN: 
0x3ffd7df0:  e5983008      ldr	r3, [r8, #8]
0x3ffd7df4:  e1590003      cmp	r9, r3
0x3ffd7df8:  0a000036      beq	0x3ffd7ed8

----------------
IN: 
0x3ffd7ed8:  e598300c      ldr	r3, [r8, #12]
0x3ffd7edc:  e1a00007      mov	r0, r7
0x3ffd7ee0:  e7981003      ldr	r1, [r8, r3]
0x3ffd7ee4:  e0861001      add	r1, r6, r1
0x3ffd7ee8:  eb00358f      bl	0x3ffe552c

----------------
IN: 
0x3ffd7eec:  e3500000      cmp	r0, #0	; 0x0
0x3ffd7ef0:  1affffc1      bne	0x3ffd7dfc

----------------
IN: 
0x3ffd7ef4:  e1a0400a      mov	r4, sl
0x3ffd7ef8:  e1a0a005      mov	sl, r5
0x3ffd7efc:  eaffffeb      b	0x3ffd7eb0

----------------
IN: 
0x3ffd7eb0:  e1d430b6      ldrh	r3, [r4, #6]
0x3ffd7eb4:  e1a03883      lsl	r3, r3, #17
0x3ffd7eb8:  e1a038a3      lsr	r3, r3, #17
0x3ffd7ebc:  e15b0003      cmp	fp, r3
0x3ffd7ec0:  31a0b003      movcc	fp, r3
0x3ffd7ec4:  e594300c      ldr	r3, [r4, #12]
0x3ffd7ec8:  e3530000      cmp	r3, #0	; 0x0
0x3ffd7ecc:  0a00000b      beq	0x3ffd7f00

----------------
IN: 
0x3ffd7f00:  e59d800c      ldr	r8, [sp, #12]
0x3ffd7f04:  e59d2028      ldr	r2, [sp, #40]
0x3ffd7f08:  e592300c      ldr	r3, [r2, #12]
0x3ffd7f0c:  e3530000      cmp	r3, #0	; 0x0
0x3ffd7f10:  0a000070      beq	0x3ffd80d8

----------------
IN: 
0x3ffd7f14:  e0823003      add	r3, r2, r3
0x3ffd7f18:  e58d3028      str	r3, [sp, #40]
0x3ffd7f1c:  eaffff67      b	0x3ffd7cc0

----------------
IN: 
0x3ffd7cc0:  e59d2028      ldr	r2, [sp, #40]
0x3ffd7cc4:  e5983018      ldr	r3, [r8, #24]
0x3ffd7cc8:  e5924004      ldr	r4, [r2, #4]
0x3ffd7ccc:  e59d2010      ldr	r2, [sp, #16]
0x3ffd7cd0:  e0824004      add	r4, r2, r4
0x3ffd7cd4:  e0832103      add	r2, r3, r3, lsl #2
0x3ffd7cd8:  e0833082      add	r3, r3, r2, lsl #1
0x3ffd7cdc:  e59d2038      ldr	r2, [sp, #56]
0x3ffd7ce0:  e7926183      ldr	r6, [r2, r3, lsl #3]
0x3ffd7ce4:  e3560000      cmp	r6, #0	; 0x0
0x3ffd7ce8:  1a000003      bne	0x3ffd7cfc

----------------
IN: 
0x3ffd7ed0:  e0844003      add	r4, r4, r3
0x3ffd7ed4:  eaffff96      b	0x3ffd7d34

----------------
IN: 
0x3ffd7d34:  e59d300c      ldr	r3, [sp, #12]
0x3ffd7d38:  e5936004      ldr	r6, [r3, #4]
0x3ffd7d3c:  e5d63000      ldrb	r3, [r6]
0x3ffd7d40:  e3530000      cmp	r3, #0	; 0x0
0x3ffd7d44:  1a000005      bne	0x3ffd7d60

----------------
IN: 
0x3ffd80d8:  e1a03008      mov	r3, r8
0x3ffd80dc:  e1a0800b      mov	r8, fp
0x3ffd80e0:  e1a0b003      mov	fp, r3
0x3ffd80e4:  e59d3040      ldr	r3, [sp, #64]
0x3ffd80e8:  e3530000      cmp	r3, #0	; 0x0
0x3ffd80ec:  0a000013      beq	0x3ffd8140

----------------
IN: 
0x3ffd8140:  e3580000      cmp	r8, #0	; 0x0
0x3ffd8144:  0a000039      beq	0x3ffd8230

----------------
IN: 
0x3ffd8148:  e59f3318      ldr	r3, [pc, #792]	; 0x3ffd8468
0x3ffd814c:  e2884001      add	r4, r8, #1	; 0x1
0x3ffd8150:  e08f3003      add	r3, pc, r3
0x3ffd8154:  e3a01010      mov	r1, #16	; 0x10
0x3ffd8158:  e1a00004      mov	r0, r4
0x3ffd815c:  e5933000      ldr	r3, [r3]
0x3ffd8160:  e12fff33      blx	r3

----------------
IN: 
0x3ffd8164:  e3500000      cmp	r0, #0	; 0x0
0x3ffd8168:  e58b0174      str	r0, [fp, #372]
0x3ffd816c:  0a000095      beq	0x3ffd83c8

----------------
IN: 
0x3ffd8170:  e5db319a      ldrb	r3, [fp, #410]
0x3ffd8174:  e58b4178      str	r4, [fp, #376]
0x3ffd8178:  e3130020      tst	r3, #32	; 0x20
0x3ffd817c:  e59b30e8      ldr	r3, [fp, #232]
0x3ffd8180:  159b2000      ldrne	r2, [fp]
0x3ffd8184:  e5933004      ldr	r3, [r3, #4]
0x3ffd8188:  10833002      addne	r3, r3, r2
0x3ffd818c:  e58b31b0      str	r3, [fp, #432]
0x3ffd8190:  e59d3044      ldr	r3, [sp, #68]
0x3ffd8194:  e3530000      cmp	r3, #0	; 0x0
0x3ffd8198:  0a00003b      beq	0x3ffd828c

----------------
IN: 
0x3ffd819c:  e5933004      ldr	r3, [r3, #4]
0x3ffd81a0:  e59b6000      ldr	r6, [fp]
0x3ffd81a4:  e59f72b8      ldr	r7, [pc, #696]	; 0x3ffd8464
0x3ffd81a8:  e59f82bc      ldr	r8, [pc, #700]	; 0x3ffd846c
0x3ffd81ac:  e59d5010      ldr	r5, [sp, #16]
0x3ffd81b0:  e0866003      add	r6, r6, r3
0x3ffd81b4:  e5963008      ldr	r3, [r6, #8]
0x3ffd81b8:  e0863003      add	r3, r6, r3
0x3ffd81bc:  ea000000      b	0x3ffd81c4

----------------
IN: 
0x3ffd81c4:  e1d320b6      ldrh	r2, [r3, #6]
0x3ffd81c8:  e002c007      and	ip, r2, r7
0x3ffd81cc:  e154000c      cmp	r4, ip
0x3ffd81d0:  9a00000a      bls	0x3ffd8200

----------------
IN: 
0x3ffd81d4:  e5931008      ldr	r1, [r3, #8]
0x3ffd81d8:  e0029008      and	r9, r2, r8
0x3ffd81dc:  e5962004      ldr	r2, [r6, #4]
0x3ffd81e0:  e593a000      ldr	sl, [r3]
0x3ffd81e4:  e080e20c      add	lr, r0, ip, lsl #4
0x3ffd81e8:  e0851001      add	r1, r5, r1
0x3ffd81ec:  e0852002      add	r2, r5, r2
0x3ffd81f0:  e58e9008      str	r9, [lr, #8]
0x3ffd81f4:  e58ea004      str	sl, [lr, #4]
0x3ffd81f8:  e780120c      str	r1, [r0, ip, lsl #4]
0x3ffd81fc:  e58e200c      str	r2, [lr, #12]
0x3ffd8200:  e593200c      ldr	r2, [r3, #12]
0x3ffd8204:  e3520000      cmp	r2, #0	; 0x0
0x3ffd8208:  1affffec      bne	0x3ffd81c0

----------------
IN: 
0x3ffd820c:  e596300c      ldr	r3, [r6, #12]
0x3ffd8210:  e3530000      cmp	r3, #0	; 0x0
0x3ffd8214:  0a00001c      beq	0x3ffd828c

----------------
IN: 
0x3ffd8218:  e0866003      add	r6, r6, r3
0x3ffd821c:  eaffffe4      b	0x3ffd81b4

----------------
IN: 
0x3ffd81b4:  e5963008      ldr	r3, [r6, #8]
0x3ffd81b8:  e0863003      add	r3, r6, r3
0x3ffd81bc:  ea000000      b	0x3ffd81c4

----------------
IN: 
0x3ffd81c0:  e0833002      add	r3, r3, r2
0x3ffd81c4:  e1d320b6      ldrh	r2, [r3, #6]
0x3ffd81c8:  e002c007      and	ip, r2, r7
0x3ffd81cc:  e154000c      cmp	r4, ip
0x3ffd81d0:  9a00000a      bls	0x3ffd8200

----------------
IN: 
0x3ffd828c:  e59d2040      ldr	r2, [sp, #64]
0x3ffd8290:  e3520000      cmp	r2, #0	; 0x0
0x3ffd8294:  0affffe5      beq	0x3ffd8230

----------------
IN: 
0x3ffd8230:  e59d002c      ldr	r0, [sp, #44]
0x3ffd8234:  e28dd06c      add	sp, sp, #108	; 0x6c
0x3ffd8238:  e8bd8ff0      pop	{r4, r5, r6, r7, r8, r9, sl, fp, pc}

----------------
IN: 
0x3ffd84e8:  e594400c      ldr	r4, [r4, #12]
0x3ffd84ec:  e3500000      cmp	r0, #0	; 0x0
0x3ffd84f0:  13855001      orrne	r5, r5, #1	; 0x1
0x3ffd84f4:  e3540000      cmp	r4, #0	; 0x0
0x3ffd84f8:  1afffff3      bne	0x3ffd84cc

----------------
IN: 
0x3ffd7d60:  e59d3014      ldr	r3, [sp, #20]
0x3ffd7d64:  e5947008      ldr	r7, [r4, #8]
0x3ffd7d68:  e5935014      ldr	r5, [r3, #20]
0x3ffd7d6c:  e59d3010      ldr	r3, [sp, #16]
0x3ffd7d70:  e5948000      ldr	r8, [r4]
0x3ffd7d74:  e0837007      add	r7, r3, r7
0x3ffd7d78:  e5d5319a      ldrb	r3, [r5, #410]
0x3ffd7d7c:  e3130020      tst	r3, #32	; 0x20
0x3ffd7d80:  e5953034      ldr	r3, [r5, #52]
0x3ffd7d84:  e5939004      ldr	r9, [r3, #4]
0x3ffd7d88:  e1d430b4      ldrh	r3, [r4, #4]
0x3ffd7d8c:  e58d3018      str	r3, [sp, #24]
0x3ffd7d90:  15953000      ldrne	r3, [r5]
0x3ffd7d94:  10899003      addne	r9, r9, r3
0x3ffd7d98:  e59a3000      ldr	r3, [sl]
0x3ffd7d9c:  e3130010      tst	r3, #16	; 0x10
0x3ffd7da0:  1a000072      bne	0x3ffd7f70

----------------
IN: 
0x3ffd80f0:  e59d3040      ldr	r3, [sp, #64]
0x3ffd80f4:  e59b2000      ldr	r2, [fp]
0x3ffd80f8:  e5933004      ldr	r3, [r3, #4]
0x3ffd80fc:  e59f0360      ldr	r0, [pc, #864]	; 0x3ffd8464
0x3ffd8100:  e0822003      add	r2, r2, r3
0x3ffd8104:  e1d230b4      ldrh	r3, [r2, #4]
0x3ffd8108:  e5921010      ldr	r1, [r2, #16]
0x3ffd810c:  e0033000      and	r3, r3, r0
0x3ffd8110:  e1580003      cmp	r8, r3
0x3ffd8114:  31a08003      movcc	r8, r3
0x3ffd8118:  e3510000      cmp	r1, #0	; 0x0
0x3ffd811c:  0a000007      beq	0x3ffd8140

----------------
IN: 
0x3ffd8120:  e0822001      add	r2, r2, r1
0x3ffd8124:  e1d230b4      ldrh	r3, [r2, #4]
0x3ffd8128:  e5921010      ldr	r1, [r2, #16]
0x3ffd812c:  e0033000      and	r3, r3, r0
0x3ffd8130:  e1580003      cmp	r8, r3
0x3ffd8134:  31a08003      movcc	r8, r3
0x3ffd8138:  e3510000      cmp	r1, #0	; 0x0
0x3ffd813c:  1afffff7      bne	0x3ffd8120

----------------
IN: 
0x3ffd8298:  e59b3000      ldr	r3, [fp]
0x3ffd829c:  e5922004      ldr	r2, [r2, #4]
0x3ffd82a0:  e59f51bc      ldr	r5, [pc, #444]	; 0x3ffd8464
0x3ffd82a4:  e59d6010      ldr	r6, [sp, #16]
0x3ffd82a8:  e0833002      add	r3, r3, r2
0x3ffd82ac:  ea000000      b	0x3ffd82b4

----------------
IN: 
0x3ffd82b4:  e1d320b2      ldrh	r2, [r3, #2]
0x3ffd82b8:  e2122001      ands	r2, r2, #1	; 0x1
0x3ffd82bc:  1a000009      bne	0x3ffd82e8

----------------
IN: 
0x3ffd82e8:  e5932010      ldr	r2, [r3, #16]
0x3ffd82ec:  e3520000      cmp	r2, #0	; 0x0
0x3ffd82f0:  1affffee      bne	0x3ffd82b0

----------------
IN: 
0x3ffd82b0:  e0833002      add	r3, r3, r2
0x3ffd82b4:  e1d320b2      ldrh	r2, [r3, #2]
0x3ffd82b8:  e2122001      ands	r2, r2, #1	; 0x1
0x3ffd82bc:  1a000009      bne	0x3ffd82e8

----------------
IN: 
0x3ffd82c0:  e593100c      ldr	r1, [r3, #12]
0x3ffd82c4:  e5934008      ldr	r4, [r3, #8]
0x3ffd82c8:  e793c001      ldr	ip, [r3, r1]
0x3ffd82cc:  e1d310b4      ldrh	r1, [r3, #4]
0x3ffd82d0:  e086c00c      add	ip, r6, ip
0x3ffd82d4:  e0011005      and	r1, r1, r5
0x3ffd82d8:  e080e201      add	lr, r0, r1, lsl #4
0x3ffd82dc:  e58e4004      str	r4, [lr, #4]
0x3ffd82e0:  e780c201      str	ip, [r0, r1, lsl #4]
0x3ffd82e4:  e58e200c      str	r2, [lr, #12]
0x3ffd82e8:  e5932010      ldr	r2, [r3, #16]
0x3ffd82ec:  e3520000      cmp	r2, #0	; 0x0
0x3ffd82f0:  1affffee      bne	0x3ffd82b0

----------------
IN: 
0x3ffd82f4:  e59d002c      ldr	r0, [sp, #44]
0x3ffd82f8:  e28dd06c      add	sp, sp, #108	; 0x6c
0x3ffd82fc:  e8bd8ff0      pop	{r4, r5, r6, r7, r8, r9, sl, fp, pc}

----------------
IN: 
0x3ffd8220:  e59d3040      ldr	r3, [sp, #64]
0x3ffd8224:  e3530000      cmp	r3, #0	; 0x0
0x3ffd8228:  1a000037      bne	0x3ffd830c

----------------
IN: 
0x3ffd830c:  e59d3044      ldr	r3, [sp, #68]
0x3ffd8310:  e1a08003      mov	r8, r3
0x3ffd8314:  e58d302c      str	r3, [sp, #44]
0x3ffd8318:  eaffff74      b	0x3ffd80f0

----------------
IN: 
0x3ffd84fc:  e1a00005      mov	r0, r5
0x3ffd8500:  e8bd81f0      pop	{r4, r5, r6, r7, r8, pc}

----------------
IN: 
0x3ffde62c:  e3500000      cmp	r0, #0	; 0x0
0x3ffde630:  08bd8010      popeq	{r4, pc}

----------------
IN: 
0x3ffdbad8:  e5846000      str	r6, [r4]
0x3ffdbadc:  e5845004      str	r5, [r4, #4]
0x3ffdbae0:  e8bd8070      pop	{r4, r5, r6, pc}

----------------
IN: 
0x3ffe12bc:  e51b31cc      ldr	r3, [fp, #-460]
0x3ffe12c0:  e3530000      cmp	r3, #0	; 0x0
0x3ffe12c4:  e59f3f34      ldr	r3, [pc, #3892]	; 0x3ffe2200
0x3ffe12c8:  e08f3003      add	r3, pc, r3
0x3ffe12cc:  e5d33004      ldrb	r3, [r3, #4]
0x3ffe12d0:  e50b31d4      str	r3, [fp, #-468]
0x3ffe12d4:  0a0002c8      beq	0x3ffe1dfc

----------------
IN: 
0x3ffe1dfc:  e51b01cc      ldr	r0, [fp, #-460]
0x3ffe1e00:  ebfff16e      bl	0x3ffde3c0

----------------
IN: 
0x3ffde3c0:  e92d41f0      push	{r4, r5, r6, r7, r8, lr}
0x3ffde3c4:  e59f4154      ldr	r4, [pc, #340]	; 0x3ffde520
0x3ffde3c8:  e08f4004      add	r4, pc, r4
0x3ffde3cc:  e59478f4      ldr	r7, [r4, #2292]
0x3ffde3d0:  e59458e0      ldr	r5, [r4, #2272]
0x3ffde3d4:  e3570000      cmp	r7, #0	; 0x0
0x3ffde3d8:  e58458e8      str	r5, [r4, #2280]
0x3ffde3dc:  1a000032      bne	0x3ffde4ac

----------------
IN: 
0x3ffde3e0:  e59f313c      ldr	r3, [pc, #316]	; 0x3ffde524
0x3ffde3e4:  e1a06000      mov	r6, r0
0x3ffde3e8:  e08f3003      add	r3, pc, r3
0x3ffde3ec:  e2850040      add	r0, r5, #64	; 0x40
0x3ffde3f0:  e3a01001      mov	r1, #1	; 0x1
0x3ffde3f4:  e5933000      ldr	r3, [r3]
0x3ffde3f8:  e1a00180      lsl	r0, r0, #3
0x3ffde3fc:  e12fff33      blx	r3

----------------
IN: 
0x3ffde400:  e1a0c000      mov	ip, r0
0x3ffde404:  e5942058      ldr	r2, [r4, #88]
0x3ffde408:  e285503f      add	r5, r5, #63	; 0x3f
0x3ffde40c:  e3520000      cmp	r2, #0	; 0x0
0x3ffde410:  e58408e4      str	r0, [r4, #2276]
0x3ffde414:  e48c5008      str	r5, [ip], #8
0x3ffde418:  e5807004      str	r7, [r0, #4]
0x3ffde41c:  1a000037      bne	0x3ffde500

----------------
IN: 
0x3ffde420:  e5943000      ldr	r3, [r4]
0x3ffde424:  e3530000      cmp	r3, #0	; 0x0
0x3ffde428:  0a000027      beq	0x3ffde4cc

----------------
IN: 
0x3ffde42c:  e5931240      ldr	r1, [r3, #576]
0x3ffde430:  e3510000      cmp	r1, #0	; 0x0
0x3ffde434:  108c1182      addne	r1, ip, r2, lsl #3
0x3ffde438:  15813004      strne	r3, [r1, #4]
0x3ffde43c:  e593300c      ldr	r3, [r3, #12]
0x3ffde440:  12822001      addne	r2, r2, #1	; 0x1
0x3ffde444:  e3530000      cmp	r3, #0	; 0x0
0x3ffde448:  1afffff7      bne	0x3ffde42c

----------------
IN: 
0x3ffde44c:  e59f50d4      ldr	r5, [pc, #212]	; 0x3ffde528
0x3ffde450:  e08f5005      add	r5, pc, r5
0x3ffde454:  e59538e0      ldr	r3, [r5, #2272]
0x3ffde458:  e1530002      cmp	r3, r2
0x3ffde45c:  1a00001c      bne	0x3ffde4d4

----------------
IN: 
0x3ffde460:  e1a00006      mov	r0, r6
0x3ffde464:  ebffe179      bl	0x3ffd6a50

----------------
IN: 
0x3ffd6a50:  e3a02000      mov	r2, #0	; 0x0
0x3ffd6a54:  e92d4070      push	{r4, r5, r6, lr}
0x3ffd6a58:  e24dd008      sub	sp, sp, #8	; 0x8
0x3ffd6a5c:  e28d6004      add	r6, sp, #4	; 0x4
0x3ffd6a60:  e1a05000      mov	r5, r0
0x3ffd6a64:  e1a01006      mov	r1, r6
0x3ffd6a68:  e1a00002      mov	r0, r2
0x3ffd6a6c:  eb000c00      bl	0x3ffd9a74

----------------
IN: 
0x3ffd9aa4:  ea000000      b	0x3ffd9aac

----------------
IN: 
0x3ffd9aac:  e59fc0a8      ldr	ip, [pc, #168]	; 0x3ffd9b5c
0x3ffd9ab0:  e043e000      sub	lr, r3, r0
0x3ffd9ab4:  e08fc00c      add	ip, pc, ip
0x3ffd9ab8:  e08cc20e      add	ip, ip, lr, lsl #4
0x3ffd9abc:  e59cc048      ldr	ip, [ip, #72]
0x3ffd9ac0:  e581c000      str	ip, [r1]
0x3ffd9ac4:  e59f1094      ldr	r1, [pc, #148]	; 0x3ffd9b60
0x3ffd9ac8:  e0430000      sub	r0, r3, r0
0x3ffd9acc:  e08f1001      add	r1, pc, r1
0x3ffd9ad0:  e0813200      add	r3, r1, r0, lsl #4
0x3ffd9ad4:  e5d33050      ldrb	r3, [r3, #80]
0x3ffd9ad8:  e1a00200      lsl	r0, r0, #4
0x3ffd9adc:  e3520000      cmp	r2, #0	; 0x0
0x3ffd9ae0:  03a03000      moveq	r3, #0	; 0x0
0x3ffd9ae4:  12033001      andne	r3, r3, #1	; 0x1
0x3ffd9ae8:  e3530000      cmp	r3, #0	; 0x0
0x3ffd9aec:  08bd8800      popeq	{fp, pc}

----------------
IN: 
0x3ffd6a70:  e59d4004      ldr	r4, [sp, #4]
0x3ffd6a74:  e3a02000      mov	r2, #0	; 0x0
0x3ffd6a78:  e1a01006      mov	r1, r6
0x3ffd6a7c:  e3a00018      mov	r0, #24	; 0x18
0x3ffd6a80:  eb000bfb      bl	0x3ffd9a74

----------------
IN: 
0x3ffd6a84:  e3540010      cmp	r4, #16	; 0x10
0x3ffd6a88:  23a04010      movcs	r4, #16	; 0x10
0x3ffd6a8c:  e2642010      rsb	r2, r4, #16	; 0x10
0x3ffd6a90:  e1520005      cmp	r2, r5
0x3ffd6a94:  e59d1004      ldr	r1, [sp, #4]
0x3ffd6a98:  3a00000d      bcc	0x3ffd6ad4

----------------
IN: 
0x3ffd6a9c:  e0844005      add	r4, r4, r5
0x3ffd6aa0:  e2443001      sub	r3, r4, #1	; 0x1
0x3ffd6aa4:  e0833004      add	r3, r3, r4
0x3ffd6aa8:  e59f2034      ldr	r2, [pc, #52]	; 0x3ffd6ae4
0x3ffd6aac:  e59f0034      ldr	r0, [pc, #52]	; 0x3ffd6ae8
0x3ffd6ab0:  e0833183      add	r3, r3, r3, lsl #3
0x3ffd6ab4:  e0813203      add	r3, r1, r3, lsl #4
0x3ffd6ab8:  e08f2002      add	r2, pc, r2
0x3ffd6abc:  e08f0000      add	r0, pc, r0
0x3ffd6ac0:  e2833090      add	r3, r3, #144	; 0x90
0x3ffd6ac4:  e58218f0      str	r1, [r2, #2288]
0x3ffd6ac8:  e5803178      str	r3, [r0, #376]
0x3ffd6acc:  e28dd008      add	sp, sp, #8	; 0x8
0x3ffd6ad0:  e8bd8070      pop	{r4, r5, r6, pc}

----------------
IN: 
0x3ffde468:  ebffe207      bl	0x3ffd6c8c

----------------
IN: 
0x3ffd6c8c:  e59f31c4      ldr	r3, [pc, #452]	; 0x3ffd6e58
0x3ffd6c90:  e92d4ff0      push	{r4, r5, r6, r7, r8, r9, sl, fp, lr}
0x3ffd6c94:  e08f3003      add	r3, pc, r3
0x3ffd6c98:  e593b8e4      ldr	fp, [r3, #2276]
0x3ffd6c9c:  e24dd014      sub	sp, sp, #20	; 0x14
0x3ffd6ca0:  e35b0000      cmp	fp, #0	; 0x0
0x3ffd6ca4:  0a000063      beq	0x3ffd6e38

----------------
IN: 
0x3ffd6ca8:  e59b8004      ldr	r8, [fp, #4]
0x3ffd6cac:  e3580000      cmp	r8, #0	; 0x0
0x3ffd6cb0:  1a000058      bne	0x3ffd6e18

----------------
IN: 
0x3ffd6cb4:  e59b500c      ldr	r5, [fp, #12]
0x3ffd6cb8:  e3550000      cmp	r5, #0	; 0x0
0x3ffd6cbc:  0a00004a      beq	0x3ffd6dec

----------------
IN: 
0x3ffd6cc0:  e1a0300b      mov	r3, fp
0x3ffd6cc4:  e3a07008      mov	r7, #8	; 0x8
0x3ffd6cc8:  e3a0b020      mov	fp, #32	; 0x20
0x3ffd6ccc:  e1a09008      mov	r9, r8
0x3ffd6cd0:  e1a0a008      mov	sl, r8
0x3ffd6cd4:  e493200c      ldr	r2, [r3], #12
0x3ffd6cd8:  e58d2008      str	r2, [sp, #8]
0x3ffd6cdc:  e58d300c      str	r3, [sp, #12]
0x3ffd6ce0:  e59d3008      ldr	r3, [sp, #8]
0x3ffd6ce4:  e1530008      cmp	r3, r8
0x3ffd6ce8:  0a000042      beq	0x3ffd6df8

----------------
IN: 
0x3ffd6cec:  e5951244      ldr	r1, [r5, #580]
0x3ffd6cf0:  e5954248      ldr	r4, [r5, #584]
0x3ffd6cf4:  e5956240      ldr	r6, [r5, #576]
0x3ffd6cf8:  e15b0001      cmp	fp, r1
0x3ffd6cfc:  e2644000      rsb	r4, r4, #0	; 0x0
0x3ffd6d00:  e2410001      sub	r0, r1, #1	; 0x1
0x3ffd6d04:  e04a2009      sub	r2, sl, r9
0x3ffd6d08:  31a0b001      movcc	fp, r1
0x3ffd6d0c:  e0044000      and	r4, r4, r0
0x3ffd6d10:  e1560002      cmp	r6, r2
0x3ffd6d14:  e0466004      sub	r6, r6, r4
0x3ffd6d18:  8a00000f      bhi	0x3ffd6d5c

----------------
IN: 
0x3ffd6d5c:  e2470001      sub	r0, r7, #1	; 0x1
0x3ffd6d60:  e0800001      add	r0, r0, r1
0x3ffd6d64:  e58d2004      str	r2, [sp, #4]
0x3ffd6d68:  e58d1000      str	r1, [sp]
0x3ffd6d6c:  eb003e71      bl	0x3ffe6738

----------------
IN: 
0x3ffe6738:  e2512001      subs	r2, r1, #1	; 0x1
0x3ffe673c:  012fff1e      bxeq	lr

----------------
IN: 
0x3ffe6740:  3a000074      bcc	0x3ffe6918

----------------
IN: 
0x3ffe6744:  e1500001      cmp	r0, r1
0x3ffe6748:  9a00006b      bls	0x3ffe68fc

----------------
IN: 
0x3ffe674c:  e1110002      tst	r1, r2
0x3ffe6750:  0a00006c      beq	0x3ffe6908

----------------
IN: 
0x3ffe6908:  e16f2f11      clz	r2, r1
0x3ffe690c:  e262201f      rsb	r2, r2, #31	; 0x1f
0x3ffe6910:  e1a00230      lsr	r0, r0, r2
0x3ffe6914:  e12fff1e      bx	lr

----------------
IN: 
0x3ffd6d70:  e59d1000      ldr	r1, [sp]
0x3ffd6d74:  e59d2004      ldr	r2, [sp, #4]
0x3ffd6d78:  e0000091      mul	r0, r1, r0
0x3ffd6d7c:  e040c007      sub	ip, r0, r7
0x3ffd6d80:  e15c0004      cmp	ip, r4
0x3ffd6d84:  30800001      addcc	r0, r0, r1
0x3ffd6d88:  e0404004      sub	r4, r0, r4
0x3ffd6d8c:  e0441007      sub	r1, r4, r7
0x3ffd6d90:  e1520001      cmp	r2, r1
0x3ffd6d94:  31a0a004      movcc	sl, r4
0x3ffd6d98:  31a09007      movcc	r9, r7
0x3ffd6d9c:  e0867000      add	r7, r6, r0
0x3ffd6da0:  e59d300c      ldr	r3, [sp, #12]
0x3ffd6da4:  e2888001      add	r8, r8, #1	; 0x1
0x3ffd6da8:  e585424c      str	r4, [r5, #588]
0x3ffd6dac:  e7935188      ldr	r5, [r3, r8, lsl #3]
0x3ffd6db0:  e3550000      cmp	r5, #0	; 0x0
0x3ffd6db4:  1affffc9      bne	0x3ffd6ce0

----------------
IN: 
0x3ffd6db8:  e59f109c      ldr	r1, [pc, #156]	; 0x3ffd6e5c
0x3ffd6dbc:  e59f009c      ldr	r0, [pc, #156]	; 0x3ffd6e60
0x3ffd6dc0:  e08f1001      add	r1, pc, r1
0x3ffd6dc4:  e5912178      ldr	r2, [r1, #376]
0x3ffd6dc8:  e08f0000      add	r0, pc, r0
0x3ffd6dcc:  e282201f      add	r2, r2, #31	; 0x1f
0x3ffd6dd0:  e0822007      add	r2, r2, r7
0x3ffd6dd4:  e3c2201f      bic	r2, r2, #31	; 0x1f
0x3ffd6dd8:  e58078ec      str	r7, [r0, #2284]
0x3ffd6ddc:  e5812170      str	r2, [r1, #368]
0x3ffd6de0:  e581b174      str	fp, [r1, #372]
0x3ffd6de4:  e28dd014      add	sp, sp, #20	; 0x14
0x3ffd6de8:  e8bd8ff0      pop	{r4, r5, r6, r7, r8, r9, sl, fp, pc}

----------------
IN: 
0x3ffde46c:  ebffe28d      bl	0x3ffd6ea8

----------------
IN: 
0x3ffd6ea8:  e59f30cc      ldr	r3, [pc, #204]	; 0x3ffd6f7c
0x3ffd6eac:  e92d41f0      push	{r4, r5, r6, r7, r8, lr}
0x3ffd6eb0:  e08f3003      add	r3, pc, r3
0x3ffd6eb4:  e5935174      ldr	r5, [r3, #372]
0x3ffd6eb8:  e5930170      ldr	r0, [r3, #368]
0x3ffd6ebc:  e59f20bc      ldr	r2, [pc, #188]	; 0x3ffd6f80
0x3ffd6ec0:  e0850000      add	r0, r5, r0
0x3ffd6ec4:  e08f2002      add	r2, pc, r2
0x3ffd6ec8:  e2800d16      add	r0, r0, #1408	; 0x580
0x3ffd6ecc:  e5923000      ldr	r3, [r2]
0x3ffd6ed0:  e2800004      add	r0, r0, #4	; 0x4
0x3ffd6ed4:  e12fff33      blx	r3

----------------
IN: 
0x3ffd6ed8:  e2506000      subs	r6, r0, #0	; 0x0
0x3ffd6edc:  0a000023      beq	0x3ffd6f70

----------------
IN: 
0x3ffd6ee0:  e2850d16      add	r0, r5, #1408	; 0x580
0x3ffd6ee4:  e2800003      add	r0, r0, #3	; 0x3
0x3ffd6ee8:  e1a01005      mov	r1, r5
0x3ffd6eec:  e0860000      add	r0, r6, r0
0x3ffd6ef0:  eb003e10      bl	0x3ffe6738

----------------
IN: 
0x3ffd6ef4:  e0050590      mul	r5, r0, r5
0x3ffd6ef8:  e3a01000      mov	r1, #0	; 0x0
0x3ffd6efc:  e59f2080      ldr	r2, [pc, #128]	; 0x3ffd6f84
0x3ffd6f00:  e2450d16      sub	r0, r5, #1408	; 0x580
0x3ffd6f04:  eb003c75      bl	0x3ffe60e0

----------------
IN: 
0x3ffd6f08:  e59f2078      ldr	r2, [pc, #120]	; 0x3ffd6f88
0x3ffd6f0c:  e59f3078      ldr	r3, [pc, #120]	; 0x3ffd6f8c
0x3ffd6f10:  e08f2002      add	r2, pc, r2
0x3ffd6f14:  e59208e0      ldr	r0, [r2, #2272]
0x3ffd6f18:  e08f3003      add	r3, pc, r3
0x3ffd6f1c:  e5056584      str	r6, [r5, #-1412]
0x3ffd6f20:  e3a01008      mov	r1, #8	; 0x8
0x3ffd6f24:  e280700e      add	r7, r0, #14	; 0xe
0x3ffd6f28:  e5933000      ldr	r3, [r3]
0x3ffd6f2c:  e2800010      add	r0, r0, #16	; 0x10
0x3ffd6f30:  e12fff33      blx	r3

----------------
IN: 
0x3ffd6f34:  e2504000      subs	r4, r0, #0	; 0x0
0x3ffd6f38:  11a00004      movne	r0, r4
0x3ffd6f3c:  14807008      strne	r7, [r0], #8
0x3ffd6f40:  15850000      strne	r0, [r5]
0x3ffd6f44:  0a000001      beq	0x3ffd6f50

----------------
IN: 
0x3ffd6f48:  e1a00005      mov	r0, r5
0x3ffd6f4c:  e8bd81f0      pop	{r4, r5, r6, r7, r8, pc}

----------------
IN: 
0x3ffde470:  e2504000      subs	r4, r0, #0	; 0x0
0x3ffde474:  0a00001e      beq	0x3ffde4f4

----------------
IN: 
0x3ffde478:  e5943000      ldr	r3, [r4]
0x3ffde47c:  e59f70a8      ldr	r7, [pc, #168]	; 0x3ffde52c
0x3ffde480:  e58538f4      str	r3, [r5, #2292]
0x3ffde484:  ef000000      svc	0x00000000

----------------
IN: 
0x3ffde488:  e3700a01      cmn	r0, #4096	; 0x1000
0x3ffde48c:  8a000009      bhi	0x3ffde4b8

----------------
IN: 
0x3ffde490:  ebffe556      bl	0x3ffd79f0

----------------
IN: 
0x3ffd79f0:  e59f2118      ldr	r2, [pc, #280]	; 0x3ffd7b10
0x3ffd79f4:  e92d40b0      push	{r4, r5, r7, lr}
0x3ffd79f8:  e08f2002      add	r2, pc, r2
0x3ffd79fc:  e1a03002      mov	r3, r2
0x3ffd7a00:  eb002e4a      bl	0x3ffe3330

----------------
IN: 
0x3ffe3330:  e3e00a0f      mvn	r0, #61440	; 0xf000
0x3ffe3334:  e240f01f      sub	pc, r0, #31	; 0x1f

----------------
IN: 
0xffff0fe0:  Address 0xffff0fe0 is out of bounds.


----------------
IN: 
0x3ffd7a04:  e59f5108      ldr	r5, [pc, #264]	; 0x3ffd7b14
0x3ffd7a08:  e5b3c908      ldr	ip, [r3, #2312]!
0x3ffd7a0c:  e2401e52      sub	r1, r0, #1312	; 0x520
0x3ffd7a10:  e500351c      str	r3, [r0, #-1308]
0x3ffd7a14:  e08f5005      add	r5, pc, r5
0x3ffd7a18:  e500c520      str	ip, [r0, #-1312]
0x3ffd7a1c:  e1a04000      mov	r4, r0
0x3ffd7a20:  e24dd008      sub	sp, sp, #8	; 0x8
0x3ffd7a24:  e2403d16      sub	r3, r0, #1408	; 0x580
0x3ffd7a28:  e58c1004      str	r1, [ip, #4]
0x3ffd7a2c:  e3e0ca0f      mvn	ip, #61440	; 0xf000
0x3ffd7a30:  e1a0e00f      mov	lr, pc
0x3ffd7a34:  e24cf05f      sub	pc, ip, #95	; 0x5f

----------------
IN: 
0x3ffd7a38:  e3a07c01      mov	r7, #256	; 0x100
0x3ffd7a3c:  e5821908      str	r1, [r2, #2312]
0x3ffd7a40:  e2830068      add	r0, r3, #104	; 0x68
0x3ffd7a44:  ef000000      svc	0x00000000

----------------
IN: 
0x3ffd7a48:  e283308c      add	r3, r3, #140	; 0x8c
0x3ffd7a4c:  e3a02001      mov	r2, #1	; 0x1
0x3ffd7a50:  e50433f4      str	r3, [r4, #-1012]
0x3ffd7a54:  e3e03013      mvn	r3, #19	; 0x13
0x3ffd7a58:  e59f10b8      ldr	r1, [pc, #184]	; 0x3ffd7b18
0x3ffd7a5c:  e2877052      add	r7, r7, #82	; 0x52
0x3ffd7a60:  e08f1001      add	r1, pc, r1
0x3ffd7a64:  e5d11000      ldrb	r1, [r1]
0x3ffd7a68:  e5040518      str	r0, [r4, #-1304]
0x3ffd7a6c:  e2440e51      sub	r0, r4, #1296	; 0x510
0x3ffd7a70:  e5441373      strb	r1, [r4, #-883]
0x3ffd7a74:  e504350c      str	r3, [r4, #-1292]
0x3ffd7a78:  e3a0100c      mov	r1, #12	; 0xc
0x3ffd7a7c:  e5442372      strb	r2, [r4, #-882]
0x3ffd7a80:  e5040510      str	r0, [r4, #-1296]
0x3ffd7a84:  ef000000      svc	0x00000000

----------------
IN: 
0x3ffd7a88:  e3a00004      mov	r0, #4	; 0x4
0x3ffd7a8c:  e3a02000      mov	r2, #0	; 0x0
0x3ffd7a90:  e08d1000      add	r1, sp, r0
0x3ffd7a94:  eb0007f6      bl	0x3ffd9a74

----------------
IN: 
0x3ffd7a98:  e59d3004      ldr	r3, [sp, #4]
0x3ffd7a9c:  e3530000      cmp	r3, #0	; 0x0
0x3ffd7aa0:  0a000007      beq	0x3ffd7ac4

----------------
IN: 
0x3ffd7aa4:  e3a01020      mov	r1, #32	; 0x20
0x3ffd7aa8:  e3a02000      mov	r2, #0	; 0x0
0x3ffd7aac:  e59f3068      ldr	r3, [pc, #104]	; 0x3ffd7b1c
0x3ffd7ab0:  e2440020      sub	r0, r4, #32	; 0x20
0x3ffd7ab4:  e287703c      add	r7, r7, #60	; 0x3c
0x3ffd7ab8:  ef000000      svc	0x00000000

----------------
IN: 
0x3ffd7abc:  e3700a01      cmn	r0, #4096	; 0x1000
0x3ffd7ac0:  9a00000e      bls	0x3ffd7b00

----------------
IN: 
0x3ffd7ac4:  e3e03001      mvn	r3, #1	; 0x1
0x3ffd7ac8:  e504301c      str	r3, [r4, #-28]
0x3ffd7acc:  e3a03000      mov	r3, #0	; 0x0
0x3ffd7ad0:  e3e0001f      mvn	r0, #31	; 0x1f
0x3ffd7ad4:  e59f2044      ldr	r2, [pc, #68]	; 0x3ffd7b20
0x3ffd7ad8:  e7951002      ldr	r1, [r5, r2]
0x3ffd7adc:  e59f2040      ldr	r2, [pc, #64]	; 0x3ffd7b24
0x3ffd7ae0:  e5810000      str	r0, [r1]
0x3ffd7ae4:  e08f2002      add	r2, pc, r2
0x3ffd7ae8:  e5922000      ldr	r2, [r2]
0x3ffd7aec:  e544304b      strb	r3, [r4, #-75]
0x3ffd7af0:  e50422dc      str	r2, [r4, #-732]
0x3ffd7af4:  e544304a      strb	r3, [r4, #-74]
0x3ffd7af8:  e28dd008      add	sp, sp, #8	; 0x8
0x3ffd7afc:  e8bd80b0      pop	{r4, r5, r7, pc}

----------------
IN: 
0x3ffde494:  e3a02001      mov	r2, #1	; 0x1
0x3ffde498:  e59f3090      ldr	r3, [pc, #144]	; 0x3ffde530
0x3ffde49c:  e1a00004      mov	r0, r4
0x3ffde4a0:  e08f3003      add	r3, pc, r3
0x3ffde4a4:  e5c32004      strb	r2, [r3, #4]
0x3ffde4a8:  e8bd81f0      pop	{r4, r5, r6, r7, r8, pc}

----------------
IN: 
0x3ffe1e04:  e50b01cc      str	r0, [fp, #-460]
0x3ffe1e08:  eafffd32      b	0x3ffe12d8

----------------
IN: 
0x3ffe12d8:  e3550000      cmp	r5, #0	; 0x0
0x3ffe12dc:  0a000018      beq	0x3ffe1344

----------------
IN: 
0x3ffe12e0:  e51b21dc      ldr	r2, [fp, #-476]
0x3ffe12e4:  e59f3f18      ldr	r3, [pc, #3864]	; 0x3ffe2204
0x3ffe12e8:  e59f4f18      ldr	r4, [pc, #3864]	; 0x3ffe2208
0x3ffe12ec:  e7920003      ldr	r0, [r2, r3]
0x3ffe12f0:  e3a02004      mov	r2, #4	; 0x4
0x3ffe12f4:  e08f4004      add	r4, pc, r4
0x3ffe12f8:  e5941000      ldr	r1, [r4]
0x3ffe12fc:  e5d1c001      ldrb	ip, [r1, #1]
0x3ffe1300:  e5d13000      ldrb	r3, [r1]
0x3ffe1304:  e183340c      orr	r3, r3, ip, lsl #8
0x3ffe1308:  e5d1c002      ldrb	ip, [r1, #2]
0x3ffe130c:  e183380c      orr	r3, r3, ip, lsl #16
0x3ffe1310:  e5d1c003      ldrb	ip, [r1, #3]
0x3ffe1314:  e0811002      add	r1, r1, r2
0x3ffe1318:  e1833c0c      orr	r3, r3, ip, lsl #24
0x3ffe131c:  e3c330ff      bic	r3, r3, #255	; 0xff
0x3ffe1320:  e5803000      str	r3, [r0]
0x3ffe1324:  e1a00009      mov	r0, r9
0x3ffe1328:  eb001398      bl	0x3ffe6190

----------------
IN: 
0x3ffe132c:  e3a03000      mov	r3, #0	; 0x0
0x3ffe1330:  e5843000      str	r3, [r4]
0x3ffe1334:  e59f3ed0      ldr	r3, [pc, #3792]	; 0x3ffe220c
0x3ffe1338:  e51b21a0      ldr	r2, [fp, #-416]
0x3ffe133c:  e08f3003      add	r3, pc, r3
0x3ffe1340:  e5832004      str	r2, [r3, #4]
0x3ffe1344:  e51b302c      ldr	r3, [fp, #-44]
0x3ffe1348:  e3530000      cmp	r3, #0	; 0x0
0x3ffe134c:  1a00032b      bne	0x3ffe2000

----------------
IN: 
0x3ffe1350:  e59a3140      ldr	r3, [sl, #320]
0x3ffe1354:  e3530000      cmp	r3, #0	; 0x0
0x3ffe1358:  0a0000b2      beq	0x3ffe1628

----------------
IN: 
0x3ffe1628:  e59f3c0c      ldr	r3, [pc, #3084]	; 0x3ffe223c
0x3ffe162c:  e08f3003      add	r3, pc, r3
0x3ffe1630:  e5933000      ldr	r3, [r3]
0x3ffe1634:  e59f2c04      ldr	r2, [pc, #3076]	; 0x3ffe2240
0x3ffe1638:  e3130c02      tst	r3, #512	; 0x200
0x3ffe163c:  e59f3c00      ldr	r3, [pc, #3072]	; 0x3ffe2244
0x3ffe1640:  e08f2002      add	r2, pc, r2
0x3ffe1644:  e592c5e8      ldr	ip, [r2, #1512]
0x3ffe1648:  e08f3003      add	r3, pc, r3
0x3ffe164c:  e28a1e16      add	r1, sl, #352	; 0x160
0x3ffe1650:  e5821008      str	r1, [r2, #8]
0x3ffe1654:  e283201c      add	r2, r3, #28	; 0x1c
0x3ffe1658:  e8910003      ldm	r1, {r0, r1}
0x3ffe165c:  e583c18c      str	ip, [r3, #396]
0x3ffe1660:  e8820003      stm	r2, {r0, r1}
0x3ffe1664:  1a00010c      bne	0x3ffe1a9c

----------------
IN: 
0x3ffe1668:  e59f3bd8      ldr	r3, [pc, #3032]	; 0x3ffe2248
0x3ffe166c:  e59a4164      ldr	r4, [sl, #356]
0x3ffe1670:  e08f3003      add	r3, pc, r3
0x3ffe1674:  e593617c      ldr	r6, [r3, #380]
0x3ffe1678:  e5932030      ldr	r2, [r3, #48]
0x3ffe167c:  e2566000      subs	r6, r6, #0	; 0x0
0x3ffe1680:  13a06001      movne	r6, #1	; 0x1
0x3ffe1684:  e3540000      cmp	r4, #0	; 0x0
0x3ffe1688:  e1822006      orr	r2, r2, r6
0x3ffe168c:  e2444001      sub	r4, r4, #1	; 0x1
0x3ffe1690:  e5832030      str	r2, [r3, #48]
0x3ffe1694:  0a000027      beq	0x3ffe1738

----------------
IN: 
0x3ffe1698:  e59f5bac      ldr	r5, [pc, #2988]	; 0x3ffe224c
0x3ffe169c:  e59f7bac      ldr	r7, [pc, #2988]	; 0x3ffe2250
0x3ffe16a0:  e59f8bac      ldr	r8, [pc, #2988]	; 0x3ffe2254
0x3ffe16a4:  e08f5005      add	r5, pc, r5
0x3ffe16a8:  e2855e5f      add	r5, r5, #1520	; 0x5f0
0x3ffe16ac:  e08f7007      add	r7, pc, r7
0x3ffe16b0:  e08f8008      add	r8, pc, r8
0x3ffe16b4:  ea000001      b	0x3ffe16c0

----------------
IN: 
0x3ffe16c0:  e59a3200      ldr	r3, [sl, #512]
0x3ffe16c4:  e7939104      ldr	r9, [r3, r4, lsl #2]
0x3ffe16c8:  e599301c      ldr	r3, [r9, #28]
0x3ffe16cc:  e5933004      ldr	r3, [r3, #4]
0x3ffe16d0:  e3530000      cmp	r3, #0	; 0x0
0x3ffe16d4:  13a02001      movne	r2, #1	; 0x1
0x3ffe16d8:  1a000054      bne	0x3ffe1830

----------------
IN: 
0x3ffe1830:  e5832008      str	r2, [r3, #8]
0x3ffe1834:  e5933004      ldr	r3, [r3, #4]
0x3ffe1838:  e3530000      cmp	r3, #0	; 0x0
0x3ffe183c:  0affffa6      beq	0x3ffe16dc

----------------
IN: 
0x3ffe16dc:  e5d9319a      ldrb	r3, [r9, #410]
0x3ffe16e0:  e1590005      cmp	r9, r5
0x3ffe16e4:  e3c33010      bic	r3, r3, #16	; 0x10
0x3ffe16e8:  e5c9319a      strb	r3, [r9, #410]
0x3ffe16ec:  0a000006      beq	0x3ffe170c

----------------
IN: 
0x3ffe170c:  e5993240      ldr	r3, [r9, #576]
0x3ffe1710:  e3530000      cmp	r3, #0	; 0x0
0x3ffe1714:  0affffe7      beq	0x3ffe16b8

----------------
IN: 
0x3ffe16b8:  e2544001      subs	r4, r4, #1	; 0x1
0x3ffe16bc:  3a00001d      bcc	0x3ffe1738

----------------
IN: 
0x3ffe16f0:  e5972030      ldr	r2, [r7, #48]
0x3ffe16f4:  e1a03006      mov	r3, r6
0x3ffe16f8:  e2522000      subs	r2, r2, #0	; 0x0
0x3ffe16fc:  13a02001      movne	r2, #1	; 0x1
0x3ffe1700:  e1a00009      mov	r0, r9
0x3ffe1704:  e59911d8      ldr	r1, [r9, #472]
0x3ffe1708:  ebffc61c      bl	0x3ffd2f80

----------------
IN: 
0x3ffd2f80:  e92d4ff0      push	{r4, r5, r6, r7, r8, r9, sl, fp, lr}
0x3ffd2f84:  e28db020      add	fp, sp, #32	; 0x20
0x3ffd2f88:  e24dd084      sub	sp, sp, #132	; 0x84
0x3ffd2f8c:  e1a04002      mov	r4, r2
0x3ffd2f90:  e1a0e003      mov	lr, r3
0x3ffd2f94:  e50b306c      str	r3, [fp, #-108]
0x3ffd2f98:  e2023001      and	r3, r2, #1	; 0x1
0x3ffd2f9c:  e2122302      ands	r2, r2, #134217728	; 0x8000000
0x3ffd2fa0:  e50b3068      str	r3, [fp, #-104]
0x3ffd2fa4:  13a03000      movne	r3, #0	; 0x0
0x3ffd2fa8:  e59f6fd4      ldr	r6, [pc, #4052]	; 0x3ffd3f84
0x3ffd2fac:  e1a09000      mov	r9, r0
0x3ffd2fb0:  e08f6006      add	r6, pc, r6
0x3ffd2fb4:  e50b105c      str	r1, [fp, #-92]
0x3ffd2fb8:  150b3078      strne	r3, [fp, #-120]
0x3ffd2fbc:  1a000018      bne	0x3ffd3024

----------------
IN: 
0x3ffd2fc0:  e59f3fc0      ldr	r3, [pc, #4032]	; 0x3ffd3f88
0x3ffd2fc4:  e08f3003      add	r3, pc, r3
0x3ffd2fc8:  e59301e8      ldr	r0, [r3, #488]
0x3ffd2fcc:  e59331e4      ldr	r3, [r3, #484]
0x3ffd2fd0:  e3500000      cmp	r0, #0	; 0x0
0x3ffd2fd4:  0a000669      beq	0x3ffd4980

----------------
IN: 
0x3ffd4980:  e50b0078      str	r0, [fp, #-120]
0x3ffd4984:  eafff9a6      b	0x3ffd3024

----------------
IN: 
0x3ffd3024:  e5d93198      ldrb	r3, [r9, #408]
0x3ffd3028:  e3130004      tst	r3, #4	; 0x4
0x3ffd302c:  1a00017b      bne	0x3ffd3620

----------------
IN: 
0x3ffd3030:  e51b306c      ldr	r3, [fp, #-108]
0x3ffd3034:  e3530000      cmp	r3, #0	; 0x0
0x3ffd3038:  0a00017a      beq	0x3ffd3628

----------------
IN: 
0x3ffd3628:  e5993080      ldr	r3, [r9, #128]
0x3ffd362c:  e3530000      cmp	r3, #0	; 0x0
0x3ffd3630:  e51b3068      ldr	r3, [fp, #-104]
0x3ffd3634:  13a03000      movne	r3, #0	; 0x0
0x3ffd3638:  e50b3068      str	r3, [fp, #-104]
0x3ffd363c:  eafffe7e      b	0x3ffd303c

----------------
IN: 
0x3ffd303c:  e59f3f48      ldr	r3, [pc, #3912]	; 0x3ffd3f8c
0x3ffd3040:  e08f3003      add	r3, pc, r3
0x3ffd3044:  e5933000      ldr	r3, [r3]
0x3ffd3048:  e3130020      tst	r3, #32	; 0x20
0x3ffd304c:  1a000874      bne	0x3ffd5224

----------------
IN: 
0x3ffd3050:  e5993078      ldr	r3, [r9, #120]
0x3ffd3054:  e3530000      cmp	r3, #0	; 0x0
0x3ffd3058:  e50b307c      str	r3, [fp, #-124]
0x3ffd305c:  1a000884      bne	0x3ffd5274

----------------
IN: 
0x3ffd3060:  e599207c      ldr	r2, [r9, #124]
0x3ffd3064:  e51b3068      ldr	r3, [fp, #-104]
0x3ffd3068:  e3520000      cmp	r2, #0	; 0x0
0x3ffd306c:  03a03000      moveq	r3, #0	; 0x0
0x3ffd3070:  12033001      andne	r3, r3, #1	; 0x1
0x3ffd3074:  e3530000      cmp	r3, #0	; 0x0
0x3ffd3078:  1a000170      bne	0x3ffd3640

----------------
IN: 
0x3ffd3640:  e5d9319a      ldrb	r3, [r9, #410]
0x3ffd3644:  e3130020      tst	r3, #32	; 0x20
0x3ffd3648:  e599302c      ldr	r3, [r9, #44]
0x3ffd364c:  15992000      ldrne	r2, [r9]
0x3ffd3650:  e5933004      ldr	r3, [r3, #4]
0x3ffd3654:  10833002      addne	r3, r3, r2
0x3ffd3658:  e5932004      ldr	r2, [r3, #4]
0x3ffd365c:  e3520000      cmp	r2, #0	; 0x0
0x3ffd3660:  15991000      ldrne	r1, [r9]
0x3ffd3664:  10812002      addne	r2, r1, r2
0x3ffd3668:  15892220      strne	r2, [r9, #544]
0x3ffd366c:  e51b206c      ldr	r2, [fp, #-108]
0x3ffd3670:  e5839004      str	r9, [r3, #4]
0x3ffd3674:  e3520000      cmp	r2, #0	; 0x0
0x3ffd3678:  0a0004ae      beq	0x3ffd4938

----------------
IN: 
0x3ffd4938:  e51f2910      ldr	r2, [pc, #-2320]	; 0x3ffd4030
0x3ffd493c:  e7962002      ldr	r2, [r6, r2]
0x3ffd4940:  e5832008      str	r2, [r3, #8]
0x3ffd4944:  eafff9cc      b	0x3ffd307c

----------------
IN: 
0x3ffd307c:  e24b3044      sub	r3, fp, #68	; 0x44
0x3ffd3080:  e3a02020      mov	r2, #32	; 0x20
0x3ffd3084:  e3a01000      mov	r1, #0	; 0x0
0x3ffd3088:  e1a00003      mov	r0, r3
0x3ffd308c:  e50b3074      str	r3, [fp, #-116]
0x3ffd3090:  eb004c12      bl	0x3ffe60e0

----------------
IN: 
0x3ffd3094:  e5992064      ldr	r2, [r9, #100]
0x3ffd3098:  e5997000      ldr	r7, [r9]
0x3ffd309c:  e3520000      cmp	r2, #0	; 0x0
0x3ffd30a0:  0a000614      beq	0x3ffd48f8

----------------
IN: 
0x3ffd30a4:  e5923004      ldr	r3, [r2, #4]
0x3ffd30a8:  e5d9219a      ldrb	r2, [r9, #410]
0x3ffd30ac:  e59910c0      ldr	r1, [r9, #192]
0x3ffd30b0:  e3120020      tst	r2, #32	; 0x20
0x3ffd30b4:  e5992068      ldr	r2, [r9, #104]
0x3ffd30b8:  10833007      addne	r3, r3, r7
0x3ffd30bc:  e592e004      ldr	lr, [r2, #4]
0x3ffd30c0:  e3510000      cmp	r1, #0	; 0x0
0x3ffd30c4:  e08e2003      add	r2, lr, r3
0x3ffd30c8:  15911004      ldrne	r1, [r1, #4]
0x3ffd30cc:  150b103c      strne	r1, [fp, #-60]
0x3ffd30d0:  e5991070      ldr	r1, [r9, #112]
0x3ffd30d4:  e3510000      cmp	r1, #0	; 0x0
0x3ffd30d8:  0a000002      beq	0x3ffd30e8

----------------
IN: 
0x3ffd30dc:  e5911004      ldr	r1, [r1, #4]
0x3ffd30e0:  e3510011      cmp	r1, #17	; 0x11
0x3ffd30e4:  0a0007d0      beq	0x3ffd502c

----------------
IN: 
0x3ffd502c:  e5d9119a      ldrb	r1, [r9, #410]
0x3ffd5030:  e5990028      ldr	r0, [r9, #40]
0x3ffd5034:  e3110020      tst	r1, #32	; 0x20
0x3ffd5038:  e599107c      ldr	r1, [r9, #124]
0x3ffd503c:  e5900004      ldr	r0, [r0, #4]
0x3ffd5040:  e5911004      ldr	r1, [r1, #4]
0x3ffd5044:  10811007      addne	r1, r1, r7
0x3ffd5048:  e080c001      add	ip, r0, r1
0x3ffd504c:  e15c0002      cmp	ip, r2
0x3ffd5050:  e51bc068      ldr	ip, [fp, #-104]
0x3ffd5054:  004ee000      subeq	lr, lr, r0
0x3ffd5058:  008e2003      addeq	r2, lr, r3
0x3ffd505c:  e35c0000      cmp	ip, #0	; 0x0
0x3ffd5060:  1a000002      bne	0x3ffd5070

----------------
IN: 
0x3ffd5070:  e51b2068      ldr	r2, [fp, #-104]
0x3ffd5074:  e50b1034      str	r1, [fp, #-52]
0x3ffd5078:  e50b0030      str	r0, [fp, #-48]
0x3ffd507c:  e50b2028      str	r2, [fp, #-40]
0x3ffd5080:  eafff818      b	0x3ffd30e8

----------------
IN: 
0x3ffd30e8:  e2042402      and	r2, r4, #33554432	; 0x2000000
0x3ffd30ec:  e50b2064      str	r2, [fp, #-100]
0x3ffd30f0:  e51b2074      ldr	r2, [fp, #-116]
0x3ffd30f4:  e59f1e94      ldr	r1, [pc, #3732]	; 0x3ffd3f90
0x3ffd30f8:  e50b2060      str	r2, [fp, #-96]
0x3ffd30fc:  e3a02000      mov	r2, #0	; 0x0
0x3ffd3100:  e59f0e8c      ldr	r0, [pc, #3724]	; 0x3ffd3f94
0x3ffd3104:  e08f1001      add	r1, pc, r1
0x3ffd3108:  e08f0000      add	r0, pc, r0
0x3ffd310c:  e50b1088      str	r1, [fp, #-136]
0x3ffd3110:  e2811e5f      add	r1, r1, #1520	; 0x5f0
0x3ffd3114:  e24bc034      sub	ip, fp, #52	; 0x34
0x3ffd3118:  e50b1080      str	r1, [fp, #-128]
0x3ffd311c:  e2801e5f      add	r1, r0, #1520	; 0x5f0
0x3ffd3120:  e50b008c      str	r0, [fp, #-140]
0x3ffd3124:  e50bc070      str	ip, [fp, #-112]
0x3ffd3128:  e50b1084      str	r1, [fp, #-132]
0x3ffd312c:  e3520000      cmp	r2, #0	; 0x0
0x3ffd3130:  e51b2060      ldr	r2, [fp, #-96]
0x3ffd3134:  e08e8003      add	r8, lr, r3
0x3ffd3138:  e1a05003      mov	r5, r3
0x3ffd313c:  e5924008      ldr	r4, [r2, #8]
0x3ffd3140:  e50b8050      str	r8, [fp, #-80]
0x3ffd3144:  0a00025f      beq	0x3ffd3ac8

----------------
IN: 
0x3ffd3ac8:  e5d9219a      ldrb	r2, [r9, #410]
0x3ffd3acc:  e0834184      add	r4, r3, r4, lsl #3
0x3ffd3ad0:  e3120020      tst	r2, #32	; 0x20
0x3ffd3ad4:  e5992038      ldr	r2, [r9, #56]
0x3ffd3ad8:  e5922004      ldr	r2, [r2, #4]
0x3ffd3adc:  e50b2054      str	r2, [fp, #-84]
0x3ffd3ae0:  10822007      addne	r2, r2, r7
0x3ffd3ae4:  150b2054      strne	r2, [fp, #-84]
0x3ffd3ae8:  e59f24ec      ldr	r2, [pc, #1260]	; 0x3ffd3fdc
0x3ffd3aec:  e08f2002      add	r2, pc, r2
0x3ffd3af0:  e2822e5f      add	r2, r2, #1520	; 0x5f0
0x3ffd3af4:  e3570000      cmp	r7, #0	; 0x0
0x3ffd3af8:  11590002      cmpne	r9, r2
0x3ffd3afc:  1a0003c6      bne	0x3ffd4a1c

----------------
IN: 
0x3ffd4a1c:  e1530004      cmp	r3, r4
0x3ffd4a20:  2afffc36      bcs	0x3ffd3b00

----------------
IN: 
0x3ffd4a24:  e4952008      ldr	r2, [r5], #8
0x3ffd4a28:  e7973002      ldr	r3, [r7, r2]
0x3ffd4a2c:  e1540005      cmp	r4, r5
0x3ffd4a30:  e0833007      add	r3, r3, r7
0x3ffd4a34:  e7873002      str	r3, [r7, r2]
0x3ffd4a38:  8afffff9      bhi	0x3ffd4a24

----------------
IN: 
0x3ffd4a3c:  e59930e8      ldr	r3, [r9, #232]
0x3ffd4a40:  e3530000      cmp	r3, #0	; 0x0
0x3ffd4a44:  1afffc30      bne	0x3ffd3b0c

----------------
IN: 
0x3ffd3b0c:  e5932004      ldr	r2, [r3, #4]
0x3ffd3b10:  e5d9319a      ldrb	r3, [r9, #410]
0x3ffd3b14:  e50b2058      str	r2, [fp, #-88]
0x3ffd3b18:  e3130020      tst	r3, #32	; 0x20
0x3ffd3b1c:  15993000      ldrne	r3, [r9]
0x3ffd3b20:  10823003      addne	r3, r2, r3
0x3ffd3b24:  150b3058      strne	r3, [fp, #-88]
0x3ffd3b28:  e51b3050      ldr	r3, [fp, #-80]
0x3ffd3b2c:  e1530004      cmp	r3, r4
0x3ffd3b30:  9afffddf      bls	0x3ffd32b4

----------------
IN: 
0x3ffd3b34:  e8940404      ldm	r4, {r2, sl}
0x3ffd3b38:  e51b1058      ldr	r1, [fp, #-88]
0x3ffd3b3c:  e1a0542a      lsr	r5, sl, #8
0x3ffd3b40:  e1a03085      lsl	r3, r5, #1
0x3ffd3b44:  e19130b3      ldrh	r3, [r1, r3]
0x3ffd3b48:  e51b1054      ldr	r1, [fp, #-84]
0x3ffd3b4c:  e5996174      ldr	r6, [r9, #372]
0x3ffd3b50:  e20aa0ff      and	sl, sl, #255	; 0xff
0x3ffd3b54:  e1a03883      lsl	r3, r3, #17
0x3ffd3b58:  e0815205      add	r5, r1, r5, lsl #4
0x3ffd3b5c:  e1a038a3      lsr	r3, r3, #17
0x3ffd3b60:  e35a0017      cmp	sl, #23	; 0x17
0x3ffd3b64:  e50b504c      str	r5, [fp, #-76]
0x3ffd3b68:  e50b5048      str	r5, [fp, #-72]
0x3ffd3b6c:  e0866203      add	r6, r6, r3, lsl #4
0x3ffd3b70:  e0878002      add	r8, r7, r2
0x3ffd3b74:  0a000177      beq	0x3ffd4158

----------------
IN: 
0x3ffd3b78:  e35a0000      cmp	sl, #0	; 0x0
0x3ffd3b7c:  0a00005b      beq	0x3ffd3cf0

----------------
IN: 
0x3ffd3b80:  e5d5100c      ldrb	r1, [r5, #12]
0x3ffd3b84:  e1b03221      lsrs	r3, r1, #4
0x3ffd3b88:  0a0000a2      beq	0x3ffd3e18

----------------
IN: 
0x3ffd3b8c:  e5d5300d      ldrb	r3, [r5, #13]
0x3ffd3b90:  e2033003      and	r3, r3, #3	; 0x3
0x3ffd3b94:  e2433001      sub	r3, r3, #1	; 0x1
0x3ffd3b98:  e3530001      cmp	r3, #1	; 0x1
0x3ffd3b9c:  9a00009d      bls	0x3ffd3e18

----------------
IN: 
0x3ffd3ba0:  e24a3015      sub	r3, sl, #21	; 0x15
0x3ffd3ba4:  e16f3f13      clz	r3, r3
0x3ffd3ba8:  e24a1014      sub	r1, sl, #20	; 0x14
0x3ffd3bac:  e16f1f11      clz	r1, r1
0x3ffd3bb0:  e5992228      ldr	r2, [r9, #552]
0x3ffd3bb4:  e1a032a3      lsr	r3, r3, #5
0x3ffd3bb8:  e1a012a1      lsr	r1, r1, #5
0x3ffd3bbc:  e1550002      cmp	r5, r2
0x3ffd3bc0:  e1a03103      lsl	r3, r3, #2
0x3ffd3bc4:  e24a200d      sub	r2, sl, #13	; 0xd
0x3ffd3bc8:  e1833081      orr	r3, r3, r1, lsl #1
0x3ffd3bcc:  0a000337      beq	0x3ffd48b0

----------------
IN: 
0x3ffd3bd0:  e3520009      cmp	r2, #9	; 0x9
0x3ffd3bd4:  8a000003      bhi	0x3ffd3be8

----------------
IN: 
0x3ffd3be8:  e3560000      cmp	r6, #0	; 0x0
0x3ffd3bec:  01a01006      moveq	r1, r6
0x3ffd3bf0:  e589322c      str	r3, [r9, #556]
0x3ffd3bf4:  e5895228      str	r5, [r9, #552]
0x3ffd3bf8:  0a000003      beq	0x3ffd3c0c

----------------
IN: 
0x3ffd3bfc:  e5962004      ldr	r2, [r6, #4]
0x3ffd3c00:  e3520000      cmp	r2, #0	; 0x0
0x3ffd3c04:  11a01006      movne	r1, r6
0x3ffd3c08:  03a01000      moveq	r1, #0	; 0x0
0x3ffd3c0c:  e5d9019a      ldrb	r0, [r9, #410]
0x3ffd3c10:  e5992034      ldr	r2, [r9, #52]
0x3ffd3c14:  e2100020      ands	r0, r0, #32	; 0x20
0x3ffd3c18:  e592c004      ldr	ip, [r2, #4]
0x3ffd3c1c:  15990000      ldrne	r0, [r9]
0x3ffd3c20:  e5952000      ldr	r2, [r5]
0x3ffd3c24:  e88d000a      stm	sp, {r1, r3}
0x3ffd3c28:  e3a03000      mov	r3, #0	; 0x0
0x3ffd3c2c:  e58d300c      str	r3, [sp, #12]
0x3ffd3c30:  e3a03009      mov	r3, #9	; 0x9
0x3ffd3c34:  e082200c      add	r2, r2, ip
0x3ffd3c38:  e0820000      add	r0, r2, r0
0x3ffd3c3c:  e58d3008      str	r3, [sp, #8]
0x3ffd3c40:  e24b2048      sub	r2, fp, #72	; 0x48
0x3ffd3c44:  e1a01009      mov	r1, r9
0x3ffd3c48:  e51b305c      ldr	r3, [fp, #-92]
0x3ffd3c4c:  ebffea09      bl	0x3ffce478

----------------
IN: 
0x3ffce478:  e92d4ff0      push	{r4, r5, r6, r7, r8, r9, sl, fp, lr}
0x3ffce47c:  e1a0b000      mov	fp, r0
0x3ffce480:  e1a0a001      mov	sl, r1
0x3ffce484:  e1a09002      mov	r9, r2
0x3ffce488:  e59fcf9c      ldr	ip, [pc, #3996]	; 0x3ffcf42c
0x3ffce48c:  e24dd07c      sub	sp, sp, #124	; 0x7c
0x3ffce490:  e08fc00c      add	ip, pc, ip
0x3ffce494:  e28ccd16      add	ip, ip, #1408	; 0x580
0x3ffce498:  e28cc004      add	ip, ip, #4	; 0x4
0x3ffce49c:  e58dc02c      str	ip, [sp, #44]
0x3ffce4a0:  e59fcf88      ldr	ip, [pc, #3976]	; 0x3ffcf430
0x3ffce4a4:  e58d3020      str	r3, [sp, #32]
0x3ffce4a8:  e08fc00c      add	ip, pc, ip
0x3ffce4ac:  e59f3f80      ldr	r3, [pc, #3968]	; 0x3ffcf434
0x3ffce4b0:  e28ccd16      add	ip, ip, #1408	; 0x580
0x3ffce4b4:  e28cc004      add	ip, ip, #4	; 0x4
0x3ffce4b8:  e08f3003      add	r3, pc, r3
0x3ffce4bc:  e59d60ac      ldr	r6, [sp, #172]
0x3ffce4c0:  e58dc030      str	ip, [sp, #48]
0x3ffce4c4:  e58d3024      str	r3, [sp, #36]
0x3ffce4c8:  e5db3000      ldrb	r3, [fp]
0x3ffce4cc:  e3530000      cmp	r3, #0	; 0x0
0x3ffce4d0:  0a00009c      beq	0x3ffce748

----------------
IN: 
0x3ffce4d4:  e1a0200b      mov	r2, fp
0x3ffce4d8:  e59f4f58      ldr	r4, [pc, #3928]	; 0x3ffcf438
0x3ffce4dc:  e0844284      add	r4, r4, r4, lsl #5
0x3ffce4e0:  e0834004      add	r4, r3, r4
0x3ffce4e4:  e5f23001      ldrb	r3, [r2, #1]!
0x3ffce4e8:  e3530000      cmp	r3, #0	; 0x0
0x3ffce4ec:  1afffffa      bne	0x3ffce4dc

----------------
IN: 
0x3ffce4dc:  e0844284      add	r4, r4, r4, lsl #5
0x3ffce4e0:  e0834004      add	r4, r3, r4
0x3ffce4e4:  e5f23001      ldrb	r3, [r2, #1]!
0x3ffce4e8:  e3530000      cmp	r3, #0	; 0x0
0x3ffce4ec:  1afffffa      bne	0x3ffce4dc

----------------
IN: 
0x3ffce4f0:  e3e02000      mvn	r2, #0	; 0x0
0x3ffce4f4:  e59d30a0      ldr	r3, [sp, #160]
0x3ffce4f8:  e58d2054      str	r2, [sp, #84]
0x3ffce4fc:  e3530000      cmp	r3, #0	; 0x0
0x3ffce500:  e3a03000      mov	r3, #0	; 0x0
0x3ffce504:  e59d2024      ldr	r2, [sp, #36]
0x3ffce508:  e58d305c      str	r3, [sp, #92]
0x3ffce50c:  e58d3060      str	r3, [sp, #96]
0x3ffce510:  e59235e0      ldr	r3, [r2, #1504]
0x3ffce514:  e2833001      add	r3, r3, #1	; 0x1
0x3ffce518:  e58235e0      str	r3, [r2, #1504]
0x3ffce51c:  0a000002      beq	0x3ffce52c

----------------
IN: 
0x3ffce520:  e59d30a8      ldr	r3, [sp, #168]
0x3ffce524:  e3130002      tst	r3, #2	; 0x2
0x3ffce528:  1a00045f      bne	0x3ffcf6ac

----------------
IN: 
0x3ffce52c:  e59d3020      ldr	r3, [sp, #32]
0x3ffce530:  e3560000      cmp	r6, #0	; 0x0
0x3ffce534:  e5933000      ldr	r3, [r3]
0x3ffce538:  1a000084      bne	0x3ffce750

----------------
IN: 
0x3ffce53c:  e3530000      cmp	r3, #0	; 0x0
0x3ffce540:  0a00008d      beq	0x3ffce77c

----------------
IN: 
0x3ffce544:  e58d6028      str	r6, [sp, #40]
0x3ffce548:  e28d705c      add	r7, sp, #92	; 0x5c
0x3ffce54c:  e1a02007      mov	r2, r7
0x3ffce550:  e28d8054      add	r8, sp, #84	; 0x54
0x3ffce554:  e1a07008      mov	r7, r8
0x3ffce558:  e59d0028      ldr	r0, [sp, #40]
0x3ffce55c:  e1a08002      mov	r8, r2
0x3ffce560:  e59d5020      ldr	r5, [sp, #32]
0x3ffce564:  ea000002      b	0x3ffce574

----------------
IN: 
0x3ffce574:  e58d3004      str	r3, [sp, #4]
0x3ffce578:  e59d30a4      ldr	r3, [sp, #164]
0x3ffce57c:  e58d0008      str	r0, [sp, #8]
0x3ffce580:  e58d3018      str	r3, [sp, #24]
0x3ffce584:  e59d30a8      ldr	r3, [sp, #168]
0x3ffce588:  e58da01c      str	sl, [sp, #28]
0x3ffce58c:  e58d3010      str	r3, [sp, #16]
0x3ffce590:  e59d30a0      ldr	r3, [sp, #160]
0x3ffce594:  e58d6014      str	r6, [sp, #20]
0x3ffce598:  e58d300c      str	r3, [sp, #12]
0x3ffce59c:  e58d8000      str	r8, [sp]
0x3ffce5a0:  e1a02007      mov	r2, r7
0x3ffce5a4:  e1a01004      mov	r1, r4
0x3ffce5a8:  e1a0000b      mov	r0, fp
0x3ffce5ac:  e5993000      ldr	r3, [r9]
0x3ffce5b0:  ebfffc80      bl	0x3ffcd7b8

----------------
IN: 
0x3ffcd7b8:  e92d4ff0      push	{r4, r5, r6, r7, r8, r9, sl, fp, lr}
0x3ffcd7bc:  e24dd064      sub	sp, sp, #100	; 0x64
0x3ffcd7c0:  e59dc08c      ldr	ip, [sp, #140]
0x3ffcd7c4:  e59d5090      ldr	r5, [sp, #144]
0x3ffcd7c8:  e59c7004      ldr	r7, [ip, #4]
0x3ffcd7cc:  e59d90a0      ldr	r9, [sp, #160]
0x3ffcd7d0:  e58d003c      str	r0, [sp, #60]
0x3ffcd7d4:  e58d2044      str	r2, [sp, #68]
0x3ffcd7d8:  e58d3040      str	r3, [sp, #64]
0x3ffcd7dc:  e59c6000      ldr	r6, [ip]
0x3ffcd7e0:  e2453107      sub	r3, r5, #-1073741823	; 0xc0000001
0x3ffcd7e4:  e0866103      add	r6, r6, r3, lsl #2
0x3ffcd7e8:  e59f3c08      ldr	r3, [pc, #3080]	; 0x3ffce3f8
0x3ffcd7ec:  e59fac08      ldr	sl, [pc, #3080]	; 0x3ffce3fc
0x3ffcd7f0:  e08f3003      add	r3, pc, r3
0x3ffcd7f4:  e08fa00a      add	sl, pc, sl
0x3ffcd7f8:  e58d3048      str	r3, [sp, #72]
0x3ffcd7fc:  e1a032a1      lsr	r3, r1, #5
0x3ffcd800:  e1a0b00a      mov	fp, sl
0x3ffcd804:  e58d3030      str	r3, [sp, #48]
0x3ffcd808:  e1a0a007      mov	sl, r7
0x3ffcd80c:  e58d102c      str	r1, [sp, #44]
0x3ffcd810:  ea000022      b	0x3ffcd8a0

----------------
IN: 
0x3ffcd8a0:  e5b63004      ldr	r3, [r6, #4]!
0x3ffcd8a4:  e5934014      ldr	r4, [r3, #20]
0x3ffcd8a8:  e59d309c      ldr	r3, [sp, #156]
0x3ffcd8ac:  e1540003      cmp	r4, r3
0x3ffcd8b0:  0afffff7      beq	0x3ffcd894

----------------
IN: 
0x3ffcd8b4:  e2193002      ands	r3, r9, #2	; 0x2
0x3ffcd8b8:  e58d3024      str	r3, [sp, #36]
0x3ffcd8bc:  0a000002      beq	0x3ffcd8cc

----------------
IN: 
0x3ffcd8cc:  e5d4319a      ldrb	r3, [r4, #410]
0x3ffcd8d0:  e3130002      tst	r3, #2	; 0x2
0x3ffcd8d4:  1affffee      bne	0x3ffcd894

----------------
IN: 
0x3ffcd8d8:  e59b3000      ldr	r3, [fp]
0x3ffcd8dc:  e3130008      tst	r3, #8	; 0x8
0x3ffcd8e0:  0affffcb      beq	0x3ffcd814

----------------
IN: 
0x3ffcd814:  e594117c      ldr	r1, [r4, #380]
0x3ffcd818:  e3510000      cmp	r1, #0	; 0x0
0x3ffcd81c:  0a00001c      beq	0x3ffcd894

----------------
IN: 
0x3ffcd820:  e3a02000      mov	r2, #0	; 0x0
0x3ffcd824:  e5d4319a      ldrb	r3, [r4, #410]
0x3ffcd828:  e5940038      ldr	r0, [r4, #56]
0x3ffcd82c:  e58d2058      str	r2, [sp, #88]
0x3ffcd830:  e58d205c      str	r2, [sp, #92]
0x3ffcd834:  e5942034      ldr	r2, [r4, #52]
0x3ffcd838:  e2133020      ands	r3, r3, #32	; 0x20
0x3ffcd83c:  15943000      ldrne	r3, [r4]
0x3ffcd840:  e5922004      ldr	r2, [r2, #4]
0x3ffcd844:  e5908004      ldr	r8, [r0, #4]
0x3ffcd848:  10888003      addne	r8, r8, r3
0x3ffcd84c:  e0833002      add	r3, r3, r2
0x3ffcd850:  e5942188      ldr	r2, [r4, #392]
0x3ffcd854:  e58d3028      str	r3, [sp, #40]
0x3ffcd858:  e3520000      cmp	r2, #0	; 0x0
0x3ffcd85c:  0a000032      beq	0x3ffcd92c

----------------
IN: 
0x3ffcd860:  e59d0030      ldr	r0, [sp, #48]
0x3ffcd864:  e5943180      ldr	r3, [r4, #384]
0x3ffcd868:  e0033000      and	r3, r3, r0
0x3ffcd86c:  e7920103      ldr	r0, [r2, r3, lsl #2]
0x3ffcd870:  e59d302c      ldr	r3, [sp, #44]
0x3ffcd874:  e5942184      ldr	r2, [r4, #388]
0x3ffcd878:  e1a02233      lsr	r2, r3, r2
0x3ffcd87c:  e203301f      and	r3, r3, #31	; 0x1f
0x3ffcd880:  e202201f      and	r2, r2, #31	; 0x1f
0x3ffcd884:  e1a03330      lsr	r3, r0, r3
0x3ffcd888:  e0033230      and	r3, r3, r0, lsr r2
0x3ffcd88c:  e3130001      tst	r3, #1	; 0x1
0x3ffcd890:  1a00006f      bne	0x3ffcda54

----------------
IN: 
0x3ffcd894:  e2855001      add	r5, r5, #1	; 0x1
0x3ffcd898:  e15a0005      cmp	sl, r5
0x3ffcd89c:  9a0000c5      bls	0x3ffcdbb8

----------------
IN: 
0x3ffcda54:  e59d002c      ldr	r0, [sp, #44]
0x3ffcda58:  eb0063b1      bl	0x3ffe6924

----------------
IN: 
0x3ffe6924:  e3510000      cmp	r1, #0	; 0x0
0x3ffe6928:  0afffffa      beq	0x3ffe6918

----------------
IN: 
0x3ffe692c:  e92d4003      push	{r0, r1, lr}
0x3ffe6930:  ebffff80      bl	0x3ffe6738

----------------
IN: 
0x3ffe6754:  e16f3f10      clz	r3, r0
0x3ffe6758:  e16f2f11      clz	r2, r1
0x3ffe675c:  e0423003      sub	r3, r2, r3
0x3ffe6760:  e273301f      rsbs	r3, r3, #31	; 0x1f
0x3ffe6764:  10833083      addne	r3, r3, r3, lsl #1
0x3ffe6768:  e3a02000      mov	r2, #0	; 0x0
0x3ffe676c:  108ff103      addne	pc, pc, r3, lsl #2

----------------
IN: 
0x3ffe67ec:  e1500a81      cmp	r0, r1, lsl #21
0x3ffe67f0:  e0a22002      adc	r2, r2, r2
0x3ffe67f4:  20400a81      subcs	r0, r0, r1, lsl #21
0x3ffe67f8:  e1500a01      cmp	r0, r1, lsl #20
0x3ffe67fc:  e0a22002      adc	r2, r2, r2
0x3ffe6800:  20400a01      subcs	r0, r0, r1, lsl #20
0x3ffe6804:  e1500981      cmp	r0, r1, lsl #19
0x3ffe6808:  e0a22002      adc	r2, r2, r2
0x3ffe680c:  20400981      subcs	r0, r0, r1, lsl #19
0x3ffe6810:  e1500901      cmp	r0, r1, lsl #18
0x3ffe6814:  e0a22002      adc	r2, r2, r2
0x3ffe6818:  20400901      subcs	r0, r0, r1, lsl #18
0x3ffe681c:  e1500881      cmp	r0, r1, lsl #17
0x3ffe6820:  e0a22002      adc	r2, r2, r2
0x3ffe6824:  20400881      subcs	r0, r0, r1, lsl #17
0x3ffe6828:  e1500801      cmp	r0, r1, lsl #16
0x3ffe682c:  e0a22002      adc	r2, r2, r2
0x3ffe6830:  20400801      subcs	r0, r0, r1, lsl #16
0x3ffe6834:  e1500781      cmp	r0, r1, lsl #15
0x3ffe6838:  e0a22002      adc	r2, r2, r2
0x3ffe683c:  20400781      subcs	r0, r0, r1, lsl #15
0x3ffe6840:  e1500701      cmp	r0, r1, lsl #14
0x3ffe6844:  e0a22002      adc	r2, r2, r2
0x3ffe6848:  20400701      subcs	r0, r0, r1, lsl #14
0x3ffe684c:  e1500681      cmp	r0, r1, lsl #13
0x3ffe6850:  e0a22002      adc	r2, r2, r2
0x3ffe6854:  20400681      subcs	r0, r0, r1, lsl #13
0x3ffe6858:  e1500601      cmp	r0, r1, lsl #12
0x3ffe685c:  e0a22002      adc	r2, r2, r2
0x3ffe6860:  20400601      subcs	r0, r0, r1, lsl #12
0x3ffe6864:  e1500581      cmp	r0, r1, lsl #11
0x3ffe6868:  e0a22002      adc	r2, r2, r2
0x3ffe686c:  20400581      subcs	r0, r0, r1, lsl #11
0x3ffe6870:  e1500501      cmp	r0, r1, lsl #10
0x3ffe6874:  e0a22002      adc	r2, r2, r2
0x3ffe6878:  20400501      subcs	r0, r0, r1, lsl #10
0x3ffe687c:  e1500481      cmp	r0, r1, lsl #9
0x3ffe6880:  e0a22002      adc	r2, r2, r2
0x3ffe6884:  20400481      subcs	r0, r0, r1, lsl #9
0x3ffe6888:  e1500401      cmp	r0, r1, lsl #8
0x3ffe688c:  e0a22002      adc	r2, r2, r2
0x3ffe6890:  20400401      subcs	r0, r0, r1, lsl #8
0x3ffe6894:  e1500381      cmp	r0, r1, lsl #7
0x3ffe6898:  e0a22002      adc	r2, r2, r2
0x3ffe689c:  20400381      subcs	r0, r0, r1, lsl #7
0x3ffe68a0:  e1500301      cmp	r0, r1, lsl #6
0x3ffe68a4:  e0a22002      adc	r2, r2, r2
0x3ffe68a8:  20400301      subcs	r0, r0, r1, lsl #6
0x3ffe68ac:  e1500281      cmp	r0, r1, lsl #5
0x3ffe68b0:  e0a22002      adc	r2, r2, r2
0x3ffe68b4:  20400281      subcs	r0, r0, r1, lsl #5
0x3ffe68b8:  e1500201      cmp	r0, r1, lsl #4
0x3ffe68bc:  e0a22002      adc	r2, r2, r2
0x3ffe68c0:  20400201      subcs	r0, r0, r1, lsl #4
0x3ffe68c4:  e1500181      cmp	r0, r1, lsl #3
0x3ffe68c8:  e0a22002      adc	r2, r2, r2
0x3ffe68cc:  20400181      subcs	r0, r0, r1, lsl #3
0x3ffe68d0:  e1500101      cmp	r0, r1, lsl #2
0x3ffe68d4:  e0a22002      adc	r2, r2, r2
0x3ffe68d8:  20400101      subcs	r0, r0, r1, lsl #2
0x3ffe68dc:  e1500081      cmp	r0, r1, lsl #1
0x3ffe68e0:  e0a22002      adc	r2, r2, r2
0x3ffe68e4:  20400081      subcs	r0, r0, r1, lsl #1
0x3ffe68e8:  e1500001      cmp	r0, r1
0x3ffe68ec:  e0a22002      adc	r2, r2, r2
0x3ffe68f0:  20400001      subcs	r0, r0, r1
0x3ffe68f4:  e1a00002      mov	r0, r2
0x3ffe68f8:  e12fff1e      bx	lr

----------------
IN: 
0x3ffe6934:  e8bd4006      pop	{r1, r2, lr}
0x3ffe6938:  e0030092      mul	r3, r2, r0
0x3ffe693c:  e0411003      sub	r1, r1, r3
0x3ffe6940:  e12fff1e      bx	lr

----------------
IN: 
0x3ffcda5c:  e594318c      ldr	r3, [r4, #396]
0x3ffcda60:  e7933101      ldr	r3, [r3, r1, lsl #2]
0x3ffcda64:  e3530000      cmp	r3, #0	; 0x0
0x3ffcda68:  0affff89      beq	0x3ffcd894

----------------
IN: 
0x3ffcda6c:  e5947190      ldr	r7, [r4, #400]
0x3ffcda70:  e58d604c      str	r6, [sp, #76]
0x3ffcda74:  e0877103      add	r7, r7, r3, lsl #2
0x3ffcda78:  e28d3058      add	r3, sp, #88	; 0x58
0x3ffcda7c:  e58d3034      str	r3, [sp, #52]
0x3ffcda80:  e28d305c      add	r3, sp, #92	; 0x5c
0x3ffcda84:  e58d5090      str	r5, [sp, #144]
0x3ffcda88:  e58da050      str	sl, [sp, #80]
0x3ffcda8c:  e58db054      str	fp, [sp, #84]
0x3ffcda90:  e59d6040      ldr	r6, [sp, #64]
0x3ffcda94:  e59d502c      ldr	r5, [sp, #44]
0x3ffcda98:  e59da094      ldr	sl, [sp, #148]
0x3ffcda9c:  e59db098      ldr	fp, [sp, #152]
0x3ffcdaa0:  e58d3038      str	r3, [sp, #56]
0x3ffcdaa4:  ea000001      b	0x3ffcdab0

----------------
IN: 
0x3ffcdab0:  e1a03007      mov	r3, r7
0x3ffcdab4:  e4972004      ldr	r2, [r7], #4
0x3ffcdab8:  e0221005      eor	r1, r2, r5
0x3ffcdabc:  e1b010a1      lsrs	r1, r1, #1
0x3ffcdac0:  1afffff8      bne	0x3ffcdaa8

----------------
IN: 
0x3ffcdac4:  e5942190      ldr	r2, [r4, #400]
0x3ffcdac8:  e1a01006      mov	r1, r6
0x3ffcdacc:  e0433002      sub	r3, r3, r2
0x3ffcdad0:  e59d2034      ldr	r2, [sp, #52]
0x3ffcdad4:  e1a03143      asr	r3, r3, #2
0x3ffcdad8:  e58d2018      str	r2, [sp, #24]
0x3ffcdadc:  e59d2038      ldr	r2, [sp, #56]
0x3ffcdae0:  e58d3008      str	r3, [sp, #8]
0x3ffcdae4:  e58d2014      str	r2, [sp, #20]
0x3ffcdae8:  e59d2028      ldr	r2, [sp, #40]
0x3ffcdaec:  e0883203      add	r3, r8, r3, lsl #4
0x3ffcdaf0:  e58d200c      str	r2, [sp, #12]
0x3ffcdaf4:  e58d3004      str	r3, [sp, #4]
0x3ffcdaf8:  e1a0200a      mov	r2, sl
0x3ffcdafc:  e1a0300b      mov	r3, fp
0x3ffcdb00:  e59d003c      ldr	r0, [sp, #60]
0x3ffcdb04:  e58d4010      str	r4, [sp, #16]
0x3ffcdb08:  e58d9000      str	r9, [sp]
0x3ffcdb0c:  ebfffebb      bl	0x3ffcd600

----------------
IN: 
0x3ffcd600:  e92d41f0      push	{r4, r5, r6, r7, r8, lr}
0x3ffcd604:  e59d501c      ldr	r5, [sp, #28]
0x3ffcd608:  e1a07003      mov	r7, r3
0x3ffcd60c:  e595c004      ldr	ip, [r5, #4]
0x3ffcd610:  e5d5e00c      ldrb	lr, [r5, #12]
0x3ffcd614:  e35c0000      cmp	ip, #0	; 0x0
0x3ffcd618:  e1a08001      mov	r8, r1
0x3ffcd61c:  e1a04002      mov	r4, r2
0x3ffcd620:  e59d6028      ldr	r6, [sp, #40]
0x3ffcd624:  e1d530be      ldrh	r3, [r5, #14]
0x3ffcd628:  e20ee00f      and	lr, lr, #15	; 0xf
0x3ffcd62c:  0a000041      beq	0x3ffcd738

----------------
IN: 
0x3ffcd630:  e59dc018      ldr	ip, [sp, #24]
0x3ffcd634:  e59f2168      ldr	r2, [pc, #360]	; 0x3ffcd7a4
0x3ffcd638:  e3530000      cmp	r3, #0	; 0x0
0x3ffcd63c:  13a0c000      movne	ip, #0	; 0x0
0x3ffcd640:  020cc001      andeq	ip, ip, #1	; 0x1
0x3ffcd644:  e1a02e52      asr	r2, r2, lr
0x3ffcd648:  e2022001      and	r2, r2, #1	; 0x1
0x3ffcd64c:  e19cc002      orrs	ip, ip, r2
0x3ffcd650:  1a00003c      bne	0x3ffcd748

----------------
IN: 
0x3ffcd654:  e1550008      cmp	r5, r8
0x3ffcd658:  0a000006      beq	0x3ffcd678

----------------
IN: 
0x3ffcd678:  e3540000      cmp	r4, #0	; 0x0
0x3ffcd67c:  e59631b0      ldr	r3, [r6, #432]
0x3ffcd680:  0a000013      beq	0x3ffcd6d4

----------------
IN: 
0x3ffcd684:  e3530000      cmp	r3, #0	; 0x0
0x3ffcd688:  0a000036      beq	0x3ffcd768

----------------
IN: 
0x3ffcd68c:  e59d2020      ldr	r2, [sp, #32]
0x3ffcd690:  e1a02082      lsl	r2, r2, #1
0x3ffcd694:  e19370b2      ldrh	r7, [r3, r2]
0x3ffcd698:  e5962174      ldr	r2, [r6, #372]
0x3ffcd69c:  e1a03887      lsl	r3, r7, #17
0x3ffcd6a0:  e1a038a3      lsr	r3, r3, #17
0x3ffcd6a4:  e0821203      add	r1, r2, r3, lsl #4
0x3ffcd6a8:  e5916004      ldr	r6, [r1, #4]
0x3ffcd6ac:  e5941004      ldr	r1, [r4, #4]
0x3ffcd6b0:  e1560001      cmp	r6, r1
0x3ffcd6b4:  0a000025      beq	0x3ffcd750

----------------
IN: 
0x3ffcd750:  e7920203      ldr	r0, [r2, r3, lsl #4]
0x3ffcd754:  e5941000      ldr	r1, [r4]
0x3ffcd758:  eb005f73      bl	0x3ffe552c

----------------
IN: 
0x3ffcd75c:  e3500000      cmp	r0, #0	; 0x0
0x3ffcd760:  0affffd9      beq	0x3ffcd6cc

----------------
IN: 
0x3ffcd6cc:  e1a00005      mov	r0, r5
0x3ffcd6d0:  e8bd81f0      pop	{r4, r5, r6, r7, r8, pc}

----------------
IN: 
0x3ffcdb10:  e3500000      cmp	r0, #0	; 0x0
0x3ffcdb14:  1affffb1      bne	0x3ffcd9e0

----------------
IN: 
0x3ffcd9e0:  e1a03000      mov	r3, r0
0x3ffcd9e4:  e59d604c      ldr	r6, [sp, #76]
0x3ffcd9e8:  e59d5090      ldr	r5, [sp, #144]
0x3ffcd9ec:  e59da050      ldr	sl, [sp, #80]
0x3ffcd9f0:  e59db054      ldr	fp, [sp, #84]
0x3ffcd9f4:  e59d20a4      ldr	r2, [sp, #164]
0x3ffcd9f8:  e3520000      cmp	r2, #0	; 0x0
0x3ffcd9fc:  0a000047      beq	0x3ffcdb20

----------------
IN: 
0x3ffcda00:  e5d3200d      ldrb	r2, [r3, #13]
0x3ffcda04:  e2022003      and	r2, r2, #3	; 0x3
0x3ffcda08:  e2421001      sub	r1, r2, #1	; 0x1
0x3ffcda0c:  e3510001      cmp	r1, #1	; 0x1
0x3ffcda10:  9affff9f      bls	0x3ffcd894

----------------
IN: 
0x3ffcda14:  e3520003      cmp	r2, #3	; 0x3
0x3ffcda18:  0a0000b5      beq	0x3ffcdcf4

----------------
IN: 
0x3ffcda1c:  e5d3200c      ldrb	r2, [r3, #12]
0x3ffcda20:  e1a02222      lsr	r2, r2, #4
0x3ffcda24:  e3520002      cmp	r2, #2	; 0x2
0x3ffcda28:  0a00004a      beq	0x3ffcdb58

----------------
IN: 
0x3ffcda2c:  e352000a      cmp	r2, #10	; 0xa
0x3ffcda30:  0a000063      beq	0x3ffcdbc4

----------------
IN: 
0x3ffcda34:  e3520001      cmp	r2, #1	; 0x1
0x3ffcda38:  1affff95      bne	0x3ffcd894

----------------
IN: 
0x3ffcda3c:  e59d2088      ldr	r2, [sp, #136]
0x3ffcda40:  e5823000      str	r3, [r2]
0x3ffcda44:  e5824004      str	r4, [r2, #4]
0x3ffcda48:  e3a00001      mov	r0, #1	; 0x1
0x3ffcda4c:  e28dd064      add	sp, sp, #100	; 0x64
0x3ffcda50:  e8bd8ff0      pop	{r4, r5, r6, r7, r8, r9, sl, fp, pc}

----------------
IN: 
0x3ffce5b4:  e3500000      cmp	r0, #0	; 0x0
0x3ffce5b8:  0affffea      beq	0x3ffce568

----------------
IN: 
0x3ffce5bc:  e59dc05c      ldr	ip, [sp, #92]
0x3ffce5c0:  e1a08007      mov	r8, r7
0x3ffce5c4:  e35c0000      cmp	ip, #0	; 0x0
0x3ffce5c8:  e5993000      ldr	r3, [r9]
0x3ffce5cc:  0a00006b      beq	0x3ffce780

----------------
IN: 
0x3ffce5d0:  e3530000      cmp	r3, #0	; 0x0
0x3ffce5d4:  0a000003      beq	0x3ffce5e8

----------------
IN: 
0x3ffce5d8:  e5d3000d      ldrb	r0, [r3, #13]
0x3ffce5dc:  e2000003      and	r0, r0, #3	; 0x3
0x3ffce5e0:  e3500003      cmp	r0, #3	; 0x3
0x3ffce5e4:  0a000017      beq	0x3ffce648

----------------
IN: 
0x3ffce5e8:  e3a03000      mov	r3, #0	; 0x0
0x3ffce5ec:  e59d5060      ldr	r5, [sp, #96]
0x3ffce5f0:  e58d3028      str	r3, [sp, #40]
0x3ffce5f4:  e5d53198      ldrb	r3, [r5, #408]
0x3ffce5f8:  e2033003      and	r3, r3, #3	; 0x3
0x3ffce5fc:  e3530002      cmp	r3, #2	; 0x2
0x3ffce600:  0a0000f3      beq	0x3ffce9d4

----------------
IN: 
0x3ffce604:  e1a08005      mov	r8, r5
0x3ffce608:  e58d5020      str	r5, [sp, #32]
0x3ffce60c:  e59d505c      ldr	r5, [sp, #92]
0x3ffce610:  e598320c      ldr	r3, [r8, #524]
0x3ffce614:  e59f2e20      ldr	r2, [pc, #3616]	; 0x3ffcf43c
0x3ffce618:  e3530000      cmp	r3, #0	; 0x0
0x3ffce61c:  03a03001      moveq	r3, #1	; 0x1
0x3ffce620:  0588320c      streq	r3, [r8, #524]
0x3ffce624:  e59f3e14      ldr	r3, [pc, #3604]	; 0x3ffcf440
0x3ffce628:  e08f3003      add	r3, pc, r3
0x3ffce62c:  e5933000      ldr	r3, [r3]
0x3ffce630:  e1130002      tst	r3, r2
0x3ffce634:  1a000080      bne	0x3ffce83c

----------------
IN: 
0x3ffce638:  e59d0020      ldr	r0, [sp, #32]
0x3ffce63c:  e5895000      str	r5, [r9]
0x3ffce640:  e28dd07c      add	sp, sp, #124	; 0x7c
0x3ffce644:  e8bd8ff0      pop	{r4, r5, r6, r7, r8, r9, sl, fp, pc}

----------------
IN: 
0x3ffd3c50:  e1a02000      mov	r2, r0
0x3ffd3c54:  e51bc048      ldr	ip, [fp, #-72]
0x3ffd3c58:  e5890230      str	r0, [r9, #560]
0x3ffd3c5c:  e589c234      str	ip, [r9, #564]
0x3ffd3c60:  e35c0000      cmp	ip, #0	; 0x0
0x3ffd3c64:  15dc100c      ldrbne	r1, [ip, #12]
0x3ffd3c68:  1a00006c      bne	0x3ffd3e20

----------------
IN: 
0x3ffd3e20:  e59f3234      ldr	r3, [pc, #564]	; 0x3ffd405c
0x3ffd3e24:  e1dc00be      ldrh	r0, [ip, #14]
0x3ffd3e28:  e201100f      and	r1, r1, #15	; 0xf
0x3ffd3e2c:  e1500003      cmp	r0, r3
0x3ffd3e30:  03a03000      moveq	r3, #0	; 0x0
0x3ffd3e34:  15923000      ldrne	r3, [r2]
0x3ffd3e38:  e59cc004      ldr	ip, [ip, #4]
0x3ffd3e3c:  e351000a      cmp	r1, #10	; 0xa
0x3ffd3e40:  e083300c      add	r3, r3, ip
0x3ffd3e44:  0a000174      beq	0x3ffd441c

----------------
IN: 
0x3ffd3e48:  e35a0016      cmp	sl, #22	; 0x16
0x3ffd3e4c:  8affffe3      bhi	0x3ffd3de0

----------------
IN: 
0x3ffd3e50:  e24a1001      sub	r1, sl, #1	; 0x1
0x3ffd3e54:  e3510015      cmp	r1, #21	; 0x15
0x3ffd3e58:  908ff101      addls	pc, pc, r1, lsl #2

----------------
IN: 
0x3ffd3e64:  ea000014      b	0x3ffd3ebc

----------------
IN: 
0x3ffd3ebc:  e51b2080      ldr	r2, [fp, #-128]
0x3ffd3ec0:  e1590002      cmp	r9, r2
0x3ffd3ec4:  0a000342      beq	0x3ffd4bd4

----------------
IN: 
0x3ffd3ec8:  e5d81001      ldrb	r1, [r8, #1]
0x3ffd3ecc:  e5d82000      ldrb	r2, [r8]
0x3ffd3ed0:  e1822401      orr	r2, r2, r1, lsl #8
0x3ffd3ed4:  e5d81002      ldrb	r1, [r8, #2]
0x3ffd3ed8:  e1822801      orr	r2, r2, r1, lsl #16
0x3ffd3edc:  e5d81003      ldrb	r1, [r8, #3]
0x3ffd3ee0:  e1822c01      orr	r2, r2, r1, lsl #24
0x3ffd3ee4:  e0823003      add	r3, r2, r3
0x3ffd3ee8:  e1a02423      lsr	r2, r3, #8
0x3ffd3eec:  e5c83000      strb	r3, [r8]
0x3ffd3ef0:  e5c82001      strb	r2, [r8, #1]
0x3ffd3ef4:  e1a02823      lsr	r2, r3, #16
0x3ffd3ef8:  e1a03c23      lsr	r3, r3, #24
0x3ffd3efc:  e5c82002      strb	r2, [r8, #2]
0x3ffd3f00:  e5c83003      strb	r3, [r8, #3]
0x3ffd3f04:  e5d43004      ldrb	r3, [r4, #4]
0x3ffd3f08:  eaffff76      b	0x3ffd3ce8

----------------
IN: 
0x3ffd3ce8:  e3530016      cmp	r3, #22	; 0x16
0x3ffd3cec:  0a00000b      beq	0x3ffd3d20

----------------
IN: 
0x3ffd3cf0:  e51b3050      ldr	r3, [fp, #-80]
0x3ffd3cf4:  e2844008      add	r4, r4, #8	; 0x8
0x3ffd3cf8:  e1530004      cmp	r3, r4
0x3ffd3cfc:  8affff8c      bhi	0x3ffd3b34

----------------
IN: 
0x3ffd3e18:  e1a02009      mov	r2, r9
0x3ffd3e1c:  e1a0c005      mov	ip, r5
0x3ffd3e20:  e59f3234      ldr	r3, [pc, #564]	; 0x3ffd405c
0x3ffd3e24:  e1dc00be      ldrh	r0, [ip, #14]
0x3ffd3e28:  e201100f      and	r1, r1, #15	; 0xf
0x3ffd3e2c:  e1500003      cmp	r0, r3
0x3ffd3e30:  03a03000      moveq	r3, #0	; 0x0
0x3ffd3e34:  15923000      ldrne	r3, [r2]
0x3ffd3e38:  e59cc004      ldr	ip, [ip, #4]
0x3ffd3e3c:  e351000a      cmp	r1, #10	; 0xa
0x3ffd3e40:  e083300c      add	r3, r3, ip
0x3ffd3e44:  0a000174      beq	0x3ffd441c

----------------
IN: 
0x3ffd3ea8:  ea00006f      b	0x3ffd406c

----------------
IN: 
0x3ffd406c:  e51b1048      ldr	r1, [fp, #-72]
0x3ffd4070:  e3510000      cmp	r1, #0	; 0x0
0x3ffd4074:  0affff1a      beq	0x3ffd3ce4

----------------
IN: 
0x3ffd4078:  e592324c      ldr	r3, [r2, #588]
0x3ffd407c:  e2830001      add	r0, r3, #1	; 0x1
0x3ffd4080:  e3500001      cmp	r0, #1	; 0x1
0x3ffd4084:  9a00051c      bls	0x3ffd54fc

----------------
IN: 
0x3ffd4088:  e5912004      ldr	r2, [r1, #4]
0x3ffd408c:  e5981000      ldr	r1, [r8]
0x3ffd4090:  e0833001      add	r3, r3, r1
0x3ffd4094:  e0833002      add	r3, r3, r2
0x3ffd4098:  eaffff10      b	0x3ffd3ce0

----------------
IN: 
0x3ffd3ce0:  e5883000      str	r3, [r8]
0x3ffd3ce4:  e5d43004      ldrb	r3, [r4, #4]
0x3ffd3ce8:  e3530016      cmp	r3, #22	; 0x16
0x3ffd3cec:  0a00000b      beq	0x3ffd3d20

----------------
IN: 
0x3ffd3bd8:  e59f1400      ldr	r1, [pc, #1024]	; 0x3ffd3fe0
0x3ffd3bdc:  e08f1001      add	r1, pc, r1
0x3ffd3be0:  e7912102      ldr	r2, [r1, r2, lsl #2]
0x3ffd3be4:  e1833002      orr	r3, r3, r2
0x3ffd3be8:  e3560000      cmp	r6, #0	; 0x0
0x3ffd3bec:  01a01006      moveq	r1, r6
0x3ffd3bf0:  e589322c      str	r3, [r9, #556]
0x3ffd3bf4:  e5895228      str	r5, [r9, #552]
0x3ffd3bf8:  0a000003      beq	0x3ffd3c0c

----------------
IN: 
0x3ffe67e0:  e1500b01      cmp	r0, r1, lsl #22
0x3ffe67e4:  e0a22002      adc	r2, r2, r2
0x3ffe67e8:  20400b01      subcs	r0, r0, r1, lsl #22
0x3ffe67ec:  e1500a81      cmp	r0, r1, lsl #21
0x3ffe67f0:  e0a22002      adc	r2, r2, r2
0x3ffe67f4:  20400a81      subcs	r0, r0, r1, lsl #21
0x3ffe67f8:  e1500a01      cmp	r0, r1, lsl #20
0x3ffe67fc:  e0a22002      adc	r2, r2, r2
0x3ffe6800:  20400a01      subcs	r0, r0, r1, lsl #20
0x3ffe6804:  e1500981      cmp	r0, r1, lsl #19
0x3ffe6808:  e0a22002      adc	r2, r2, r2
0x3ffe680c:  20400981      subcs	r0, r0, r1, lsl #19
0x3ffe6810:  e1500901      cmp	r0, r1, lsl #18
0x3ffe6814:  e0a22002      adc	r2, r2, r2
0x3ffe6818:  20400901      subcs	r0, r0, r1, lsl #18
0x3ffe681c:  e1500881      cmp	r0, r1, lsl #17
0x3ffe6820:  e0a22002      adc	r2, r2, r2
0x3ffe6824:  20400881      subcs	r0, r0, r1, lsl #17
0x3ffe6828:  e1500801      cmp	r0, r1, lsl #16
0x3ffe682c:  e0a22002      adc	r2, r2, r2
0x3ffe6830:  20400801      subcs	r0, r0, r1, lsl #16
0x3ffe6834:  e1500781      cmp	r0, r1, lsl #15
0x3ffe6838:  e0a22002      adc	r2, r2, r2
0x3ffe683c:  20400781      subcs	r0, r0, r1, lsl #15
0x3ffe6840:  e1500701      cmp	r0, r1, lsl #14
0x3ffe6844:  e0a22002      adc	r2, r2, r2
0x3ffe6848:  20400701      subcs	r0, r0, r1, lsl #14
0x3ffe684c:  e1500681      cmp	r0, r1, lsl #13
0x3ffe6850:  e0a22002      adc	r2, r2, r2
0x3ffe6854:  20400681      subcs	r0, r0, r1, lsl #13
0x3ffe6858:  e1500601      cmp	r0, r1, lsl #12
0x3ffe685c:  e0a22002      adc	r2, r2, r2
0x3ffe6860:  20400601      subcs	r0, r0, r1, lsl #12
0x3ffe6864:  e1500581      cmp	r0, r1, lsl #11
0x3ffe6868:  e0a22002      adc	r2, r2, r2
0x3ffe686c:  20400581      subcs	r0, r0, r1, lsl #11
0x3ffe6870:  e1500501      cmp	r0, r1, lsl #10
0x3ffe6874:  e0a22002      adc	r2, r2, r2
0x3ffe6878:  20400501      subcs	r0, r0, r1, lsl #10
0x3ffe687c:  e1500481      cmp	r0, r1, lsl #9
0x3ffe6880:  e0a22002      adc	r2, r2, r2
0x3ffe6884:  20400481      subcs	r0, r0, r1, lsl #9
0x3ffe6888:  e1500401      cmp	r0, r1, lsl #8
0x3ffe688c:  e0a22002      adc	r2, r2, r2
0x3ffe6890:  20400401      subcs	r0, r0, r1, lsl #8
0x3ffe6894:  e1500381      cmp	r0, r1, lsl #7
0x3ffe6898:  e0a22002      adc	r2, r2, r2
0x3ffe689c:  20400381      subcs	r0, r0, r1, lsl #7
0x3ffe68a0:  e1500301      cmp	r0, r1, lsl #6
0x3ffe68a4:  e0a22002      adc	r2, r2, r2
0x3ffe68a8:  20400301      subcs	r0, r0, r1, lsl #6
0x3ffe68ac:  e1500281      cmp	r0, r1, lsl #5
0x3ffe68b0:  e0a22002      adc	r2, r2, r2
0x3ffe68b4:  20400281      subcs	r0, r0, r1, lsl #5
0x3ffe68b8:  e1500201      cmp	r0, r1, lsl #4
0x3ffe68bc:  e0a22002      adc	r2, r2, r2
0x3ffe68c0:  20400201      subcs	r0, r0, r1, lsl #4
0x3ffe68c4:  e1500181      cmp	r0, r1, lsl #3
0x3ffe68c8:  e0a22002      adc	r2, r2, r2
0x3ffe68cc:  20400181      subcs	r0, r0, r1, lsl #3
0x3ffe68d0:  e1500101      cmp	r0, r1, lsl #2
0x3ffe68d4:  e0a22002      adc	r2, r2, r2
0x3ffe68d8:  20400101      subcs	r0, r0, r1, lsl #2
0x3ffe68dc:  e1500081      cmp	r0, r1, lsl #1
0x3ffe68e0:  e0a22002      adc	r2, r2, r2
0x3ffe68e4:  20400081      subcs	r0, r0, r1, lsl #1
0x3ffe68e8:  e1500001      cmp	r0, r1
0x3ffe68ec:  e0a22002      adc	r2, r2, r2
0x3ffe68f0:  20400001      subcs	r0, r0, r1
0x3ffe68f4:  e1a00002      mov	r0, r2
0x3ffe68f8:  e12fff1e      bx	lr

----------------
IN: 
0x3ffd3eb0:  eaffff8a      b	0x3ffd3ce0

----------------
IN: 
0x3ffe67c8:  e1500c01      cmp	r0, r1, lsl #24
0x3ffe67cc:  e0a22002      adc	r2, r2, r2
0x3ffe67d0:  20400c01      subcs	r0, r0, r1, lsl #24
0x3ffe67d4:  e1500b81      cmp	r0, r1, lsl #23
0x3ffe67d8:  e0a22002      adc	r2, r2, r2
0x3ffe67dc:  20400b81      subcs	r0, r0, r1, lsl #23
0x3ffe67e0:  e1500b01      cmp	r0, r1, lsl #22
0x3ffe67e4:  e0a22002      adc	r2, r2, r2
0x3ffe67e8:  20400b01      subcs	r0, r0, r1, lsl #22
0x3ffe67ec:  e1500a81      cmp	r0, r1, lsl #21
0x3ffe67f0:  e0a22002      adc	r2, r2, r2
0x3ffe67f4:  20400a81      subcs	r0, r0, r1, lsl #21
0x3ffe67f8:  e1500a01      cmp	r0, r1, lsl #20
0x3ffe67fc:  e0a22002      adc	r2, r2, r2
0x3ffe6800:  20400a01      subcs	r0, r0, r1, lsl #20
0x3ffe6804:  e1500981      cmp	r0, r1, lsl #19
0x3ffe6808:  e0a22002      adc	r2, r2, r2
0x3ffe680c:  20400981      subcs	r0, r0, r1, lsl #19
0x3ffe6810:  e1500901      cmp	r0, r1, lsl #18
0x3ffe6814:  e0a22002      adc	r2, r2, r2
0x3ffe6818:  20400901      subcs	r0, r0, r1, lsl #18
0x3ffe681c:  e1500881      cmp	r0, r1, lsl #17
0x3ffe6820:  e0a22002      adc	r2, r2, r2
0x3ffe6824:  20400881      subcs	r0, r0, r1, lsl #17
0x3ffe6828:  e1500801      cmp	r0, r1, lsl #16
0x3ffe682c:  e0a22002      adc	r2, r2, r2
0x3ffe6830:  20400801      subcs	r0, r0, r1, lsl #16
0x3ffe6834:  e1500781      cmp	r0, r1, lsl #15
0x3ffe6838:  e0a22002      adc	r2, r2, r2
0x3ffe683c:  20400781      subcs	r0, r0, r1, lsl #15
0x3ffe6840:  e1500701      cmp	r0, r1, lsl #14
0x3ffe6844:  e0a22002      adc	r2, r2, r2
0x3ffe6848:  20400701      subcs	r0, r0, r1, lsl #14
0x3ffe684c:  e1500681      cmp	r0, r1, lsl #13
0x3ffe6850:  e0a22002      adc	r2, r2, r2
0x3ffe6854:  20400681      subcs	r0, r0, r1, lsl #13
0x3ffe6858:  e1500601      cmp	r0, r1, lsl #12
0x3ffe685c:  e0a22002      adc	r2, r2, r2
0x3ffe6860:  20400601      subcs	r0, r0, r1, lsl #12
0x3ffe6864:  e1500581      cmp	r0, r1, lsl #11
0x3ffe6868:  e0a22002      adc	r2, r2, r2
0x3ffe686c:  20400581      subcs	r0, r0, r1, lsl #11
0x3ffe6870:  e1500501      cmp	r0, r1, lsl #10
0x3ffe6874:  e0a22002      adc	r2, r2, r2
0x3ffe6878:  20400501      subcs	r0, r0, r1, lsl #10
0x3ffe687c:  e1500481      cmp	r0, r1, lsl #9
0x3ffe6880:  e0a22002      adc	r2, r2, r2
0x3ffe6884:  20400481      subcs	r0, r0, r1, lsl #9
0x3ffe6888:  e1500401      cmp	r0, r1, lsl #8
0x3ffe688c:  e0a22002      adc	r2, r2, r2
0x3ffe6890:  20400401      subcs	r0, r0, r1, lsl #8
0x3ffe6894:  e1500381      cmp	r0, r1, lsl #7
0x3ffe6898:  e0a22002      adc	r2, r2, r2
0x3ffe689c:  20400381      subcs	r0, r0, r1, lsl #7
0x3ffe68a0:  e1500301      cmp	r0, r1, lsl #6
0x3ffe68a4:  e0a22002      adc	r2, r2, r2
0x3ffe68a8:  20400301      subcs	r0, r0, r1, lsl #6
0x3ffe68ac:  e1500281      cmp	r0, r1, lsl #5
0x3ffe68b0:  e0a22002      adc	r2, r2, r2
0x3ffe68b4:  20400281      subcs	r0, r0, r1, lsl #5
0x3ffe68b8:  e1500201      cmp	r0, r1, lsl #4
0x3ffe68bc:  e0a22002      adc	r2, r2, r2
0x3ffe68c0:  20400201      subcs	r0, r0, r1, lsl #4
0x3ffe68c4:  e1500181      cmp	r0, r1, lsl #3
0x3ffe68c8:  e0a22002      adc	r2, r2, r2
0x3ffe68cc:  20400181      subcs	r0, r0, r1, lsl #3
0x3ffe68d0:  e1500101      cmp	r0, r1, lsl #2
0x3ffe68d4:  e0a22002      adc	r2, r2, r2
0x3ffe68d8:  20400101      subcs	r0, r0, r1, lsl #2
0x3ffe68dc:  e1500081      cmp	r0, r1, lsl #1
0x3ffe68e0:  e0a22002      adc	r2, r2, r2
0x3ffe68e4:  20400081      subcs	r0, r0, r1, lsl #1
0x3ffe68e8:  e1500001      cmp	r0, r1
0x3ffe68ec:  e0a22002      adc	r2, r2, r2
0x3ffe68f0:  20400001      subcs	r0, r0, r1
0x3ffe68f4:  e1a00002      mov	r0, r2
0x3ffe68f8:  e12fff1e      bx	lr

----------------
IN: 
0x3ffcd65c:  e1a01000      mov	r1, r0
0x3ffcd660:  e59d3024      ldr	r3, [sp, #36]
0x3ffcd664:  e5950000      ldr	r0, [r5]
0x3ffcd668:  e0830000      add	r0, r3, r0
0x3ffcd66c:  eb005fae      bl	0x3ffe552c

----------------
IN: 
0x3ffcd670:  e3500000      cmp	r0, #0	; 0x0
0x3ffcd674:  1a000033      bne	0x3ffcd748

----------------
IN: 
0x3ffe67bc:  e1500c81      cmp	r0, r1, lsl #25
0x3ffe67c0:  e0a22002      adc	r2, r2, r2
0x3ffe67c4:  20400c81      subcs	r0, r0, r1, lsl #25
0x3ffe67c8:  e1500c01      cmp	r0, r1, lsl #24
0x3ffe67cc:  e0a22002      adc	r2, r2, r2
0x3ffe67d0:  20400c01      subcs	r0, r0, r1, lsl #24
0x3ffe67d4:  e1500b81      cmp	r0, r1, lsl #23
0x3ffe67d8:  e0a22002      adc	r2, r2, r2
0x3ffe67dc:  20400b81      subcs	r0, r0, r1, lsl #23
0x3ffe67e0:  e1500b01      cmp	r0, r1, lsl #22
0x3ffe67e4:  e0a22002      adc	r2, r2, r2
0x3ffe67e8:  20400b01      subcs	r0, r0, r1, lsl #22
0x3ffe67ec:  e1500a81      cmp	r0, r1, lsl #21
0x3ffe67f0:  e0a22002      adc	r2, r2, r2
0x3ffe67f4:  20400a81      subcs	r0, r0, r1, lsl #21
0x3ffe67f8:  e1500a01      cmp	r0, r1, lsl #20
0x3ffe67fc:  e0a22002      adc	r2, r2, r2
0x3ffe6800:  20400a01      subcs	r0, r0, r1, lsl #20
0x3ffe6804:  e1500981      cmp	r0, r1, lsl #19
0x3ffe6808:  e0a22002      adc	r2, r2, r2
0x3ffe680c:  20400981      subcs	r0, r0, r1, lsl #19
0x3ffe6810:  e1500901      cmp	r0, r1, lsl #18
0x3ffe6814:  e0a22002      adc	r2, r2, r2
0x3ffe6818:  20400901      subcs	r0, r0, r1, lsl #18
0x3ffe681c:  e1500881      cmp	r0, r1, lsl #17
0x3ffe6820:  e0a22002      adc	r2, r2, r2
0x3ffe6824:  20400881      subcs	r0, r0, r1, lsl #17
0x3ffe6828:  e1500801      cmp	r0, r1, lsl #16
0x3ffe682c:  e0a22002      adc	r2, r2, r2
0x3ffe6830:  20400801      subcs	r0, r0, r1, lsl #16
0x3ffe6834:  e1500781      cmp	r0, r1, lsl #15
0x3ffe6838:  e0a22002      adc	r2, r2, r2
0x3ffe683c:  20400781      subcs	r0, r0, r1, lsl #15
0x3ffe6840:  e1500701      cmp	r0, r1, lsl #14
0x3ffe6844:  e0a22002      adc	r2, r2, r2
0x3ffe6848:  20400701      subcs	r0, r0, r1, lsl #14
0x3ffe684c:  e1500681      cmp	r0, r1, lsl #13
0x3ffe6850:  e0a22002      adc	r2, r2, r2
0x3ffe6854:  20400681      subcs	r0, r0, r1, lsl #13
0x3ffe6858:  e1500601      cmp	r0, r1, lsl #12
0x3ffe685c:  e0a22002      adc	r2, r2, r2
0x3ffe6860:  20400601      subcs	r0, r0, r1, lsl #12
0x3ffe6864:  e1500581      cmp	r0, r1, lsl #11
0x3ffe6868:  e0a22002      adc	r2, r2, r2
0x3ffe686c:  20400581      subcs	r0, r0, r1, lsl #11
0x3ffe6870:  e1500501      cmp	r0, r1, lsl #10
0x3ffe6874:  e0a22002      adc	r2, r2, r2
0x3ffe6878:  20400501      subcs	r0, r0, r1, lsl #10
0x3ffe687c:  e1500481      cmp	r0, r1, lsl #9
0x3ffe6880:  e0a22002      adc	r2, r2, r2
0x3ffe6884:  20400481      subcs	r0, r0, r1, lsl #9
0x3ffe6888:  e1500401      cmp	r0, r1, lsl #8
0x3ffe688c:  e0a22002      adc	r2, r2, r2
0x3ffe6890:  20400401      subcs	r0, r0, r1, lsl #8
0x3ffe6894:  e1500381      cmp	r0, r1, lsl #7
0x3ffe6898:  e0a22002      adc	r2, r2, r2
0x3ffe689c:  20400381      subcs	r0, r0, r1, lsl #7
0x3ffe68a0:  e1500301      cmp	r0, r1, lsl #6
0x3ffe68a4:  e0a22002      adc	r2, r2, r2
0x3ffe68a8:  20400301      subcs	r0, r0, r1, lsl #6
0x3ffe68ac:  e1500281      cmp	r0, r1, lsl #5
0x3ffe68b0:  e0a22002      adc	r2, r2, r2
0x3ffe68b4:  20400281      subcs	r0, r0, r1, lsl #5
0x3ffe68b8:  e1500201      cmp	r0, r1, lsl #4
0x3ffe68bc:  e0a22002      adc	r2, r2, r2
0x3ffe68c0:  20400201      subcs	r0, r0, r1, lsl #4
0x3ffe68c4:  e1500181      cmp	r0, r1, lsl #3
0x3ffe68c8:  e0a22002      adc	r2, r2, r2
0x3ffe68cc:  20400181      subcs	r0, r0, r1, lsl #3
0x3ffe68d0:  e1500101      cmp	r0, r1, lsl #2
0x3ffe68d4:  e0a22002      adc	r2, r2, r2
0x3ffe68d8:  20400101      subcs	r0, r0, r1, lsl #2
0x3ffe68dc:  e1500081      cmp	r0, r1, lsl #1
0x3ffe68e0:  e0a22002      adc	r2, r2, r2
0x3ffe68e4:  20400081      subcs	r0, r0, r1, lsl #1
0x3ffe68e8:  e1500001      cmp	r0, r1
0x3ffe68ec:  e0a22002      adc	r2, r2, r2
0x3ffe68f0:  20400001      subcs	r0, r0, r1
0x3ffe68f4:  e1a00002      mov	r0, r2
0x3ffe68f8:  e12fff1e      bx	lr

----------------
IN: 
0x3ffe678c:  e1500e81      cmp	r0, r1, lsl #29
0x3ffe6790:  e0a22002      adc	r2, r2, r2
0x3ffe6794:  20400e81      subcs	r0, r0, r1, lsl #29
0x3ffe6798:  e1500e01      cmp	r0, r1, lsl #28
0x3ffe679c:  e0a22002      adc	r2, r2, r2
0x3ffe67a0:  20400e01      subcs	r0, r0, r1, lsl #28
0x3ffe67a4:  e1500d81      cmp	r0, r1, lsl #27
0x3ffe67a8:  e0a22002      adc	r2, r2, r2
0x3ffe67ac:  20400d81      subcs	r0, r0, r1, lsl #27
0x3ffe67b0:  e1500d01      cmp	r0, r1, lsl #26
0x3ffe67b4:  e0a22002      adc	r2, r2, r2
0x3ffe67b8:  20400d01      subcs	r0, r0, r1, lsl #26
0x3ffe67bc:  e1500c81      cmp	r0, r1, lsl #25
0x3ffe67c0:  e0a22002      adc	r2, r2, r2
0x3ffe67c4:  20400c81      subcs	r0, r0, r1, lsl #25
0x3ffe67c8:  e1500c01      cmp	r0, r1, lsl #24
0x3ffe67cc:  e0a22002      adc	r2, r2, r2
0x3ffe67d0:  20400c01      subcs	r0, r0, r1, lsl #24
0x3ffe67d4:  e1500b81      cmp	r0, r1, lsl #23
0x3ffe67d8:  e0a22002      adc	r2, r2, r2
0x3ffe67dc:  20400b81      subcs	r0, r0, r1, lsl #23
0x3ffe67e0:  e1500b01      cmp	r0, r1, lsl #22
0x3ffe67e4:  e0a22002      adc	r2, r2, r2
0x3ffe67e8:  20400b01      subcs	r0, r0, r1, lsl #22
0x3ffe67ec:  e1500a81      cmp	r0, r1, lsl #21
0x3ffe67f0:  e0a22002      adc	r2, r2, r2
0x3ffe67f4:  20400a81      subcs	r0, r0, r1, lsl #21
0x3ffe67f8:  e1500a01      cmp	r0, r1, lsl #20
0x3ffe67fc:  e0a22002      adc	r2, r2, r2
0x3ffe6800:  20400a01      subcs	r0, r0, r1, lsl #20
0x3ffe6804:  e1500981      cmp	r0, r1, lsl #19
0x3ffe6808:  e0a22002      adc	r2, r2, r2
0x3ffe680c:  20400981      subcs	r0, r0, r1, lsl #19
0x3ffe6810:  e1500901      cmp	r0, r1, lsl #18
0x3ffe6814:  e0a22002      adc	r2, r2, r2
0x3ffe6818:  20400901      subcs	r0, r0, r1, lsl #18
0x3ffe681c:  e1500881      cmp	r0, r1, lsl #17
0x3ffe6820:  e0a22002      adc	r2, r2, r2
0x3ffe6824:  20400881      subcs	r0, r0, r1, lsl #17
0x3ffe6828:  e1500801      cmp	r0, r1, lsl #16
0x3ffe682c:  e0a22002      adc	r2, r2, r2
0x3ffe6830:  20400801      subcs	r0, r0, r1, lsl #16
0x3ffe6834:  e1500781      cmp	r0, r1, lsl #15
0x3ffe6838:  e0a22002      adc	r2, r2, r2
0x3ffe683c:  20400781      subcs	r0, r0, r1, lsl #15
0x3ffe6840:  e1500701      cmp	r0, r1, lsl #14
0x3ffe6844:  e0a22002      adc	r2, r2, r2
0x3ffe6848:  20400701      subcs	r0, r0, r1, lsl #14
0x3ffe684c:  e1500681      cmp	r0, r1, lsl #13
0x3ffe6850:  e0a22002      adc	r2, r2, r2
0x3ffe6854:  20400681      subcs	r0, r0, r1, lsl #13
0x3ffe6858:  e1500601      cmp	r0, r1, lsl #12
0x3ffe685c:  e0a22002      adc	r2, r2, r2
0x3ffe6860:  20400601      subcs	r0, r0, r1, lsl #12
0x3ffe6864:  e1500581      cmp	r0, r1, lsl #11
0x3ffe6868:  e0a22002      adc	r2, r2, r2
0x3ffe686c:  20400581      subcs	r0, r0, r1, lsl #11
0x3ffe6870:  e1500501      cmp	r0, r1, lsl #10
0x3ffe6874:  e0a22002      adc	r2, r2, r2
0x3ffe6878:  20400501      subcs	r0, r0, r1, lsl #10
0x3ffe687c:  e1500481      cmp	r0, r1, lsl #9
0x3ffe6880:  e0a22002      adc	r2, r2, r2
0x3ffe6884:  20400481      subcs	r0, r0, r1, lsl #9
0x3ffe6888:  e1500401      cmp	r0, r1, lsl #8
0x3ffe688c:  e0a22002      adc	r2, r2, r2
0x3ffe6890:  20400401      subcs	r0, r0, r1, lsl #8
0x3ffe6894:  e1500381      cmp	r0, r1, lsl #7
0x3ffe6898:  e0a22002      adc	r2, r2, r2
0x3ffe689c:  20400381      subcs	r0, r0, r1, lsl #7
0x3ffe68a0:  e1500301      cmp	r0, r1, lsl #6
0x3ffe68a4:  e0a22002      adc	r2, r2, r2
0x3ffe68a8:  20400301      subcs	r0, r0, r1, lsl #6
0x3ffe68ac:  e1500281      cmp	r0, r1, lsl #5
0x3ffe68b0:  e0a22002      adc	r2, r2, r2
0x3ffe68b4:  20400281      subcs	r0, r0, r1, lsl #5
0x3ffe68b8:  e1500201      cmp	r0, r1, lsl #4
0x3ffe68bc:  e0a22002      adc	r2, r2, r2
0x3ffe68c0:  20400201      subcs	r0, r0, r1, lsl #4
0x3ffe68c4:  e1500181      cmp	r0, r1, lsl #3
0x3ffe68c8:  e0a22002      adc	r2, r2, r2
0x3ffe68cc:  20400181      subcs	r0, r0, r1, lsl #3
0x3ffe68d0:  e1500101      cmp	r0, r1, lsl #2
0x3ffe68d4:  e0a22002      adc	r2, r2, r2
0x3ffe68d8:  20400101      subcs	r0, r0, r1, lsl #2
0x3ffe68dc:  e1500081      cmp	r0, r1, lsl #1
0x3ffe68e0:  e0a22002      adc	r2, r2, r2
0x3ffe68e4:  20400081      subcs	r0, r0, r1, lsl #1
0x3ffe68e8:  e1500001      cmp	r0, r1
0x3ffe68ec:  e0a22002      adc	r2, r2, r2
0x3ffe68f0:  20400001      subcs	r0, r0, r1
0x3ffe68f4:  e1a00002      mov	r0, r2
0x3ffe68f8:  e12fff1e      bx	lr

----------------
IN: 
0x3ffcdaa8:  e3120001      tst	r2, #1	; 0x1
0x3ffcdaac:  1a000034      bne	0x3ffcdb84

----------------
IN: 
0x3ffcd738:  e59f2068      ldr	r2, [pc, #104]	; 0x3ffcd7a8
0x3ffcd73c:  e35e0006      cmp	lr, #6	; 0x6
0x3ffcd740:  11530002      cmpne	r3, r2
0x3ffcd744:  0affffb9      beq	0x3ffcd630

----------------
IN: 
0x3ffcd748:  e3a00000      mov	r0, #0	; 0x0
0x3ffcd74c:  e8bd81f0      pop	{r4, r5, r6, r7, r8, pc}

----------------
IN: 
0x3ffcdb18:  e5172004      ldr	r2, [r7, #-4]
0x3ffcdb1c:  eaffffe1      b	0x3ffcdaa8

----------------
IN: 
0x3ffcdb84:  e59d3058      ldr	r3, [sp, #88]
0x3ffcdb88:  e59d604c      ldr	r6, [sp, #76]
0x3ffcdb8c:  e3530001      cmp	r3, #1	; 0x1
0x3ffcdb90:  e59d5090      ldr	r5, [sp, #144]
0x3ffcdb94:  e59da050      ldr	sl, [sp, #80]
0x3ffcdb98:  e59db054      ldr	fp, [sp, #84]
0x3ffcdb9c:  1affff3c      bne	0x3ffcd894

----------------
IN: 
0x3ffe6804:  e1500981      cmp	r0, r1, lsl #19
0x3ffe6808:  e0a22002      adc	r2, r2, r2
0x3ffe680c:  20400981      subcs	r0, r0, r1, lsl #19
0x3ffe6810:  e1500901      cmp	r0, r1, lsl #18
0x3ffe6814:  e0a22002      adc	r2, r2, r2
0x3ffe6818:  20400901      subcs	r0, r0, r1, lsl #18
0x3ffe681c:  e1500881      cmp	r0, r1, lsl #17
0x3ffe6820:  e0a22002      adc	r2, r2, r2
0x3ffe6824:  20400881      subcs	r0, r0, r1, lsl #17
0x3ffe6828:  e1500801      cmp	r0, r1, lsl #16
0x3ffe682c:  e0a22002      adc	r2, r2, r2
0x3ffe6830:  20400801      subcs	r0, r0, r1, lsl #16
0x3ffe6834:  e1500781      cmp	r0, r1, lsl #15
0x3ffe6838:  e0a22002      adc	r2, r2, r2
0x3ffe683c:  20400781      subcs	r0, r0, r1, lsl #15
0x3ffe6840:  e1500701      cmp	r0, r1, lsl #14
0x3ffe6844:  e0a22002      adc	r2, r2, r2
0x3ffe6848:  20400701      subcs	r0, r0, r1, lsl #14
0x3ffe684c:  e1500681      cmp	r0, r1, lsl #13
0x3ffe6850:  e0a22002      adc	r2, r2, r2
0x3ffe6854:  20400681      subcs	r0, r0, r1, lsl #13
0x3ffe6858:  e1500601      cmp	r0, r1, lsl #12
0x3ffe685c:  e0a22002      adc	r2, r2, r2
0x3ffe6860:  20400601      subcs	r0, r0, r1, lsl #12
0x3ffe6864:  e1500581      cmp	r0, r1, lsl #11
0x3ffe6868:  e0a22002      adc	r2, r2, r2
0x3ffe686c:  20400581      subcs	r0, r0, r1, lsl #11
0x3ffe6870:  e1500501      cmp	r0, r1, lsl #10
0x3ffe6874:  e0a22002      adc	r2, r2, r2
0x3ffe6878:  20400501      subcs	r0, r0, r1, lsl #10
0x3ffe687c:  e1500481      cmp	r0, r1, lsl #9
0x3ffe6880:  e0a22002      adc	r2, r2, r2
0x3ffe6884:  20400481      subcs	r0, r0, r1, lsl #9
0x3ffe6888:  e1500401      cmp	r0, r1, lsl #8
0x3ffe688c:  e0a22002      adc	r2, r2, r2
0x3ffe6890:  20400401      subcs	r0, r0, r1, lsl #8
0x3ffe6894:  e1500381      cmp	r0, r1, lsl #7
0x3ffe6898:  e0a22002      adc	r2, r2, r2
0x3ffe689c:  20400381      subcs	r0, r0, r1, lsl #7
0x3ffe68a0:  e1500301      cmp	r0, r1, lsl #6
0x3ffe68a4:  e0a22002      adc	r2, r2, r2
0x3ffe68a8:  20400301      subcs	r0, r0, r1, lsl #6
0x3ffe68ac:  e1500281      cmp	r0, r1, lsl #5
0x3ffe68b0:  e0a22002      adc	r2, r2, r2
0x3ffe68b4:  20400281      subcs	r0, r0, r1, lsl #5
0x3ffe68b8:  e1500201      cmp	r0, r1, lsl #4
0x3ffe68bc:  e0a22002      adc	r2, r2, r2
0x3ffe68c0:  20400201      subcs	r0, r0, r1, lsl #4
0x3ffe68c4:  e1500181      cmp	r0, r1, lsl #3
0x3ffe68c8:  e0a22002      adc	r2, r2, r2
0x3ffe68cc:  20400181      subcs	r0, r0, r1, lsl #3
0x3ffe68d0:  e1500101      cmp	r0, r1, lsl #2
0x3ffe68d4:  e0a22002      adc	r2, r2, r2
0x3ffe68d8:  20400101      subcs	r0, r0, r1, lsl #2
0x3ffe68dc:  e1500081      cmp	r0, r1, lsl #1
0x3ffe68e0:  e0a22002      adc	r2, r2, r2
0x3ffe68e4:  20400081      subcs	r0, r0, r1, lsl #1
0x3ffe68e8:  e1500001      cmp	r0, r1
0x3ffe68ec:  e0a22002      adc	r2, r2, r2
0x3ffe68f0:  20400001      subcs	r0, r0, r1
0x3ffe68f4:  e1a00002      mov	r0, r2
0x3ffe68f8:  e12fff1e      bx	lr

----------------
IN: 
0x3ffe67a4:  e1500d81      cmp	r0, r1, lsl #27
0x3ffe67a8:  e0a22002      adc	r2, r2, r2
0x3ffe67ac:  20400d81      subcs	r0, r0, r1, lsl #27
0x3ffe67b0:  e1500d01      cmp	r0, r1, lsl #26
0x3ffe67b4:  e0a22002      adc	r2, r2, r2
0x3ffe67b8:  20400d01      subcs	r0, r0, r1, lsl #26
0x3ffe67bc:  e1500c81      cmp	r0, r1, lsl #25
0x3ffe67c0:  e0a22002      adc	r2, r2, r2
0x3ffe67c4:  20400c81      subcs	r0, r0, r1, lsl #25
0x3ffe67c8:  e1500c01      cmp	r0, r1, lsl #24
0x3ffe67cc:  e0a22002      adc	r2, r2, r2
0x3ffe67d0:  20400c01      subcs	r0, r0, r1, lsl #24
0x3ffe67d4:  e1500b81      cmp	r0, r1, lsl #23
0x3ffe67d8:  e0a22002      adc	r2, r2, r2
0x3ffe67dc:  20400b81      subcs	r0, r0, r1, lsl #23
0x3ffe67e0:  e1500b01      cmp	r0, r1, lsl #22
0x3ffe67e4:  e0a22002      adc	r2, r2, r2
0x3ffe67e8:  20400b01      subcs	r0, r0, r1, lsl #22
0x3ffe67ec:  e1500a81      cmp	r0, r1, lsl #21
0x3ffe67f0:  e0a22002      adc	r2, r2, r2
0x3ffe67f4:  20400a81      subcs	r0, r0, r1, lsl #21
0x3ffe67f8:  e1500a01      cmp	r0, r1, lsl #20
0x3ffe67fc:  e0a22002      adc	r2, r2, r2
0x3ffe6800:  20400a01      subcs	r0, r0, r1, lsl #20
0x3ffe6804:  e1500981      cmp	r0, r1, lsl #19
0x3ffe6808:  e0a22002      adc	r2, r2, r2
0x3ffe680c:  20400981      subcs	r0, r0, r1, lsl #19
0x3ffe6810:  e1500901      cmp	r0, r1, lsl #18
0x3ffe6814:  e0a22002      adc	r2, r2, r2
0x3ffe6818:  20400901      subcs	r0, r0, r1, lsl #18
0x3ffe681c:  e1500881      cmp	r0, r1, lsl #17
0x3ffe6820:  e0a22002      adc	r2, r2, r2
0x3ffe6824:  20400881      subcs	r0, r0, r1, lsl #17
0x3ffe6828:  e1500801      cmp	r0, r1, lsl #16
0x3ffe682c:  e0a22002      adc	r2, r2, r2
0x3ffe6830:  20400801      subcs	r0, r0, r1, lsl #16
0x3ffe6834:  e1500781      cmp	r0, r1, lsl #15
0x3ffe6838:  e0a22002      adc	r2, r2, r2
0x3ffe683c:  20400781      subcs	r0, r0, r1, lsl #15
0x3ffe6840:  e1500701      cmp	r0, r1, lsl #14
0x3ffe6844:  e0a22002      adc	r2, r2, r2
0x3ffe6848:  20400701      subcs	r0, r0, r1, lsl #14
0x3ffe684c:  e1500681      cmp	r0, r1, lsl #13
0x3ffe6850:  e0a22002      adc	r2, r2, r2
0x3ffe6854:  20400681      subcs	r0, r0, r1, lsl #13
0x3ffe6858:  e1500601      cmp	r0, r1, lsl #12
0x3ffe685c:  e0a22002      adc	r2, r2, r2
0x3ffe6860:  20400601      subcs	r0, r0, r1, lsl #12
0x3ffe6864:  e1500581      cmp	r0, r1, lsl #11
0x3ffe6868:  e0a22002      adc	r2, r2, r2
0x3ffe686c:  20400581      subcs	r0, r0, r1, lsl #11
0x3ffe6870:  e1500501      cmp	r0, r1, lsl #10
0x3ffe6874:  e0a22002      adc	r2, r2, r2
0x3ffe6878:  20400501      subcs	r0, r0, r1, lsl #10
0x3ffe687c:  e1500481      cmp	r0, r1, lsl #9
0x3ffe6880:  e0a22002      adc	r2, r2, r2
0x3ffe6884:  20400481      subcs	r0, r0, r1, lsl #9
0x3ffe6888:  e1500401      cmp	r0, r1, lsl #8
0x3ffe688c:  e0a22002      adc	r2, r2, r2
0x3ffe6890:  20400401      subcs	r0, r0, r1, lsl #8
0x3ffe6894:  e1500381      cmp	r0, r1, lsl #7
0x3ffe6898:  e0a22002      adc	r2, r2, r2
0x3ffe689c:  20400381      subcs	r0, r0, r1, lsl #7
0x3ffe68a0:  e1500301      cmp	r0, r1, lsl #6
0x3ffe68a4:  e0a22002      adc	r2, r2, r2
0x3ffe68a8:  20400301      subcs	r0, r0, r1, lsl #6
0x3ffe68ac:  e1500281      cmp	r0, r1, lsl #5
0x3ffe68b0:  e0a22002      adc	r2, r2, r2
0x3ffe68b4:  20400281      subcs	r0, r0, r1, lsl #5
0x3ffe68b8:  e1500201      cmp	r0, r1, lsl #4
0x3ffe68bc:  e0a22002      adc	r2, r2, r2
0x3ffe68c0:  20400201      subcs	r0, r0, r1, lsl #4
0x3ffe68c4:  e1500181      cmp	r0, r1, lsl #3
0x3ffe68c8:  e0a22002      adc	r2, r2, r2
0x3ffe68cc:  20400181      subcs	r0, r0, r1, lsl #3
0x3ffe68d0:  e1500101      cmp	r0, r1, lsl #2
0x3ffe68d4:  e0a22002      adc	r2, r2, r2
0x3ffe68d8:  20400101      subcs	r0, r0, r1, lsl #2
0x3ffe68dc:  e1500081      cmp	r0, r1, lsl #1
0x3ffe68e0:  e0a22002      adc	r2, r2, r2
0x3ffe68e4:  20400081      subcs	r0, r0, r1, lsl #1
0x3ffe68e8:  e1500001      cmp	r0, r1
0x3ffe68ec:  e0a22002      adc	r2, r2, r2
0x3ffe68f0:  20400001      subcs	r0, r0, r1
0x3ffe68f4:  e1a00002      mov	r0, r2
0x3ffe68f8:  e12fff1e      bx	lr

----------------
IN: 
0x3ffcdb58:  e59d2048      ldr	r2, [sp, #72]
0x3ffcdb5c:  e5922038      ldr	r2, [r2, #56]
0x3ffcdb60:  e3520000      cmp	r2, #0	; 0x0
0x3ffcdb64:  0affffb4      beq	0x3ffcda3c

----------------
IN: 
0x3ffe67b0:  e1500d01      cmp	r0, r1, lsl #26
0x3ffe67b4:  e0a22002      adc	r2, r2, r2
0x3ffe67b8:  20400d01      subcs	r0, r0, r1, lsl #26
0x3ffe67bc:  e1500c81      cmp	r0, r1, lsl #25
0x3ffe67c0:  e0a22002      adc	r2, r2, r2
0x3ffe67c4:  20400c81      subcs	r0, r0, r1, lsl #25
0x3ffe67c8:  e1500c01      cmp	r0, r1, lsl #24
0x3ffe67cc:  e0a22002      adc	r2, r2, r2
0x3ffe67d0:  20400c01      subcs	r0, r0, r1, lsl #24
0x3ffe67d4:  e1500b81      cmp	r0, r1, lsl #23
0x3ffe67d8:  e0a22002      adc	r2, r2, r2
0x3ffe67dc:  20400b81      subcs	r0, r0, r1, lsl #23
0x3ffe67e0:  e1500b01      cmp	r0, r1, lsl #22
0x3ffe67e4:  e0a22002      adc	r2, r2, r2
0x3ffe67e8:  20400b01      subcs	r0, r0, r1, lsl #22
0x3ffe67ec:  e1500a81      cmp	r0, r1, lsl #21
0x3ffe67f0:  e0a22002      adc	r2, r2, r2
0x3ffe67f4:  20400a81      subcs	r0, r0, r1, lsl #21
0x3ffe67f8:  e1500a01      cmp	r0, r1, lsl #20
0x3ffe67fc:  e0a22002      adc	r2, r2, r2
0x3ffe6800:  20400a01      subcs	r0, r0, r1, lsl #20
0x3ffe6804:  e1500981      cmp	r0, r1, lsl #19
0x3ffe6808:  e0a22002      adc	r2, r2, r2
0x3ffe680c:  20400981      subcs	r0, r0, r1, lsl #19
0x3ffe6810:  e1500901      cmp	r0, r1, lsl #18
0x3ffe6814:  e0a22002      adc	r2, r2, r2
0x3ffe6818:  20400901      subcs	r0, r0, r1, lsl #18
0x3ffe681c:  e1500881      cmp	r0, r1, lsl #17
0x3ffe6820:  e0a22002      adc	r2, r2, r2
0x3ffe6824:  20400881      subcs	r0, r0, r1, lsl #17
0x3ffe6828:  e1500801      cmp	r0, r1, lsl #16
0x3ffe682c:  e0a22002      adc	r2, r2, r2
0x3ffe6830:  20400801      subcs	r0, r0, r1, lsl #16
0x3ffe6834:  e1500781      cmp	r0, r1, lsl #15
0x3ffe6838:  e0a22002      adc	r2, r2, r2
0x3ffe683c:  20400781      subcs	r0, r0, r1, lsl #15
0x3ffe6840:  e1500701      cmp	r0, r1, lsl #14
0x3ffe6844:  e0a22002      adc	r2, r2, r2
0x3ffe6848:  20400701      subcs	r0, r0, r1, lsl #14
0x3ffe684c:  e1500681      cmp	r0, r1, lsl #13
0x3ffe6850:  e0a22002      adc	r2, r2, r2
0x3ffe6854:  20400681      subcs	r0, r0, r1, lsl #13
0x3ffe6858:  e1500601      cmp	r0, r1, lsl #12
0x3ffe685c:  e0a22002      adc	r2, r2, r2
0x3ffe6860:  20400601      subcs	r0, r0, r1, lsl #12
0x3ffe6864:  e1500581      cmp	r0, r1, lsl #11
0x3ffe6868:  e0a22002      adc	r2, r2, r2
0x3ffe686c:  20400581      subcs	r0, r0, r1, lsl #11
0x3ffe6870:  e1500501      cmp	r0, r1, lsl #10
0x3ffe6874:  e0a22002      adc	r2, r2, r2
0x3ffe6878:  20400501      subcs	r0, r0, r1, lsl #10
0x3ffe687c:  e1500481      cmp	r0, r1, lsl #9
0x3ffe6880:  e0a22002      adc	r2, r2, r2
0x3ffe6884:  20400481      subcs	r0, r0, r1, lsl #9
0x3ffe6888:  e1500401      cmp	r0, r1, lsl #8
0x3ffe688c:  e0a22002      adc	r2, r2, r2
0x3ffe6890:  20400401      subcs	r0, r0, r1, lsl #8
0x3ffe6894:  e1500381      cmp	r0, r1, lsl #7
0x3ffe6898:  e0a22002      adc	r2, r2, r2
0x3ffe689c:  20400381      subcs	r0, r0, r1, lsl #7
0x3ffe68a0:  e1500301      cmp	r0, r1, lsl #6
0x3ffe68a4:  e0a22002      adc	r2, r2, r2
0x3ffe68a8:  20400301      subcs	r0, r0, r1, lsl #6
0x3ffe68ac:  e1500281      cmp	r0, r1, lsl #5
0x3ffe68b0:  e0a22002      adc	r2, r2, r2
0x3ffe68b4:  20400281      subcs	r0, r0, r1, lsl #5
0x3ffe68b8:  e1500201      cmp	r0, r1, lsl #4
0x3ffe68bc:  e0a22002      adc	r2, r2, r2
0x3ffe68c0:  20400201      subcs	r0, r0, r1, lsl #4
0x3ffe68c4:  e1500181      cmp	r0, r1, lsl #3
0x3ffe68c8:  e0a22002      adc	r2, r2, r2
0x3ffe68cc:  20400181      subcs	r0, r0, r1, lsl #3
0x3ffe68d0:  e1500101      cmp	r0, r1, lsl #2
0x3ffe68d4:  e0a22002      adc	r2, r2, r2
0x3ffe68d8:  20400101      subcs	r0, r0, r1, lsl #2
0x3ffe68dc:  e1500081      cmp	r0, r1, lsl #1
0x3ffe68e0:  e0a22002      adc	r2, r2, r2
0x3ffe68e4:  20400081      subcs	r0, r0, r1, lsl #1
0x3ffe68e8:  e1500001      cmp	r0, r1
0x3ffe68ec:  e0a22002      adc	r2, r2, r2
0x3ffe68f0:  20400001      subcs	r0, r0, r1
0x3ffe68f4:  e1a00002      mov	r0, r2
0x3ffe68f8:  e12fff1e      bx	lr

----------------
IN: 
0x3ffe6810:  e1500901      cmp	r0, r1, lsl #18
0x3ffe6814:  e0a22002      adc	r2, r2, r2
0x3ffe6818:  20400901      subcs	r0, r0, r1, lsl #18
0x3ffe681c:  e1500881      cmp	r0, r1, lsl #17
0x3ffe6820:  e0a22002      adc	r2, r2, r2
0x3ffe6824:  20400881      subcs	r0, r0, r1, lsl #17
0x3ffe6828:  e1500801      cmp	r0, r1, lsl #16
0x3ffe682c:  e0a22002      adc	r2, r2, r2
0x3ffe6830:  20400801      subcs	r0, r0, r1, lsl #16
0x3ffe6834:  e1500781      cmp	r0, r1, lsl #15
0x3ffe6838:  e0a22002      adc	r2, r2, r2
0x3ffe683c:  20400781      subcs	r0, r0, r1, lsl #15
0x3ffe6840:  e1500701      cmp	r0, r1, lsl #14
0x3ffe6844:  e0a22002      adc	r2, r2, r2
0x3ffe6848:  20400701      subcs	r0, r0, r1, lsl #14
0x3ffe684c:  e1500681      cmp	r0, r1, lsl #13
0x3ffe6850:  e0a22002      adc	r2, r2, r2
0x3ffe6854:  20400681      subcs	r0, r0, r1, lsl #13
0x3ffe6858:  e1500601      cmp	r0, r1, lsl #12
0x3ffe685c:  e0a22002      adc	r2, r2, r2
0x3ffe6860:  20400601      subcs	r0, r0, r1, lsl #12
0x3ffe6864:  e1500581      cmp	r0, r1, lsl #11
0x3ffe6868:  e0a22002      adc	r2, r2, r2
0x3ffe686c:  20400581      subcs	r0, r0, r1, lsl #11
0x3ffe6870:  e1500501      cmp	r0, r1, lsl #10
0x3ffe6874:  e0a22002      adc	r2, r2, r2
0x3ffe6878:  20400501      subcs	r0, r0, r1, lsl #10
0x3ffe687c:  e1500481      cmp	r0, r1, lsl #9
0x3ffe6880:  e0a22002      adc	r2, r2, r2
0x3ffe6884:  20400481      subcs	r0, r0, r1, lsl #9
0x3ffe6888:  e1500401      cmp	r0, r1, lsl #8
0x3ffe688c:  e0a22002      adc	r2, r2, r2
0x3ffe6890:  20400401      subcs	r0, r0, r1, lsl #8
0x3ffe6894:  e1500381      cmp	r0, r1, lsl #7
0x3ffe6898:  e0a22002      adc	r2, r2, r2
0x3ffe689c:  20400381      subcs	r0, r0, r1, lsl #7
0x3ffe68a0:  e1500301      cmp	r0, r1, lsl #6
0x3ffe68a4:  e0a22002      adc	r2, r2, r2
0x3ffe68a8:  20400301      subcs	r0, r0, r1, lsl #6
0x3ffe68ac:  e1500281      cmp	r0, r1, lsl #5
0x3ffe68b0:  e0a22002      adc	r2, r2, r2
0x3ffe68b4:  20400281      subcs	r0, r0, r1, lsl #5
0x3ffe68b8:  e1500201      cmp	r0, r1, lsl #4
0x3ffe68bc:  e0a22002      adc	r2, r2, r2
0x3ffe68c0:  20400201      subcs	r0, r0, r1, lsl #4
0x3ffe68c4:  e1500181      cmp	r0, r1, lsl #3
0x3ffe68c8:  e0a22002      adc	r2, r2, r2
0x3ffe68cc:  20400181      subcs	r0, r0, r1, lsl #3
0x3ffe68d0:  e1500101      cmp	r0, r1, lsl #2
0x3ffe68d4:  e0a22002      adc	r2, r2, r2
0x3ffe68d8:  20400101      subcs	r0, r0, r1, lsl #2
0x3ffe68dc:  e1500081      cmp	r0, r1, lsl #1
0x3ffe68e0:  e0a22002      adc	r2, r2, r2
0x3ffe68e4:  20400081      subcs	r0, r0, r1, lsl #1
0x3ffe68e8:  e1500001      cmp	r0, r1
0x3ffe68ec:  e0a22002      adc	r2, r2, r2
0x3ffe68f0:  20400001      subcs	r0, r0, r1
0x3ffe68f4:  e1a00002      mov	r0, r2
0x3ffe68f8:  e12fff1e      bx	lr

----------------
IN: 
0x3ffd48b0:  e3520009      cmp	r2, #9	; 0x9
0x3ffd48b4:  9a000016      bls	0x3ffd4914

----------------
IN: 
0x3ffd48b8:  e599222c      ldr	r2, [r9, #556]
0x3ffd48bc:  e1520003      cmp	r2, r3
0x3ffd48c0:  1afffcc8      bne	0x3ffd3be8

----------------
IN: 
0x3ffd48c4:  e51f28a4      ldr	r2, [pc, #-2212]	; 0x3ffd4028
0x3ffd48c8:  e599c234      ldr	ip, [r9, #564]
0x3ffd48cc:  e08f2002      add	r2, pc, r2
0x3ffd48d0:  e59235e4      ldr	r3, [r2, #1508]
0x3ffd48d4:  e50bc048      str	ip, [fp, #-72]
0x3ffd48d8:  e2833001      add	r3, r3, #1	; 0x1
0x3ffd48dc:  e58235e4      str	r3, [r2, #1508]
0x3ffd48e0:  e5992230      ldr	r2, [r9, #560]
0x3ffd48e4:  eafffcdd      b	0x3ffd3c60

----------------
IN: 
0x3ffd3c60:  e35c0000      cmp	ip, #0	; 0x0
0x3ffd3c64:  15dc100c      ldrbne	r1, [ip, #12]
0x3ffd3c68:  1a00006c      bne	0x3ffd3e20

----------------
IN: 
0x3ffe67f8:  e1500a01      cmp	r0, r1, lsl #20
0x3ffe67fc:  e0a22002      adc	r2, r2, r2
0x3ffe6800:  20400a01      subcs	r0, r0, r1, lsl #20
0x3ffe6804:  e1500981      cmp	r0, r1, lsl #19
0x3ffe6808:  e0a22002      adc	r2, r2, r2
0x3ffe680c:  20400981      subcs	r0, r0, r1, lsl #19
0x3ffe6810:  e1500901      cmp	r0, r1, lsl #18
0x3ffe6814:  e0a22002      adc	r2, r2, r2
0x3ffe6818:  20400901      subcs	r0, r0, r1, lsl #18
0x3ffe681c:  e1500881      cmp	r0, r1, lsl #17
0x3ffe6820:  e0a22002      adc	r2, r2, r2
0x3ffe6824:  20400881      subcs	r0, r0, r1, lsl #17
0x3ffe6828:  e1500801      cmp	r0, r1, lsl #16
0x3ffe682c:  e0a22002      adc	r2, r2, r2
0x3ffe6830:  20400801      subcs	r0, r0, r1, lsl #16
0x3ffe6834:  e1500781      cmp	r0, r1, lsl #15
0x3ffe6838:  e0a22002      adc	r2, r2, r2
0x3ffe683c:  20400781      subcs	r0, r0, r1, lsl #15
0x3ffe6840:  e1500701      cmp	r0, r1, lsl #14
0x3ffe6844:  e0a22002      adc	r2, r2, r2
0x3ffe6848:  20400701      subcs	r0, r0, r1, lsl #14
0x3ffe684c:  e1500681      cmp	r0, r1, lsl #13
0x3ffe6850:  e0a22002      adc	r2, r2, r2
0x3ffe6854:  20400681      subcs	r0, r0, r1, lsl #13
0x3ffe6858:  e1500601      cmp	r0, r1, lsl #12
0x3ffe685c:  e0a22002      adc	r2, r2, r2
0x3ffe6860:  20400601      subcs	r0, r0, r1, lsl #12
0x3ffe6864:  e1500581      cmp	r0, r1, lsl #11
0x3ffe6868:  e0a22002      adc	r2, r2, r2
0x3ffe686c:  20400581      subcs	r0, r0, r1, lsl #11
0x3ffe6870:  e1500501      cmp	r0, r1, lsl #10
0x3ffe6874:  e0a22002      adc	r2, r2, r2
0x3ffe6878:  20400501      subcs	r0, r0, r1, lsl #10
0x3ffe687c:  e1500481      cmp	r0, r1, lsl #9
0x3ffe6880:  e0a22002      adc	r2, r2, r2
0x3ffe6884:  20400481      subcs	r0, r0, r1, lsl #9
0x3ffe6888:  e1500401      cmp	r0, r1, lsl #8
0x3ffe688c:  e0a22002      adc	r2, r2, r2
0x3ffe6890:  20400401      subcs	r0, r0, r1, lsl #8
0x3ffe6894:  e1500381      cmp	r0, r1, lsl #7
0x3ffe6898:  e0a22002      adc	r2, r2, r2
0x3ffe689c:  20400381      subcs	r0, r0, r1, lsl #7
0x3ffe68a0:  e1500301      cmp	r0, r1, lsl #6
0x3ffe68a4:  e0a22002      adc	r2, r2, r2
0x3ffe68a8:  20400301      subcs	r0, r0, r1, lsl #6
0x3ffe68ac:  e1500281      cmp	r0, r1, lsl #5
0x3ffe68b0:  e0a22002      adc	r2, r2, r2
0x3ffe68b4:  20400281      subcs	r0, r0, r1, lsl #5
0x3ffe68b8:  e1500201      cmp	r0, r1, lsl #4
0x3ffe68bc:  e0a22002      adc	r2, r2, r2
0x3ffe68c0:  20400201      subcs	r0, r0, r1, lsl #4
0x3ffe68c4:  e1500181      cmp	r0, r1, lsl #3
0x3ffe68c8:  e0a22002      adc	r2, r2, r2
0x3ffe68cc:  20400181      subcs	r0, r0, r1, lsl #3
0x3ffe68d0:  e1500101      cmp	r0, r1, lsl #2
0x3ffe68d4:  e0a22002      adc	r2, r2, r2
0x3ffe68d8:  20400101      subcs	r0, r0, r1, lsl #2
0x3ffe68dc:  e1500081      cmp	r0, r1, lsl #1
0x3ffe68e0:  e0a22002      adc	r2, r2, r2
0x3ffe68e4:  20400081      subcs	r0, r0, r1, lsl #1
0x3ffe68e8:  e1500001      cmp	r0, r1
0x3ffe68ec:  e0a22002      adc	r2, r2, r2
0x3ffe68f0:  20400001      subcs	r0, r0, r1
0x3ffe68f4:  e1a00002      mov	r0, r2
0x3ffe68f8:  e12fff1e      bx	lr

----------------
IN: 
0x3ffe6798:  e1500e01      cmp	r0, r1, lsl #28
0x3ffe679c:  e0a22002      adc	r2, r2, r2
0x3ffe67a0:  20400e01      subcs	r0, r0, r1, lsl #28
0x3ffe67a4:  e1500d81      cmp	r0, r1, lsl #27
0x3ffe67a8:  e0a22002      adc	r2, r2, r2
0x3ffe67ac:  20400d81      subcs	r0, r0, r1, lsl #27
0x3ffe67b0:  e1500d01      cmp	r0, r1, lsl #26
0x3ffe67b4:  e0a22002      adc	r2, r2, r2
0x3ffe67b8:  20400d01      subcs	r0, r0, r1, lsl #26
0x3ffe67bc:  e1500c81      cmp	r0, r1, lsl #25
0x3ffe67c0:  e0a22002      adc	r2, r2, r2
0x3ffe67c4:  20400c81      subcs	r0, r0, r1, lsl #25
0x3ffe67c8:  e1500c01      cmp	r0, r1, lsl #24
0x3ffe67cc:  e0a22002      adc	r2, r2, r2
0x3ffe67d0:  20400c01      subcs	r0, r0, r1, lsl #24
0x3ffe67d4:  e1500b81      cmp	r0, r1, lsl #23
0x3ffe67d8:  e0a22002      adc	r2, r2, r2
0x3ffe67dc:  20400b81      subcs	r0, r0, r1, lsl #23
0x3ffe67e0:  e1500b01      cmp	r0, r1, lsl #22
0x3ffe67e4:  e0a22002      adc	r2, r2, r2
0x3ffe67e8:  20400b01      subcs	r0, r0, r1, lsl #22
0x3ffe67ec:  e1500a81      cmp	r0, r1, lsl #21
0x3ffe67f0:  e0a22002      adc	r2, r2, r2
0x3ffe67f4:  20400a81      subcs	r0, r0, r1, lsl #21
0x3ffe67f8:  e1500a01      cmp	r0, r1, lsl #20
0x3ffe67fc:  e0a22002      adc	r2, r2, r2
0x3ffe6800:  20400a01      subcs	r0, r0, r1, lsl #20
0x3ffe6804:  e1500981      cmp	r0, r1, lsl #19
0x3ffe6808:  e0a22002      adc	r2, r2, r2
0x3ffe680c:  20400981      subcs	r0, r0, r1, lsl #19
0x3ffe6810:  e1500901      cmp	r0, r1, lsl #18
0x3ffe6814:  e0a22002      adc	r2, r2, r2
0x3ffe6818:  20400901      subcs	r0, r0, r1, lsl #18
0x3ffe681c:  e1500881      cmp	r0, r1, lsl #17
0x3ffe6820:  e0a22002      adc	r2, r2, r2
0x3ffe6824:  20400881      subcs	r0, r0, r1, lsl #17
0x3ffe6828:  e1500801      cmp	r0, r1, lsl #16
0x3ffe682c:  e0a22002      adc	r2, r2, r2
0x3ffe6830:  20400801      subcs	r0, r0, r1, lsl #16
0x3ffe6834:  e1500781      cmp	r0, r1, lsl #15
0x3ffe6838:  e0a22002      adc	r2, r2, r2
0x3ffe683c:  20400781      subcs	r0, r0, r1, lsl #15
0x3ffe6840:  e1500701      cmp	r0, r1, lsl #14
0x3ffe6844:  e0a22002      adc	r2, r2, r2
0x3ffe6848:  20400701      subcs	r0, r0, r1, lsl #14
0x3ffe684c:  e1500681      cmp	r0, r1, lsl #13
0x3ffe6850:  e0a22002      adc	r2, r2, r2
0x3ffe6854:  20400681      subcs	r0, r0, r1, lsl #13
0x3ffe6858:  e1500601      cmp	r0, r1, lsl #12
0x3ffe685c:  e0a22002      adc	r2, r2, r2
0x3ffe6860:  20400601      subcs	r0, r0, r1, lsl #12
0x3ffe6864:  e1500581      cmp	r0, r1, lsl #11
0x3ffe6868:  e0a22002      adc	r2, r2, r2
0x3ffe686c:  20400581      subcs	r0, r0, r1, lsl #11
0x3ffe6870:  e1500501      cmp	r0, r1, lsl #10
0x3ffe6874:  e0a22002      adc	r2, r2, r2
0x3ffe6878:  20400501      subcs	r0, r0, r1, lsl #10
0x3ffe687c:  e1500481      cmp	r0, r1, lsl #9
0x3ffe6880:  e0a22002      adc	r2, r2, r2
0x3ffe6884:  20400481      subcs	r0, r0, r1, lsl #9
0x3ffe6888:  e1500401      cmp	r0, r1, lsl #8
0x3ffe688c:  e0a22002      adc	r2, r2, r2
0x3ffe6890:  20400401      subcs	r0, r0, r1, lsl #8
0x3ffe6894:  e1500381      cmp	r0, r1, lsl #7
0x3ffe6898:  e0a22002      adc	r2, r2, r2
0x3ffe689c:  20400381      subcs	r0, r0, r1, lsl #7
0x3ffe68a0:  e1500301      cmp	r0, r1, lsl #6
0x3ffe68a4:  e0a22002      adc	r2, r2, r2
0x3ffe68a8:  20400301      subcs	r0, r0, r1, lsl #6
0x3ffe68ac:  e1500281      cmp	r0, r1, lsl #5
0x3ffe68b0:  e0a22002      adc	r2, r2, r2
0x3ffe68b4:  20400281      subcs	r0, r0, r1, lsl #5
0x3ffe68b8:  e1500201      cmp	r0, r1, lsl #4
0x3ffe68bc:  e0a22002      adc	r2, r2, r2
0x3ffe68c0:  20400201      subcs	r0, r0, r1, lsl #4
0x3ffe68c4:  e1500181      cmp	r0, r1, lsl #3
0x3ffe68c8:  e0a22002      adc	r2, r2, r2
0x3ffe68cc:  20400181      subcs	r0, r0, r1, lsl #3
0x3ffe68d0:  e1500101      cmp	r0, r1, lsl #2
0x3ffe68d4:  e0a22002      adc	r2, r2, r2
0x3ffe68d8:  20400101      subcs	r0, r0, r1, lsl #2
0x3ffe68dc:  e1500081      cmp	r0, r1, lsl #1
0x3ffe68e0:  e0a22002      adc	r2, r2, r2
0x3ffe68e4:  20400081      subcs	r0, r0, r1, lsl #1
0x3ffe68e8:  e1500001      cmp	r0, r1
0x3ffe68ec:  e0a22002      adc	r2, r2, r2
0x3ffe68f0:  20400001      subcs	r0, r0, r1
0x3ffe68f4:  e1a00002      mov	r0, r2
0x3ffe68f8:  e12fff1e      bx	lr

----------------
IN: 
0x3ffe6780:  e1500f01      cmp	r0, r1, lsl #30
0x3ffe6784:  e0a22002      adc	r2, r2, r2
0x3ffe6788:  20400f01      subcs	r0, r0, r1, lsl #30
0x3ffe678c:  e1500e81      cmp	r0, r1, lsl #29
0x3ffe6790:  e0a22002      adc	r2, r2, r2
0x3ffe6794:  20400e81      subcs	r0, r0, r1, lsl #29
0x3ffe6798:  e1500e01      cmp	r0, r1, lsl #28
0x3ffe679c:  e0a22002      adc	r2, r2, r2
0x3ffe67a0:  20400e01      subcs	r0, r0, r1, lsl #28
0x3ffe67a4:  e1500d81      cmp	r0, r1, lsl #27
0x3ffe67a8:  e0a22002      adc	r2, r2, r2
0x3ffe67ac:  20400d81      subcs	r0, r0, r1, lsl #27
0x3ffe67b0:  e1500d01      cmp	r0, r1, lsl #26
0x3ffe67b4:  e0a22002      adc	r2, r2, r2
0x3ffe67b8:  20400d01      subcs	r0, r0, r1, lsl #26
0x3ffe67bc:  e1500c81      cmp	r0, r1, lsl #25
0x3ffe67c0:  e0a22002      adc	r2, r2, r2
0x3ffe67c4:  20400c81      subcs	r0, r0, r1, lsl #25
0x3ffe67c8:  e1500c01      cmp	r0, r1, lsl #24
0x3ffe67cc:  e0a22002      adc	r2, r2, r2
0x3ffe67d0:  20400c01      subcs	r0, r0, r1, lsl #24
0x3ffe67d4:  e1500b81      cmp	r0, r1, lsl #23
0x3ffe67d8:  e0a22002      adc	r2, r2, r2
0x3ffe67dc:  20400b81      subcs	r0, r0, r1, lsl #23
0x3ffe67e0:  e1500b01      cmp	r0, r1, lsl #22
0x3ffe67e4:  e0a22002      adc	r2, r2, r2
0x3ffe67e8:  20400b01      subcs	r0, r0, r1, lsl #22
0x3ffe67ec:  e1500a81      cmp	r0, r1, lsl #21
0x3ffe67f0:  e0a22002      adc	r2, r2, r2
0x3ffe67f4:  20400a81      subcs	r0, r0, r1, lsl #21
0x3ffe67f8:  e1500a01      cmp	r0, r1, lsl #20
0x3ffe67fc:  e0a22002      adc	r2, r2, r2
0x3ffe6800:  20400a01      subcs	r0, r0, r1, lsl #20
0x3ffe6804:  e1500981      cmp	r0, r1, lsl #19
0x3ffe6808:  e0a22002      adc	r2, r2, r2
0x3ffe680c:  20400981      subcs	r0, r0, r1, lsl #19
0x3ffe6810:  e1500901      cmp	r0, r1, lsl #18
0x3ffe6814:  e0a22002      adc	r2, r2, r2
0x3ffe6818:  20400901      subcs	r0, r0, r1, lsl #18
0x3ffe681c:  e1500881      cmp	r0, r1, lsl #17
0x3ffe6820:  e0a22002      adc	r2, r2, r2
0x3ffe6824:  20400881      subcs	r0, r0, r1, lsl #17
0x3ffe6828:  e1500801      cmp	r0, r1, lsl #16
0x3ffe682c:  e0a22002      adc	r2, r2, r2
0x3ffe6830:  20400801      subcs	r0, r0, r1, lsl #16
0x3ffe6834:  e1500781      cmp	r0, r1, lsl #15
0x3ffe6838:  e0a22002      adc	r2, r2, r2
0x3ffe683c:  20400781      subcs	r0, r0, r1, lsl #15
0x3ffe6840:  e1500701      cmp	r0, r1, lsl #14
0x3ffe6844:  e0a22002      adc	r2, r2, r2
0x3ffe6848:  20400701      subcs	r0, r0, r1, lsl #14
0x3ffe684c:  e1500681      cmp	r0, r1, lsl #13
0x3ffe6850:  e0a22002      adc	r2, r2, r2
0x3ffe6854:  20400681      subcs	r0, r0, r1, lsl #13
0x3ffe6858:  e1500601      cmp	r0, r1, lsl #12
0x3ffe685c:  e0a22002      adc	r2, r2, r2
0x3ffe6860:  20400601      subcs	r0, r0, r1, lsl #12
0x3ffe6864:  e1500581      cmp	r0, r1, lsl #11
0x3ffe6868:  e0a22002      adc	r2, r2, r2
0x3ffe686c:  20400581      subcs	r0, r0, r1, lsl #11
0x3ffe6870:  e1500501      cmp	r0, r1, lsl #10
0x3ffe6874:  e0a22002      adc	r2, r2, r2
0x3ffe6878:  20400501      subcs	r0, r0, r1, lsl #10
0x3ffe687c:  e1500481      cmp	r0, r1, lsl #9
0x3ffe6880:  e0a22002      adc	r2, r2, r2
0x3ffe6884:  20400481      subcs	r0, r0, r1, lsl #9
0x3ffe6888:  e1500401      cmp	r0, r1, lsl #8
0x3ffe688c:  e0a22002      adc	r2, r2, r2
0x3ffe6890:  20400401      subcs	r0, r0, r1, lsl #8
0x3ffe6894:  e1500381      cmp	r0, r1, lsl #7
0x3ffe6898:  e0a22002      adc	r2, r2, r2
0x3ffe689c:  20400381      subcs	r0, r0, r1, lsl #7
0x3ffe68a0:  e1500301      cmp	r0, r1, lsl #6
0x3ffe68a4:  e0a22002      adc	r2, r2, r2
0x3ffe68a8:  20400301      subcs	r0, r0, r1, lsl #6
0x3ffe68ac:  e1500281      cmp	r0, r1, lsl #5
0x3ffe68b0:  e0a22002      adc	r2, r2, r2
0x3ffe68b4:  20400281      subcs	r0, r0, r1, lsl #5
0x3ffe68b8:  e1500201      cmp	r0, r1, lsl #4
0x3ffe68bc:  e0a22002      adc	r2, r2, r2
0x3ffe68c0:  20400201      subcs	r0, r0, r1, lsl #4
0x3ffe68c4:  e1500181      cmp	r0, r1, lsl #3
0x3ffe68c8:  e0a22002      adc	r2, r2, r2
0x3ffe68cc:  20400181      subcs	r0, r0, r1, lsl #3
0x3ffe68d0:  e1500101      cmp	r0, r1, lsl #2
0x3ffe68d4:  e0a22002      adc	r2, r2, r2
0x3ffe68d8:  20400101      subcs	r0, r0, r1, lsl #2
0x3ffe68dc:  e1500081      cmp	r0, r1, lsl #1
0x3ffe68e0:  e0a22002      adc	r2, r2, r2
0x3ffe68e4:  20400081      subcs	r0, r0, r1, lsl #1
0x3ffe68e8:  e1500001      cmp	r0, r1
0x3ffe68ec:  e0a22002      adc	r2, r2, r2
0x3ffe68f0:  20400001      subcs	r0, r0, r1
0x3ffe68f4:  e1a00002      mov	r0, r2
0x3ffe68f8:  e12fff1e      bx	lr

----------------
IN: 
0x3ffd3d00:  eafffd6b      b	0x3ffd32b4

----------------
IN: 
0x3ffd32b4:  e5997000      ldr	r7, [r9]
0x3ffd32b8:  e51b1060      ldr	r1, [fp, #-96]
0x3ffd32bc:  e51b3070      ldr	r3, [fp, #-112]
0x3ffd32c0:  e1510003      cmp	r1, r3
0x3ffd32c4:  1a00044e      bne	0x3ffd4404

----------------
IN: 
0x3ffd4404:  e5913010      ldr	r3, [r1, #16]
0x3ffd4408:  e591e014      ldr	lr, [r1, #20]
0x3ffd440c:  e591201c      ldr	r2, [r1, #28]
0x3ffd4410:  e2811010      add	r1, r1, #16	; 0x10
0x3ffd4414:  e50b1060      str	r1, [fp, #-96]
0x3ffd4418:  eafffb43      b	0x3ffd312c

----------------
IN: 
0x3ffd312c:  e3520000      cmp	r2, #0	; 0x0
0x3ffd3130:  e51b2060      ldr	r2, [fp, #-96]
0x3ffd3134:  e08e8003      add	r8, lr, r3
0x3ffd3138:  e1a05003      mov	r5, r3
0x3ffd313c:  e5924008      ldr	r4, [r2, #8]
0x3ffd3140:  e50b8050      str	r8, [fp, #-80]
0x3ffd3144:  0a00025f      beq	0x3ffd3ac8

----------------
IN: 
0x3ffd3148:  e1580003      cmp	r8, r3
0x3ffd314c:  9a000059      bls	0x3ffd32b8

----------------
IN: 
0x3ffd3150:  e59f3e40      ldr	r3, [pc, #3648]	; 0x3ffd3f98
0x3ffd3154:  e59f6f00      ldr	r6, [pc, #3840]	; 0x3ffd405c
0x3ffd3158:  e08f3003      add	r3, pc, r3
0x3ffd315c:  e50b3054      str	r3, [fp, #-84]
0x3ffd3160:  e59f3e34      ldr	r3, [pc, #3636]	; 0x3ffd3f9c
0x3ffd3164:  e08f3003      add	r3, pc, r3
0x3ffd3168:  e50b3050      str	r3, [fp, #-80]
0x3ffd316c:  ea000007      b	0x3ffd3190

----------------
IN: 
0x3ffd3190:  e5953004      ldr	r3, [r5, #4]
0x3ffd3194:  e5954000      ldr	r4, [r5]
0x3ffd3198:  e20310ff      and	r1, r3, #255	; 0xff
0x3ffd319c:  e3510016      cmp	r1, #22	; 0x16
0x3ffd31a0:  e0874004      add	r4, r7, r4
0x3ffd31a4:  0afffff1      beq	0x3ffd3170

----------------
IN: 
0x3ffd3170:  e5993220      ldr	r3, [r9, #544]
0x3ffd3174:  e2855008      add	r5, r5, #8	; 0x8
0x3ffd3178:  e3530000      cmp	r3, #0	; 0x0
0x3ffd317c:  05943000      ldreq	r3, [r4]
0x3ffd3180:  00833007      addeq	r3, r3, r7
0x3ffd3184:  e1580005      cmp	r8, r5
0x3ffd3188:  e5843000      str	r3, [r4]
0x3ffd318c:  9a000048      bls	0x3ffd32b4

----------------
IN: 
0x3ffd32c8:  e3a02020      mov	r2, #32	; 0x20
0x3ffd32cc:  e3a01000      mov	r1, #0	; 0x0
0x3ffd32d0:  e51b0074      ldr	r0, [fp, #-116]
0x3ffd32d4:  eb004b81      bl	0x3ffe60e0

----------------
IN: 
0x3ffd32d8:  e599103c      ldr	r1, [r9, #60]
0x3ffd32dc:  e5d9219a      ldrb	r2, [r9, #410]
0x3ffd32e0:  e3510000      cmp	r1, #0	; 0x0
0x3ffd32e4:  e2022020      and	r2, r2, #32	; 0x20
0x3ffd32e8:  0a000722      beq	0x3ffd4f78

----------------
IN: 
0x3ffd4f78:  e1a06001      mov	r6, r1
0x3ffd4f7c:  e1a03001      mov	r3, r1
0x3ffd4f80:  eafff8e3      b	0x3ffd3314

----------------
IN: 
0x3ffd3314:  e5990070      ldr	r0, [r9, #112]
0x3ffd3318:  e3500000      cmp	r0, #0	; 0x0
0x3ffd331c:  0a000002      beq	0x3ffd332c

----------------
IN: 
0x3ffd3320:  e5900004      ldr	r0, [r0, #4]
0x3ffd3324:  e3500007      cmp	r0, #7	; 0x7
0x3ffd3328:  0a000755      beq	0x3ffd5084

----------------
IN: 
0x3ffd332c:  e51b1074      ldr	r1, [fp, #-116]
0x3ffd3330:  e50b1068      str	r1, [fp, #-104]
0x3ffd3334:  e59f1c68      ldr	r1, [pc, #3176]	; 0x3ffd3fa4
0x3ffd3338:  e08f1001      add	r1, pc, r1
0x3ffd333c:  e2811e5f      add	r1, r1, #1520	; 0x5f0
0x3ffd3340:  e50b1074      str	r1, [fp, #-116]
0x3ffd3344:  e59f1c5c      ldr	r1, [pc, #3164]	; 0x3ffd3fa8
0x3ffd3348:  e08f1001      add	r1, pc, r1
0x3ffd334c:  e50b1060      str	r1, [fp, #-96]
0x3ffd3350:  e59f1c54      ldr	r1, [pc, #3156]	; 0x3ffd3fac
0x3ffd3354:  e08f1001      add	r1, pc, r1
0x3ffd3358:  e50b1084      str	r1, [fp, #-132]
0x3ffd335c:  e3520000      cmp	r2, #0	; 0x0
0x3ffd3360:  e0832006      add	r2, r3, r6
0x3ffd3364:  e50b2050      str	r2, [fp, #-80]
0x3ffd3368:  e5992038      ldr	r2, [r9, #56]
0x3ffd336c:  e51b0068      ldr	r0, [fp, #-104]
0x3ffd3370:  e5921004      ldr	r1, [r2, #4]
0x3ffd3374:  e5904008      ldr	r4, [r0, #8]
0x3ffd3378:  e50b1054      str	r1, [fp, #-84]
0x3ffd337c:  10811007      addne	r1, r1, r7
0x3ffd3380:  150b1054      strne	r1, [fp, #-84]
0x3ffd3384:  e51b1074      ldr	r1, [fp, #-116]
0x3ffd3388:  e0844084      add	r4, r4, r4, lsl #1
0x3ffd338c:  e1590001      cmp	r9, r1
0x3ffd3390:  e1a02003      mov	r2, r3
0x3ffd3394:  e0834104      add	r4, r3, r4, lsl #2
0x3ffd3398:  0a000004      beq	0x3ffd33b0

----------------
IN: 
0x3ffd339c:  e3570000      cmp	r7, #0	; 0x0
0x3ffd33a0:  1a000390      bne	0x3ffd41e8

----------------
IN: 
0x3ffd41e8:  e1530004      cmp	r3, r4
0x3ffd41ec:  2afffc6f      bcs	0x3ffd33b0

----------------
IN: 
0x3ffd33b0:  e59930e8      ldr	r3, [r9, #232]
0x3ffd33b4:  e3530000      cmp	r3, #0	; 0x0
0x3ffd33b8:  0a000396      beq	0x3ffd4218

----------------
IN: 
0x3ffd33bc:  e5932004      ldr	r2, [r3, #4]
0x3ffd33c0:  e5d9319a      ldrb	r3, [r9, #410]
0x3ffd33c4:  e50b2058      str	r2, [fp, #-88]
0x3ffd33c8:  e3130020      tst	r3, #32	; 0x20
0x3ffd33cc:  15993000      ldrne	r3, [r9]
0x3ffd33d0:  10823003      addne	r3, r2, r3
0x3ffd33d4:  150b3058      strne	r3, [fp, #-88]
0x3ffd33d8:  e51b3050      ldr	r3, [fp, #-80]
0x3ffd33dc:  e1530004      cmp	r3, r4
0x3ffd33e0:  9a0000bf      bls	0x3ffd36e4

----------------
IN: 
0x3ffd36e4:  e51b3068      ldr	r3, [fp, #-104]
0x3ffd36e8:  e51b2070      ldr	r2, [fp, #-112]
0x3ffd36ec:  e1530002      cmp	r3, r2
0x3ffd36f0:  0affffa5      beq	0x3ffd358c

----------------
IN: 
0x3ffd36f4:  e51b1068      ldr	r1, [fp, #-104]
0x3ffd36f8:  e5d9219a      ldrb	r2, [r9, #410]
0x3ffd36fc:  e5913010      ldr	r3, [r1, #16]
0x3ffd3700:  e5916014      ldr	r6, [r1, #20]
0x3ffd3704:  e2811010      add	r1, r1, #16	; 0x10
0x3ffd3708:  e5997000      ldr	r7, [r9]
0x3ffd370c:  e2022020      and	r2, r2, #32	; 0x20
0x3ffd3710:  e50b1068      str	r1, [fp, #-104]
0x3ffd3714:  eaffff10      b	0x3ffd335c

----------------
IN: 
0x3ffd335c:  e3520000      cmp	r2, #0	; 0x0
0x3ffd3360:  e0832006      add	r2, r3, r6
0x3ffd3364:  e50b2050      str	r2, [fp, #-80]
0x3ffd3368:  e5992038      ldr	r2, [r9, #56]
0x3ffd336c:  e51b0068      ldr	r0, [fp, #-104]
0x3ffd3370:  e5921004      ldr	r1, [r2, #4]
0x3ffd3374:  e5904008      ldr	r4, [r0, #8]
0x3ffd3378:  e50b1054      str	r1, [fp, #-84]
0x3ffd337c:  10811007      addne	r1, r1, r7
0x3ffd3380:  150b1054      strne	r1, [fp, #-84]
0x3ffd3384:  e51b1074      ldr	r1, [fp, #-116]
0x3ffd3388:  e0844084      add	r4, r4, r4, lsl #1
0x3ffd338c:  e1590001      cmp	r9, r1
0x3ffd3390:  e1a02003      mov	r2, r3
0x3ffd3394:  e0834104      add	r4, r3, r4, lsl #2
0x3ffd3398:  0a000004      beq	0x3ffd33b0

----------------
IN: 
0x3ffd358c:  e51b3078      ldr	r3, [fp, #-120]
0x3ffd3590:  e51b206c      ldr	r2, [fp, #-108]
0x3ffd3594:  e3520000      cmp	r2, #0	; 0x0
0x3ffd3598:  13833001      orrne	r3, r3, #1	; 0x1
0x3ffd359c:  e20330ff      and	r3, r3, #255	; 0xff
0x3ffd35a0:  e3530000      cmp	r3, #0	; 0x0
0x3ffd35a4:  0a000012      beq	0x3ffd35f4

----------------
IN: 
0x3ffd35f4:  e5d93198      ldrb	r3, [r9, #408]
0x3ffd35f8:  e51b207c      ldr	r2, [fp, #-124]
0x3ffd35fc:  e3833004      orr	r3, r3, #4	; 0x4
0x3ffd3600:  e3520000      cmp	r2, #0	; 0x0
0x3ffd3604:  11a04002      movne	r4, r2
0x3ffd3608:  159f79a8      ldrne	r7, [pc, #2472]	; 0x3ffd3fb8
0x3ffd360c:  e5c93198      strb	r3, [r9, #408]
0x3ffd3610:  1a0004e0      bne	0x3ffd4998

----------------
IN: 
0x3ffd3614:  e599325c      ldr	r3, [r9, #604]
0x3ffd3618:  e3530000      cmp	r3, #0	; 0x0
0x3ffd361c:  1a0004b8      bne	0x3ffd4904

----------------
IN: 
0x3ffd4904:  e1a00009      mov	r0, r9
0x3ffd4908:  ebfff962      bl	0x3ffd2e98

----------------
IN: 
0x3ffd2e98:  e92d4010      push	{r4, lr}
0x3ffd2e9c:  e1a04000      mov	r4, r0
0x3ffd2ea0:  e59f3060      ldr	r3, [pc, #96]	; 0x3ffd2f08
0x3ffd2ea4:  e594125c      ldr	r1, [r4, #604]
0x3ffd2ea8:  e08f3003      add	r3, pc, r3
0x3ffd2eac:  e5932010      ldr	r2, [r3, #16]
0x3ffd2eb0:  e5903000      ldr	r3, [r0]
0x3ffd2eb4:  e5900258      ldr	r0, [r0, #600]
0x3ffd2eb8:  e2622000      rsb	r2, r2, #0	; 0x0
0x3ffd2ebc:  e0833000      add	r3, r3, r0
0x3ffd2ec0:  e0831001      add	r1, r3, r1
0x3ffd2ec4:  e0030002      and	r0, r3, r2
0x3ffd2ec8:  e0011002      and	r1, r1, r2
0x3ffd2ecc:  e1500001      cmp	r0, r1
0x3ffd2ed0:  08bd8010      popeq	{r4, pc}

----------------
IN: 
0x3ffd2ed4:  e3a02001      mov	r2, #1	; 0x1
0x3ffd2ed8:  e0411000      sub	r1, r1, r0
0x3ffd2edc:  eb0047e7      bl	0x3ffe4e80

----------------
IN: 
0x3ffd2ee0:  e3500000      cmp	r0, #0	; 0x0
0x3ffd2ee4:  a8bd8010      popge	{r4, pc}

----------------
IN: 
0x3ffd490c:  e24bd020      sub	sp, fp, #32	; 0x20
0x3ffd4910:  e8bd8ff0      pop	{r4, r5, r6, r7, r8, r9, sl, fp, pc}

----------------
IN: 
0x3ffe1718:  e5d83004      ldrb	r3, [r8, #4]
0x3ffe171c:  e3530000      cmp	r3, #0	; 0x0
0x3ffe1720:  0affffe4      beq	0x3ffe16b8

----------------
IN: 
0x3ffe1724:  e1a00009      mov	r0, r9
0x3ffe1728:  e3a01001      mov	r1, #1	; 0x1
0x3ffe172c:  ebffd7f3      bl	0x3ffd7700

----------------
IN: 
0x3ffd7700:  e59f30fc      ldr	r3, [pc, #252]	; 0x3ffd7804
0x3ffd7704:  e92d41f0      push	{r4, r5, r6, r7, r8, lr}
0x3ffd7708:  e08f3003      add	r3, pc, r3
0x3ffd770c:  e1a06000      mov	r6, r0
0x3ffd7710:  e1a08001      mov	r8, r1
0x3ffd7714:  e59358e4      ldr	r5, [r3, #2276]
0x3ffd7718:  e5904250      ldr	r4, [r0, #592]
0x3ffd771c:  ea000004      b	0x3ffd7734

----------------
IN: 
0x3ffd7734:  e5953000      ldr	r3, [r5]
0x3ffd7738:  e1530004      cmp	r3, r4
0x3ffd773c:  9afffff7      bls	0x3ffd7720

----------------
IN: 
0x3ffd7740:  e3580000      cmp	r8, #0	; 0x0
0x3ffd7744:  08bd81f0      popeq	{r4, r5, r6, r7, r8, pc}

----------------
IN: 
0x3ffd7748:  e59f30b8      ldr	r3, [pc, #184]	; 0x3ffd7808
0x3ffd774c:  e0854184      add	r4, r5, r4, lsl #3
0x3ffd7750:  e08f3003      add	r3, pc, r3
0x3ffd7754:  e59338f8      ldr	r3, [r3, #2296]
0x3ffd7758:  e584600c      str	r6, [r4, #12]
0x3ffd775c:  e2833001      add	r3, r3, #1	; 0x1
0x3ffd7760:  e5843008      str	r3, [r4, #8]
0x3ffd7764:  e8bd81f0      pop	{r4, r5, r6, r7, r8, pc}

----------------
IN: 
0x3ffe1730:  e2544001      subs	r4, r4, #1	; 0x1
0x3ffe1734:  2affffe1      bcs	0x3ffe16c0

----------------
IN: 
0x3ffd3b00:  e59930e8      ldr	r3, [r9, #232]
0x3ffd3b04:  e3530000      cmp	r3, #0	; 0x0
0x3ffd3b08:  0a0003ce      beq	0x3ffd4a48

----------------
IN: 
0x3ffcdbb8:  e3a00000      mov	r0, #0	; 0x0
0x3ffcdbbc:  e28dd064      add	sp, sp, #100	; 0x64
0x3ffcdbc0:  e8bd8ff0      pop	{r4, r5, r6, r7, r8, r9, sl, fp, pc}

----------------
IN: 
0x3ffce568:  e5b53004      ldr	r3, [r5, #4]!
0x3ffce56c:  e3530000      cmp	r3, #0	; 0x0
0x3ffce570:  0a000011      beq	0x3ffce5bc

----------------
IN: 
0x3ffce780:  e3530000      cmp	r3, #0	; 0x0
0x3ffce784:  0a000003      beq	0x3ffce798

----------------
IN: 
0x3ffce788:  e5d3300c      ldrb	r3, [r3, #12]
0x3ffce78c:  e1a03223      lsr	r3, r3, #4
0x3ffce790:  e3530002      cmp	r3, #2	; 0x2
0x3ffce794:  0a000022      beq	0x3ffce824

----------------
IN: 
0x3ffce824:  e3a05000      mov	r5, #0	; 0x0
0x3ffce828:  e58d5020      str	r5, [sp, #32]
0x3ffce82c:  e59d0020      ldr	r0, [sp, #32]
0x3ffce830:  e5895000      str	r5, [r9]
0x3ffce834:  e28dd07c      add	sp, sp, #124	; 0x7c
0x3ffce838:  e8bd8ff0      pop	{r4, r5, r6, r7, r8, r9, sl, fp, pc}

----------------
IN: 
0x3ffd3c6c:  e35a0016      cmp	sl, #22	; 0x16
0x3ffd3c70:  8a00005a      bhi	0x3ffd3de0

----------------
IN: 
0x3ffd3c74:  e24a3001      sub	r3, sl, #1	; 0x1
0x3ffd3c78:  e3530015      cmp	r3, #21	; 0x15
0x3ffd3c7c:  908ff103      addls	pc, pc, r3, lsl #2

----------------
IN: 
0x3ffd3cd4:  ea000000      b	0x3ffd3cdc

----------------
IN: 
0x3ffd3cdc:  e3a03000      mov	r3, #0	; 0x0
0x3ffd3ce0:  e5883000      str	r3, [r8]
0x3ffd3ce4:  e5d43004      ldrb	r3, [r4, #4]
0x3ffd3ce8:  e3530016      cmp	r3, #22	; 0x16
0x3ffd3cec:  0a00000b      beq	0x3ffd3d20

----------------
IN: 
0x3ffcd8c0:  e5d43198      ldrb	r3, [r4, #408]
0x3ffcd8c4:  e3130003      tst	r3, #3	; 0x3
0x3ffcd8c8:  0afffff1      beq	0x3ffcd894

----------------
IN: 
0x3ffd3eac:  ea000020      b	0x3ffd3f34

----------------
IN: 
0x3ffd3f34:  e51b2048      ldr	r2, [fp, #-72]
0x3ffd3f38:  e3520000      cmp	r2, #0	; 0x0
0x3ffd3f3c:  0affff68      beq	0x3ffd3ce4

----------------
IN: 
0x3ffd3f40:  e5922008      ldr	r2, [r2, #8]
0x3ffd3f44:  e5951008      ldr	r1, [r5, #8]
0x3ffd3f48:  e1520001      cmp	r2, r1
0x3ffd3f4c:  8a00006a      bhi	0x3ffd40fc

----------------
IN: 
0x3ffd3f50:  e59f0094      ldr	r0, [pc, #148]	; 0x3ffd3fec
0x3ffd3f54:  e08f0000      add	r0, pc, r0
0x3ffd3f58:  e5900028      ldr	r0, [r0, #40]
0x3ffd3f5c:  e3500000      cmp	r0, #0	; 0x0
0x3ffd3f60:  11520001      cmpne	r2, r1
0x3ffd3f64:  3a000064      bcc	0x3ffd40fc

----------------
IN: 
0x3ffd3f68:  e1510002      cmp	r1, r2
0x3ffd3f6c:  31a02001      movcc	r2, r1
0x3ffd3f70:  e1a00008      mov	r0, r8
0x3ffd3f74:  e1a01003      mov	r1, r3
0x3ffd3f78:  eb004884      bl	0x3ffe6190

----------------
IN: 
0x3ffd3f7c:  e5d43004      ldrb	r3, [r4, #4]
0x3ffd3f80:  eaffff58      b	0x3ffd3ce8

----------------
IN: 
0x3ffd33a4:  e5991120      ldr	r1, [r9, #288]
0x3ffd33a8:  e3510000      cmp	r1, #0	; 0x0
0x3ffd33ac:  0a00038d      beq	0x3ffd41e8

----------------
IN: 
0x3ffe1738:  e59f3b18      ldr	r3, [pc, #2840]	; 0x3ffe2258
0x3ffe173c:  e08f3003      add	r3, pc, r3
0x3ffe1740:  e59345dc      ldr	r4, [r3, #1500]
0x3ffe1744:  e3540000      cmp	r4, #0	; 0x0
0x3ffe1748:  1a00051d      bne	0x3ffe2bc4

----------------
IN: 
0x3ffe174c:  e51b31d4      ldr	r3, [fp, #-468]
0x3ffe1750:  e3530000      cmp	r3, #0	; 0x0
0x3ffe1754:  1a00003a      bne	0x3ffe1844

----------------
IN: 
0x3ffe1758:  e59f3afc      ldr	r3, [pc, #2812]	; 0x3ffe225c
0x3ffe175c:  e08f3003      add	r3, pc, r3
0x3ffe1760:  e59338e0      ldr	r3, [r3, #2272]
0x3ffe1764:  e3530000      cmp	r3, #0	; 0x0
0x3ffe1768:  0a000035      beq	0x3ffe1844

----------------
IN: 
0x3ffe176c:  e59f2aec      ldr	r2, [pc, #2796]	; 0x3ffe2260
0x3ffe1770:  e08f2002      add	r2, pc, r2
0x3ffe1774:  e59238f8      ldr	r3, [r2, #2296]
0x3ffe1778:  e2833001      add	r3, r3, #1	; 0x1
0x3ffe177c:  e58238f8      str	r3, [r2, #2296]
0x3ffe1780:  e51b51cc      ldr	r5, [fp, #-460]
0x3ffe1784:  e3a01000      mov	r1, #0	; 0x0
0x3ffe1788:  e1a00005      mov	r0, r5
0x3ffe178c:  ebffd600      bl	0x3ffd6f94

----------------
IN: 
0x3ffd6f94:  e92d4ff0      push	{r4, r5, r6, r7, r8, r9, sl, fp, lr}
0x3ffd6f98:  e2502000      subs	r2, r0, #0	; 0x0
0x3ffd6f9c:  e24dd01c      sub	sp, sp, #28	; 0x1c
0x3ffd6fa0:  e58d2008      str	r2, [sp, #8]
0x3ffd6fa4:  e58d100c      str	r1, [sp, #12]
0x3ffd6fa8:  0a00005d      beq	0x3ffd7124

----------------
IN: 
0x3ffd6fac:  e59f4240      ldr	r4, [pc, #576]	; 0x3ffd71f4
0x3ffd6fb0:  e59f3240      ldr	r3, [pc, #576]	; 0x3ffd71f8
0x3ffd6fb4:  e08f4004      add	r4, pc, r4
0x3ffd6fb8:  e5929000      ldr	r9, [r2]
0x3ffd6fbc:  e08f3003      add	r3, pc, r3
0x3ffd6fc0:  e2840e5b      add	r0, r4, #1456	; 0x5b0
0x3ffd6fc4:  e5933000      ldr	r3, [r3]
0x3ffd6fc8:  e2800004      add	r0, r0, #4	; 0x4
0x3ffd6fcc:  e12fff33      blx	r3

----------------
IN: 
0x3ffd6fd0:  e59418e0      ldr	r1, [r4, #2272]
0x3ffd6fd4:  e5193008      ldr	r3, [r9, #-8]
0x3ffd6fd8:  e1530001      cmp	r3, r1
0x3ffd6fdc:  3a000065      bcc	0x3ffd7178

----------------
IN: 
0x3ffd6fe0:  e3a08000      mov	r8, #0	; 0x0
0x3ffd6fe4:  e59f3210      ldr	r3, [pc, #528]	; 0x3ffd71fc
0x3ffd6fe8:  e59fb210      ldr	fp, [pc, #528]	; 0x3ffd7200
0x3ffd6fec:  e08f3003      add	r3, pc, r3
0x3ffd6ff0:  e59338e4      ldr	r3, [r3, #2276]
0x3ffd6ff4:  e08fb00b      add	fp, pc, fp
0x3ffd6ff8:  e58d3010      str	r3, [sp, #16]
0x3ffd6ffc:  e58d8014      str	r8, [sp, #20]

----------------
IN: 
0x3ffd7000:  e59d3014      ldr	r3, [sp, #20]
0x3ffd7004:  e59d2010      ldr	r2, [sp, #16]
0x3ffd7008:  e16f7f13      clz	r7, r3
0x3ffd700c:  e592c000      ldr	ip, [r2]
0x3ffd7010:  e1a072a7      lsr	r7, r7, #5
0x3ffd7014:  e157000c      cmp	r7, ip
0x3ffd7018:  2a000044      bcs	0x3ffd7130

----------------
IN: 
0x3ffd701c:  e3a0a000      mov	sl, #0	; 0x0
0x3ffd7020:  e0836007      add	r6, r3, r7
0x3ffd7024:  e0825187      add	r5, r2, r7, lsl #3
0x3ffd7028:  ea000032      b	0x3ffd70f8

----------------
IN: 
0x3ffd70f8:  e1510006      cmp	r1, r6
0x3ffd70fc:  2affffca      bcs	0x3ffd702c

----------------
IN: 
0x3ffd702c:  e595400c      ldr	r4, [r5, #12]
0x3ffd7030:  e3540000      cmp	r4, #0	; 0x0
0x3ffd7034:  0a00002a      beq	0x3ffd70e4

----------------
IN: 
0x3ffd7038:  e5953008      ldr	r3, [r5, #8]
0x3ffd703c:  e59b28f8      ldr	r2, [fp, #2296]
0x3ffd7040:  e1530002      cmp	r3, r2
0x3ffd7044:  8a000052      bhi	0x3ffd7194

----------------
IN: 
0x3ffd7048:  e1580003      cmp	r8, r3
0x3ffd704c:  31a08003      movcc	r8, r3
0x3ffd7050:  e3e03000      mvn	r3, #0	; 0x0
0x3ffd7054:  e594024c      ldr	r0, [r4, #588]
0x3ffd7058:  e5942250      ldr	r2, [r4, #592]
0x3ffd705c:  e7893182      str	r3, [r9, r2, lsl #3]
0x3ffd7060:  e2803001      add	r3, r0, #1	; 0x1
0x3ffd7064:  e3530001      cmp	r3, #1	; 0x1
0x3ffd7068:  e0893182      add	r3, r9, r2, lsl #3
0x3ffd706c:  e583a004      str	sl, [r3, #4]
0x3ffd7070:  9a00001b      bls	0x3ffd70e4

----------------
IN: 
0x3ffd7074:  e1520006      cmp	r2, r6
0x3ffd7078:  1a000055      bne	0x3ffd71d4

----------------
IN: 
0x3ffd707c:  e594223c      ldr	r2, [r4, #572]
0x3ffd7080:  e594e240      ldr	lr, [r4, #576]
0x3ffd7084:  e15e0002      cmp	lr, r2
0x3ffd7088:  3a000049      bcc	0x3ffd71b4

----------------
IN: 
0x3ffd708c:  e59de008      ldr	lr, [sp, #8]
0x3ffd7090:  e08e0000      add	r0, lr, r0
0x3ffd7094:  e5830000      str	r0, [r3]
0x3ffd7098:  e594e018      ldr	lr, [r4, #24]
0x3ffd709c:  e59d300c      ldr	r3, [sp, #12]
0x3ffd70a0:  e35e0000      cmp	lr, #0	; 0x0
0x3ffd70a4:  03833001      orreq	r3, r3, #1	; 0x1
0x3ffd70a8:  e3530000      cmp	r3, #0	; 0x0
0x3ffd70ac:  0a00000c      beq	0x3ffd70e4

----------------
IN: 
0x3ffd70b0:  e5941238      ldr	r1, [r4, #568]
0x3ffd70b4:  e58d2004      str	r2, [sp, #4]
0x3ffd70b8:  eb003c34      bl	0x3ffe6190

----------------
IN: 
0x3ffd70bc:  e59d2004      ldr	r2, [sp, #4]
0x3ffd70c0:  e594323c      ldr	r3, [r4, #572]
0x3ffd70c4:  e0800002      add	r0, r0, r2
0x3ffd70c8:  e5942240      ldr	r2, [r4, #576]
0x3ffd70cc:  e3a01000      mov	r1, #0	; 0x0
0x3ffd70d0:  e0422003      sub	r2, r2, r3
0x3ffd70d4:  eb003c01      bl	0x3ffe60e0

----------------
IN: 
0x3ffd70d8:  e59d3010      ldr	r3, [sp, #16]
0x3ffd70dc:  e59b18e0      ldr	r1, [fp, #2272]
0x3ffd70e0:  e593c000      ldr	ip, [r3]
0x3ffd70e4:  e2877001      add	r7, r7, #1	; 0x1
0x3ffd70e8:  e15c0007      cmp	ip, r7
0x3ffd70ec:  e2866001      add	r6, r6, #1	; 0x1
0x3ffd70f0:  e2855008      add	r5, r5, #8	; 0x8
0x3ffd70f4:  9a00000d      bls	0x3ffd7130

----------------
IN: 
0x3ffd7100:  e59f00fc      ldr	r0, [pc, #252]	; 0x3ffd7204
0x3ffd7104:  e59f30fc      ldr	r3, [pc, #252]	; 0x3ffd7208
0x3ffd7108:  e08f0000      add	r0, pc, r0
0x3ffd710c:  e08f3003      add	r3, pc, r3
0x3ffd7110:  e2800e5b      add	r0, r0, #1456	; 0x5b0
0x3ffd7114:  e5933000      ldr	r3, [r3]
0x3ffd7118:  e2800004      add	r0, r0, #4	; 0x4
0x3ffd711c:  e12fff33      blx	r3

----------------
IN: 
0x3ffd7120:  e5898000      str	r8, [r9]
0x3ffd7124:  e59d0008      ldr	r0, [sp, #8]
0x3ffd7128:  e28dd01c      add	sp, sp, #28	; 0x1c
0x3ffd712c:  e8bd8ff0      pop	{r4, r5, r6, r7, r8, r9, sl, fp, pc}

----------------
IN: 
0x3ffe1790:  e59f3acc      ldr	r3, [pc, #2764]	; 0x3ffe2264
0x3ffe1794:  e08f3003      add	r3, pc, r3
0x3ffe1798:  e5d33004      ldrb	r3, [r3, #4]
0x3ffe179c:  e3530000      cmp	r3, #0	; 0x0
0x3ffe17a0:  1a000005      bne	0x3ffe17bc

----------------
IN: 
0x3ffe17bc:  e59f3aa8      ldr	r3, [pc, #2728]	; 0x3ffe226c
0x3ffe17c0:  e59f5aa8      ldr	r5, [pc, #2728]	; 0x3ffe2270
0x3ffe17c4:  e08f3003      add	r3, pc, r3
0x3ffe17c8:  e08f5005      add	r5, pc, r5
0x3ffe17cc:  e593218c      ldr	r2, [r3, #396]
0x3ffe17d0:  e59535e8      ldr	r3, [r5, #1512]
0x3ffe17d4:  e1520003      cmp	r2, r3
0x3ffe17d8:  1a0006ba      bne	0x3ffe32c8

----------------
IN: 
0x3ffe17dc:  e51b31d0      ldr	r3, [fp, #-464]
0x3ffe17e0:  e2244001      eor	r4, r4, #1	; 0x1
0x3ffe17e4:  e1130004      tst	r3, r4
0x3ffe17e8:  1a0000dd      bne	0x3ffe1b64

----------------
IN: 
0x3ffe1b64:  ebff9a06      bl	0x3ffc8384

----------------
IN: 
0x3ffc8384:  e92d41f0      push	{r4, r5, r6, r7, r8, lr}
0x3ffc8388:  e59f3168      ldr	r3, [pc, #360]	; 0x3ffc84f8
0x3ffc838c:  e79f0003      ldr	r0, [pc, r3]
0x3ffc8390:  e5d0319a      ldrb	r3, [r0, #410]
0x3ffc8394:  e3130004      tst	r3, #4	; 0x4
0x3ffc8398:  1a00004b      bne	0x3ffc84cc

----------------
IN: 
0x3ffc839c:  e3e02000      mvn	r2, #0	; 0x0
0x3ffc83a0:  e59f3154      ldr	r3, [pc, #340]	; 0x3ffc84fc
0x3ffc83a4:  e08f3003      add	r3, pc, r3
0x3ffc83a8:  e5832008      str	r2, [r3, #8]
0x3ffc83ac:  e583200c      str	r2, [r3, #12]
0x3ffc83b0:  ebfffe1e      bl	0x3ffc7c30

----------------
IN: 
0x3ffc7c30:  e92d4ff0      push	{r4, r5, r6, r7, r8, r9, sl, fp, lr}
0x3ffc7c34:  e59f31c0      ldr	r3, [pc, #448]	; 0x3ffc7dfc
0x3ffc7c38:  e24dd024      sub	sp, sp, #36	; 0x24
0x3ffc7c3c:  e79f4003      ldr	r4, [pc, r3]
0x3ffc7c40:  e5d4319a      ldrb	r3, [r4, #410]
0x3ffc7c44:  e2135004      ands	r5, r3, #4	; 0x4
0x3ffc7c48:  13a05000      movne	r5, #0	; 0x0
0x3ffc7c4c:  0a00003e      beq	0x3ffc7d4c

----------------
IN: 
0x3ffc7d4c:  e28db00c      add	fp, sp, #12	; 0xc
0x3ffc7d50:  e1a0100b      mov	r1, fp
0x3ffc7d54:  e1a00004      mov	r0, r4
0x3ffc7d58:  ebffff95      bl	0x3ffc7bb4

----------------
IN: 
0x3ffc7bb4:  e2802f57      add	r2, r0, #348	; 0x15c
0x3ffc7bb8:  e5903154      ldr	r3, [r0, #340]
0x3ffc7bbc:  e1d2c0b0      ldrh	ip, [r2]
0x3ffc7bc0:  e59021b8      ldr	r2, [r0, #440]
0x3ffc7bc4:  e083c28c      add	ip, r3, ip, lsl #5
0x3ffc7bc8:  e5812000      str	r2, [r1]
0x3ffc7bcc:  e59021bc      ldr	r2, [r0, #444]
0x3ffc7bd0:  e153000c      cmp	r3, ip
0x3ffc7bd4:  e5810008      str	r0, [r1, #8]
0x3ffc7bd8:  e5812004      str	r2, [r1, #4]
0x3ffc7bdc:  3a000003      bcc	0x3ffc7bf0

----------------
IN: 
0x3ffc7bf0:  e5932000      ldr	r2, [r3]
0x3ffc7bf4:  e3520217      cmp	r2, #1879048193	; 0x70000001
0x3ffc7bf8:  1afffff9      bne	0x3ffc7be4

----------------
IN: 
0x3ffc7bfc:  e5932008      ldr	r2, [r3, #8]
0x3ffc7c00:  e5900000      ldr	r0, [r0]
0x3ffc7c04:  e5933014      ldr	r3, [r3, #20]
0x3ffc7c08:  e0822000      add	r2, r2, r0
0x3ffc7c0c:  e1a031a3      lsr	r3, r3, #3
0x3ffc7c10:  e581200c      str	r2, [r1, #12]
0x3ffc7c14:  e5813010      str	r3, [r1, #16]
0x3ffc7c18:  e12fff1e      bx	lr

----------------
IN: 
0x3ffc7d5c:  e2843f57      add	r3, r4, #348	; 0x15c
0x3ffc7d60:  e594c154      ldr	ip, [r4, #340]
0x3ffc7d64:  e1d330b0      ldrh	r3, [r3]
0x3ffc7d68:  e08c2283      add	r2, ip, r3, lsl #5
0x3ffc7d6c:  e15c0002      cmp	ip, r2
0x3ffc7d70:  e1a0e283      lsl	lr, r3, #5
0x3ffc7d74:  2affffb5      bcs	0x3ffc7c50

----------------
IN: 
0x3ffc7d78:  e59f3090      ldr	r3, [pc, #144]	; 0x3ffc7e10
0x3ffc7d7c:  e28cc020      add	ip, ip, #32	; 0x20
0x3ffc7d80:  e08f3003      add	r3, pc, r3
0x3ffc7d84:  e88d0808      stm	sp, {r3, fp}
0x3ffc7d88:  e282e020      add	lr, r2, #32	; 0x20
0x3ffc7d8c:  ea000002      b	0x3ffc7d9c

----------------
IN: 
0x3ffc7d9c:  e51c3020      ldr	r3, [ip, #-32]
0x3ffc7da0:  e3530001      cmp	r3, #1	; 0x1
0x3ffc7da4:  1afffff9      bne	0x3ffc7d90

----------------
IN: 
0x3ffc7d90:  e28cc020      add	ip, ip, #32	; 0x20
0x3ffc7d94:  e15c000e      cmp	ip, lr
0x3ffc7d98:  0affffac      beq	0x3ffc7c50

----------------
IN: 
0x3ffc7da8:  e59d3000      ldr	r3, [sp]
0x3ffc7dac:  e5938000      ldr	r8, [r3]
0x3ffc7db0:  e3580000      cmp	r8, #0	; 0x0
0x3ffc7db4:  0a00000e      beq	0x3ffc7df4

----------------
IN: 
0x3ffc7df4:  e2855001      add	r5, r5, #1	; 0x1
0x3ffc7df8:  eaffffe4      b	0x3ffc7d90

----------------
IN: 
0x3ffc7c50:  e59f21a8      ldr	r2, [pc, #424]	; 0x3ffc7e00
0x3ffc7c54:  e08f2002      add	r2, pc, r2
0x3ffc7c58:  e5927580      ldr	r7, [r2, #1408]
0x3ffc7c5c:  e3570000      cmp	r7, #0	; 0x0
0x3ffc7c60:  0a000033      beq	0x3ffc7d34

----------------
IN: 
0x3ffc7c64:  e1a09007      mov	r9, r7
0x3ffc7c68:  e3a07000      mov	r7, #0	; 0x0
0x3ffc7c6c:  e59f3190      ldr	r3, [pc, #400]	; 0x3ffc7e04
0x3ffc7c70:  e59f8190      ldr	r8, [pc, #400]	; 0x3ffc7e08
0x3ffc7c74:  e08f3003      add	r3, pc, r3
0x3ffc7c78:  e1a0a002      mov	sl, r2
0x3ffc7c7c:  e1a06004      mov	r6, r4
0x3ffc7c80:  e1a0b007      mov	fp, r7
0x3ffc7c84:  e08f8008      add	r8, pc, r8
0x3ffc7c88:  e58d3000      str	r3, [sp]
0x3ffc7c8c:  ea000000      b	0x3ffc7c94

----------------
IN: 
0x3ffc7c94:  e3560000      cmp	r6, #0	; 0x0
0x3ffc7c98:  0a000021      beq	0x3ffc7d24

----------------
IN: 
0x3ffc7c9c:  e1540006      cmp	r4, r6
0x3ffc7ca0:  0afffffa      beq	0x3ffc7c90

----------------
IN: 
0x3ffc7c90:  e596600c      ldr	r6, [r6, #12]
0x3ffc7c94:  e3560000      cmp	r6, #0	; 0x0
0x3ffc7c98:  0a000021      beq	0x3ffc7d24

----------------
IN: 
0x3ffc7ca4:  e5963014      ldr	r3, [r6, #20]
0x3ffc7ca8:  e1530006      cmp	r3, r6
0x3ffc7cac:  1afffff7      bne	0x3ffc7c90

----------------
IN: 
0x3ffc7cb0:  e5d63198      ldrb	r3, [r6, #408]
0x3ffc7cb4:  e2033003      and	r3, r3, #3	; 0x3
0x3ffc7cb8:  e3530001      cmp	r3, #1	; 0x1
0x3ffc7cbc:  0a00000f      beq	0x3ffc7d00

----------------
IN: 
0x3ffc7d00:  e5983000      ldr	r3, [r8]
0x3ffc7d04:  e3530000      cmp	r3, #0	; 0x0
0x3ffc7d08:  0a000003      beq	0x3ffc7d1c

----------------
IN: 
0x3ffc7d1c:  e2855001      add	r5, r5, #1	; 0x1
0x3ffc7d20:  eaffffda      b	0x3ffc7c90

----------------
IN: 
0x3ffc7d24:  e28bb001      add	fp, fp, #1	; 0x1
0x3ffc7d28:  e159000b      cmp	r9, fp
0x3ffc7d2c:  15ba6058      ldrne	r6, [sl, #88]!
0x3ffc7d30:  1affffd7      bne	0x3ffc7c94

----------------
IN: 
0x3ffc7d34:  e1a00007      mov	r0, r7
0x3ffc7d38:  e59f30cc      ldr	r3, [pc, #204]	; 0x3ffc7e0c
0x3ffc7d3c:  e08f3003      add	r3, pc, r3
0x3ffc7d40:  e5835004      str	r5, [r3, #4]
0x3ffc7d44:  e28dd024      add	sp, sp, #36	; 0x24
0x3ffc7d48:  e8bd8ff0      pop	{r4, r5, r6, r7, r8, r9, sl, fp, pc}

----------------
IN: 
0x3ffc83b4:  e59f5144      ldr	r5, [pc, #324]	; 0x3ffc8500
0x3ffc83b8:  e1a04000      mov	r4, r0
0x3ffc83bc:  e08f5005      add	r5, pc, r5
0x3ffc83c0:  e5950004      ldr	r0, [r5, #4]
0x3ffc83c4:  e59f7138      ldr	r7, [pc, #312]	; 0x3ffc8504
0x3ffc83c8:  e0800100      add	r0, r0, r0, lsl #2
0x3ffc83cc:  e08f7007      add	r7, pc, r7
0x3ffc83d0:  e5973000      ldr	r3, [r7]
0x3ffc83d4:  e1a00100      lsl	r0, r0, #2
0x3ffc83d8:  e12fff33      blx	r3

----------------
IN: 
0x3ffc83dc:  e3540000      cmp	r4, #0	; 0x0
0x3ffc83e0:  e1a06000      mov	r6, r0
0x3ffc83e4:  e5850000      str	r0, [r5]
0x3ffc83e8:  1a000010      bne	0x3ffc8430

----------------
IN: 
0x3ffc83ec:  e3500000      cmp	r0, #0	; 0x0
0x3ffc83f0:  0a00003d      beq	0x3ffc84ec

----------------
IN: 
0x3ffc83f4:  e5854004      str	r4, [r5, #4]
0x3ffc83f8:  ebfffe0c      bl	0x3ffc7c30

----------------
IN: 
0x3ffc7db8:  e085a105      add	sl, r5, r5, lsl #2
0x3ffc7dbc:  e088910a      add	r9, r8, sl, lsl #2
0x3ffc7dc0:  e1a06009      mov	r6, r9
0x3ffc7dc4:  e59d7004      ldr	r7, [sp, #4]
0x3ffc7dc8:  e594b000      ldr	fp, [r4]
0x3ffc7dcc:  e8b7000f      ldm	r7!, {r0, r1, r2, r3}
0x3ffc7dd0:  e8a6000f      stmia	r6!, {r0, r1, r2, r3}
0x3ffc7dd4:  e5973000      ldr	r3, [r7]
0x3ffc7dd8:  e5863000      str	r3, [r6]
0x3ffc7ddc:  e51c3018      ldr	r3, [ip, #-24]
0x3ffc7de0:  e083300b      add	r3, r3, fp
0x3ffc7de4:  e788310a      str	r3, [r8, sl, lsl #2]
0x3ffc7de8:  e51c200c      ldr	r2, [ip, #-12]
0x3ffc7dec:  e0823003      add	r3, r2, r3
0x3ffc7df0:  e5893004      str	r3, [r9, #4]
0x3ffc7df4:  e2855001      add	r5, r5, #1	; 0x1
0x3ffc7df8:  eaffffe4      b	0x3ffc7d90

----------------
IN: 
0x3ffc7d0c:  e0851105      add	r1, r5, r5, lsl #2
0x3ffc7d10:  e1a00006      mov	r0, r6
0x3ffc7d14:  e0831101      add	r1, r3, r1, lsl #2
0x3ffc7d18:  ebffffa5      bl	0x3ffc7bb4

----------------
IN: 
0x3ffc83fc:  e5951004      ldr	r1, [r5, #4]
0x3ffc8400:  e3510000      cmp	r1, #0	; 0x0
0x3ffc8404:  08bd81f0      popeq	{r4, r5, r6, r7, r8, pc}

----------------
IN: 
0x3ffc8408:  e1a00006      mov	r0, r6
0x3ffc840c:  ebffffa3      bl	0x3ffc82a0

----------------
IN: 
0x3ffc82a0:  e3510001      cmp	r1, #1	; 0x1
0x3ffc82a4:  912fff1e      bxls	lr

----------------
IN: 
0x3ffc82a8:  e92d4ff0      push	{r4, r5, r6, r7, r8, r9, sl, fp, lr}
0x3ffc82ac:  e3a0a000      mov	sl, #0	; 0x0
0x3ffc82b0:  e1a0e001      mov	lr, r1
0x3ffc82b4:  e1a0b000      mov	fp, r0
0x3ffc82b8:  e1a0900a      mov	r9, sl
0x3ffc82bc:  e24dd02c      sub	sp, sp, #44	; 0x2c
0x3ffc82c0:  e2413001      sub	r3, r1, #1	; 0x1
0x3ffc82c4:  e58d3008      str	r3, [sp, #8]
0x3ffc82c8:  e28d3014      add	r3, sp, #20	; 0x14
0x3ffc82cc:  e58d0000      str	r0, [sp]
0x3ffc82d0:  e58d300c      str	r3, [sp, #12]
0x3ffc82d4:  e1a00009      mov	r0, r9
0x3ffc82d8:  e59d3000      ldr	r3, [sp]
0x3ffc82dc:  e2899001      add	r9, r9, #1	; 0x1
0x3ffc82e0:  e15e0009      cmp	lr, r9
0x3ffc82e4:  e1a0c003      mov	ip, r3
0x3ffc82e8:  e79b210a      ldr	r2, [fp, sl, lsl #2]
0x3ffc82ec:  9a000009      bls	0x3ffc8318

----------------
IN: 
0x3ffc82f0:  e1a03009      mov	r3, r9
0x3ffc82f4:  e5bc1014      ldr	r1, [ip, #20]!
0x3ffc82f8:  e1520001      cmp	r2, r1
0x3ffc82fc:  81a00003      movhi	r0, r3
0x3ffc8300:  e2833001      add	r3, r3, #1	; 0x1
0x3ffc8304:  81a02001      movhi	r2, r1
0x3ffc8308:  e15e0003      cmp	lr, r3
0x3ffc830c:  1afffff8      bne	0x3ffc82f4

----------------
IN: 
0x3ffc82f4:  e5bc1014      ldr	r1, [ip, #20]!
0x3ffc82f8:  e1520001      cmp	r2, r1
0x3ffc82fc:  81a00003      movhi	r0, r3
0x3ffc8300:  e2833001      add	r3, r3, #1	; 0x1
0x3ffc8304:  81a02001      movhi	r2, r1
0x3ffc8308:  e15e0003      cmp	lr, r3
0x3ffc830c:  1afffff8      bne	0x3ffc82f4

----------------
IN: 
0x3ffc8310:  e0800100      add	r0, r0, r0, lsl #2
0x3ffc8314:  e08bc100      add	ip, fp, r0, lsl #2
0x3ffc8318:  e59d700c      ldr	r7, [sp, #12]
0x3ffc831c:  e1a0800c      mov	r8, ip
0x3ffc8320:  e1a05007      mov	r5, r7
0x3ffc8324:  e08b410a      add	r4, fp, sl, lsl #2
0x3ffc8328:  e1a06004      mov	r6, r4
0x3ffc832c:  e59d3008      ldr	r3, [sp, #8]
0x3ffc8330:  e28aa005      add	sl, sl, #5	; 0x5
0x3ffc8334:  e1590003      cmp	r9, r3
0x3ffc8338:  e59d3000      ldr	r3, [sp]
0x3ffc833c:  e2833014      add	r3, r3, #20	; 0x14
0x3ffc8340:  e58d3000      str	r3, [sp]
0x3ffc8344:  e8bc000f      ldm	ip!, {r0, r1, r2, r3}
0x3ffc8348:  e8a5000f      stmia	r5!, {r0, r1, r2, r3}
0x3ffc834c:  e59c3000      ldr	r3, [ip]
0x3ffc8350:  e58d3004      str	r3, [sp, #4]
0x3ffc8354:  e5853000      str	r3, [r5]
0x3ffc8358:  e8b4000f      ldm	r4!, {r0, r1, r2, r3}
0x3ffc835c:  e8a8000f      stmia	r8!, {r0, r1, r2, r3}
0x3ffc8360:  e5943000      ldr	r3, [r4]
0x3ffc8364:  e58c3000      str	r3, [ip]
0x3ffc8368:  e8b7000f      ldm	r7!, {r0, r1, r2, r3}
0x3ffc836c:  e8a6000f      stmia	r6!, {r0, r1, r2, r3}
0x3ffc8370:  e59d3004      ldr	r3, [sp, #4]
0x3ffc8374:  e5843000      str	r3, [r4]
0x3ffc8378:  1affffd5      bne	0x3ffc82d4

----------------
IN: 
0x3ffc82d4:  e1a00009      mov	r0, r9
0x3ffc82d8:  e59d3000      ldr	r3, [sp]
0x3ffc82dc:  e2899001      add	r9, r9, #1	; 0x1
0x3ffc82e0:  e15e0009      cmp	lr, r9
0x3ffc82e4:  e1a0c003      mov	ip, r3
0x3ffc82e8:  e79b210a      ldr	r2, [fp, sl, lsl #2]
0x3ffc82ec:  9a000009      bls	0x3ffc8318

----------------
IN: 
0x3ffc837c:  e28dd02c      add	sp, sp, #44	; 0x2c
0x3ffc8380:  e8bd8ff0      pop	{r4, r5, r6, r7, r8, r9, sl, fp, pc}

----------------
IN: 
0x3ffc8410:  e3a01014      mov	r1, #20	; 0x14
0x3ffc8414:  e5952004      ldr	r2, [r5, #4]
0x3ffc8418:  e5953000      ldr	r3, [r5]
0x3ffc841c:  e2422001      sub	r2, r2, #1	; 0x1
0x3ffc8420:  e0233291      mla	r3, r1, r2, r3
0x3ffc8424:  e5933004      ldr	r3, [r3, #4]
0x3ffc8428:  e585301c      str	r3, [r5, #28]
0x3ffc842c:  e8bd81f0      pop	{r4, r5, r6, r7, r8, pc}

----------------
IN: 
0x3ffe1b68:  e1a0000a      mov	r0, sl
0x3ffe1b6c:  ebffeb9a      bl	0x3ffdc9dc

----------------
IN: 
0x3ffdc9dc:  e3a0c000      mov	ip, #0	; 0x0
0x3ffdc9e0:  e92d40f0      push	{r4, r5, r6, r7, lr}
0x3ffdc9e4:  e3a01032      mov	r1, #50	; 0x32
0x3ffdc9e8:  e3a0e05f      mov	lr, #95	; 0x5f
0x3ffdc9ec:  e1a04000      mov	r4, r0
0x3ffdc9f0:  e59f30c4      ldr	r3, [pc, #196]	; 0x3ffdcabc
0x3ffdc9f4:  e24dd014      sub	sp, sp, #20	; 0x14
0x3ffdc9f8:  e08f3003      add	r3, pc, r3
0x3ffdc9fc:  e58d3000      str	r3, [sp]
0x3ffdca00:  e2832006      add	r2, r3, #6	; 0x6
0x3ffdca04:  e59f30b4      ldr	r3, [pc, #180]	; 0x3ffdcac0
0x3ffdca08:  e58dc008      str	ip, [sp, #8]
0x3ffdca0c:  e08e3203      add	r3, lr, r3, lsl #4
0x3ffdca10:  e1a00c23      lsr	r0, r3, #24
0x3ffdca14:  e20000f0      and	r0, r0, #240	; 0xf0
0x3ffdca18:  e3510000      cmp	r1, #0	; 0x0
0x3ffdca1c:  e0233000      eor	r3, r3, r0
0x3ffdca20:  11a0e001      movne	lr, r1
0x3ffdca24:  15f21001      ldrbne	r1, [r2, #1]!
0x3ffdca28:  1afffff7      bne	0x3ffdca0c

----------------
IN: 
0x3ffdca0c:  e08e3203      add	r3, lr, r3, lsl #4
0x3ffdca10:  e1a00c23      lsr	r0, r3, #24
0x3ffdca14:  e20000f0      and	r0, r0, #240	; 0xf0
0x3ffdca18:  e3510000      cmp	r1, #0	; 0x0
0x3ffdca1c:  e0233000      eor	r3, r3, r0
0x3ffdca20:  11a0e001      movne	lr, r1
0x3ffdca24:  15f21001      ldrbne	r1, [r2, #1]!
0x3ffdca28:  1afffff7      bne	0x3ffdca0c

----------------
IN: 
0x3ffdca2c:  e1a0500d      mov	r5, sp
0x3ffdca30:  e58d100c      str	r1, [sp, #12]
0x3ffdca34:  e59f1088      ldr	r1, [pc, #136]	; 0x3ffdcac4
0x3ffdca38:  e3c3320f      bic	r3, r3, #-268435456	; 0xf0000000
0x3ffdca3c:  e1a02005      mov	r2, r5
0x3ffdca40:  e1a00004      mov	r0, r4
0x3ffdca44:  e08f1001      add	r1, pc, r1
0x3ffdca48:  e58d3004      str	r3, [sp, #4]
0x3ffdca4c:  ebffff9f      bl	0x3ffdc8d0

----------------
IN: 
0x3ffdc8d0:  e3a03000      mov	r3, #0	; 0x0
0x3ffdc8d4:  e1a0c002      mov	ip, r2
0x3ffdc8d8:  e92d4070      push	{r4, r5, r6, lr}
0x3ffdc8dc:  e1a05000      mov	r5, r0
0x3ffdc8e0:  e24dd018      sub	sp, sp, #24	; 0x18
0x3ffdc8e4:  e58d300c      str	r3, [sp, #12]
0x3ffdc8e8:  e58d3008      str	r3, [sp, #8]
0x3ffdc8ec:  e58d3004      str	r3, [sp, #4]
0x3ffdc8f0:  e58dc000      str	ip, [sp]
0x3ffdc8f4:  e1a00001      mov	r0, r1
0x3ffdc8f8:  e58d3010      str	r3, [sp, #16]
0x3ffdc8fc:  e1a01005      mov	r1, r5
0x3ffdc900:  e59531d8      ldr	r3, [r5, #472]
0x3ffdc904:  e28d2010      add	r2, sp, #16	; 0x10
0x3ffdc908:  ebffc6da      bl	0x3ffce478

----------------
IN: 
0x3ffdc90c:  e59d6010      ldr	r6, [sp, #16]
0x3ffdc910:  e5d6300c      ldrb	r3, [r6, #12]
0x3ffdc914:  e203300f      and	r3, r3, #15	; 0xf
0x3ffdc918:  e3530006      cmp	r3, #6	; 0x6
0x3ffdc91c:  0a000020      beq	0x3ffdc9a4

----------------
IN: 
0x3ffdc920:  e1d620be      ldrh	r2, [r6, #14]
0x3ffdc924:  e59f1098      ldr	r1, [pc, #152]	; 0x3ffdc9c4
0x3ffdc928:  e1a04000      mov	r4, r0
0x3ffdc92c:  e1520001      cmp	r2, r1
0x3ffdc930:  13500000      cmpne	r0, #0	; 0x0
0x3ffdc934:  13a02001      movne	r2, #1	; 0x1
0x3ffdc938:  03a02000      moveq	r2, #0	; 0x0
0x3ffdc93c:  15902000      ldrne	r2, [r0]
0x3ffdc940:  e353000a      cmp	r3, #10	; 0xa
0x3ffdc944:  e5963004      ldr	r3, [r6, #4]
0x3ffdc948:  e0822003      add	r2, r2, r3
0x3ffdc94c:  e58d2014      str	r2, [sp, #20]
0x3ffdc950:  0a000007      beq	0x3ffdc974

----------------
IN: 
0x3ffdc954:  e59f306c      ldr	r3, [pc, #108]	; 0x3ffdc9c8
0x3ffdc958:  e08f3003      add	r3, pc, r3
0x3ffdc95c:  e59331e8      ldr	r3, [r3, #488]
0x3ffdc960:  e3530000      cmp	r3, #0	; 0x0
0x3ffdc964:  1a000008      bne	0x3ffdc98c

----------------
IN: 
0x3ffdc968:  e59d0014      ldr	r0, [sp, #20]
0x3ffdc96c:  e28dd018      add	sp, sp, #24	; 0x18
0x3ffdc970:  e8bd8070      pop	{r4, r5, r6, pc}

----------------
IN: 
0x3ffdca50:  e59f1070      ldr	r1, [pc, #112]	; 0x3ffdcac8
0x3ffdca54:  e1a07000      mov	r7, r0
0x3ffdca58:  e1a02005      mov	r2, r5
0x3ffdca5c:  e1a00004      mov	r0, r4
0x3ffdca60:  e08f1001      add	r1, pc, r1
0x3ffdca64:  ebffff99      bl	0x3ffdc8d0

----------------
IN: 
0x3ffdca68:  e59f105c      ldr	r1, [pc, #92]	; 0x3ffdcacc
0x3ffdca6c:  e1a06000      mov	r6, r0
0x3ffdca70:  e1a02005      mov	r2, r5
0x3ffdca74:  e1a00004      mov	r0, r4
0x3ffdca78:  e08f1001      add	r1, pc, r1
0x3ffdca7c:  ebffff93      bl	0x3ffdc8d0

----------------
IN: 
0x3ffdca80:  e1a03000      mov	r3, r0
0x3ffdca84:  e59f1044      ldr	r1, [pc, #68]	; 0x3ffdcad0
0x3ffdca88:  e1a02005      mov	r2, r5
0x3ffdca8c:  e1a00004      mov	r0, r4
0x3ffdca90:  e08f1001      add	r1, pc, r1
0x3ffdca94:  e1a04003      mov	r4, r3
0x3ffdca98:  ebffff8c      bl	0x3ffdc8d0

----------------
IN: 
0x3ffdca9c:  e59f3030      ldr	r3, [pc, #48]	; 0x3ffdcad4
0x3ffdcaa0:  e08f3003      add	r3, pc, r3
0x3ffdcaa4:  e5837000      str	r7, [r3]
0x3ffdcaa8:  e5836004      str	r6, [r3, #4]
0x3ffdcaac:  e5834008      str	r4, [r3, #8]
0x3ffdcab0:  e583000c      str	r0, [r3, #12]
0x3ffdcab4:  e28dd014      add	sp, sp, #20	; 0x14
0x3ffdcab8:  e8bd80f0      pop	{r4, r5, r6, r7, pc}

----------------
IN: 
0x3ffe1b70:  ebffec42      bl	0x3ffdcc80

----------------
IN: 
0x3ffdcc80:  e92d4030      push	{r4, r5, lr}
0x3ffdcc84:  e59f3110      ldr	r3, [pc, #272]	; 0x3ffdcd9c
0x3ffdcc88:  e59f0110      ldr	r0, [pc, #272]	; 0x3ffdcda0
0x3ffdcc8c:  e08f3003      add	r3, pc, r3
0x3ffdcc90:  e5935014      ldr	r5, [r3, #20]
0x3ffdcc94:  e59f1108      ldr	r1, [pc, #264]	; 0x3ffdcda4
0x3ffdcc98:  e59f3108      ldr	r3, [pc, #264]	; 0x3ffdcda8
0x3ffdcc9c:  e24dd00c      sub	sp, sp, #12	; 0xc
0x3ffdcca0:  e58d0000      str	r0, [sp]
0x3ffdcca4:  e59f2100      ldr	r2, [pc, #256]	; 0x3ffdcdac
0x3ffdcca8:  e1a00005      mov	r0, r5
0x3ffdccac:  e08f3003      add	r3, pc, r3
0x3ffdccb0:  e08f1001      add	r1, pc, r1
0x3ffdccb4:  ebffcb23      bl	0x3ffcf948

----------------
IN: 
0x3ffcf948:  e92d4ff0      push	{r4, r5, r6, r7, r8, r9, sl, fp, lr}
0x3ffcf94c:  e1a09003      mov	r9, r3
0x3ffcf950:  e5903188      ldr	r3, [r0, #392]
0x3ffcf954:  e24dd014      sub	sp, sp, #20	; 0x14
0x3ffcf958:  e3530000      cmp	r3, #0	; 0x0
0x3ffcf95c:  e1a08001      mov	r8, r1
0x3ffcf960:  e1a06000      mov	r6, r0
0x3ffcf964:  e59da038      ldr	sl, [sp, #56]
0x3ffcf968:  e590117c      ldr	r1, [r0, #380]
0x3ffcf96c:  0a00001e      beq	0x3ffcf9ec

----------------
IN: 
0x3ffcf970:  e1a00002      mov	r0, r2
0x3ffcf974:  e1a07002      mov	r7, r2
0x3ffcf978:  eb005be9      bl	0x3ffe6924

----------------
IN: 
0x3ffcf97c:  e596318c      ldr	r3, [r6, #396]
0x3ffcf980:  e7934101      ldr	r4, [r3, r1, lsl #2]
0x3ffcf984:  e3540000      cmp	r4, #0	; 0x0
0x3ffcf988:  01a03004      moveq	r3, r4
0x3ffcf98c:  0a000013      beq	0x3ffcf9e0

----------------
IN: 
0x3ffcf990:  e596b190      ldr	fp, [r6, #400]
0x3ffcf994:  e08b4104      add	r4, fp, r4, lsl #2
0x3ffcf998:  e1a0c004      mov	ip, r4
0x3ffcf99c:  e4945004      ldr	r5, [r4], #4
0x3ffcf9a0:  e0253007      eor	r3, r5, r7
0x3ffcf9a4:  e1b030a3      lsrs	r3, r3, #1
0x3ffcf9a8:  1a000009      bne	0x3ffcf9d4

----------------
IN: 
0x3ffcf9ac:  e04cc00b      sub	ip, ip, fp
0x3ffcf9b0:  e1a0c14c      asr	ip, ip, #2
0x3ffcf9b4:  e1a0300a      mov	r3, sl
0x3ffcf9b8:  e1a02009      mov	r2, r9
0x3ffcf9bc:  e1a01008      mov	r1, r8
0x3ffcf9c0:  e1a00006      mov	r0, r6
0x3ffcf9c4:  e58dc000      str	ip, [sp]
0x3ffcf9c8:  ebffffa5      bl	0x3ffcf864

----------------
IN: 
0x3ffcf864:  e5d0c19a      ldrb	ip, [r0, #410]
0x3ffcf868:  e92d47f0      push	{r4, r5, r6, r7, r8, r9, sl, lr}
0x3ffcf86c:  e1a05003      mov	r5, r3
0x3ffcf870:  e5903038      ldr	r3, [r0, #56]
0x3ffcf874:  e21ce020      ands	lr, ip, #32	; 0x20
0x3ffcf878:  e5934004      ldr	r4, [r3, #4]
0x3ffcf87c:  1590e000      ldrne	lr, [r0]
0x3ffcf880:  e59d6020      ldr	r6, [sp, #32]
0x3ffcf884:  1084400e      addne	r4, r4, lr
0x3ffcf888:  e0844206      add	r4, r4, r6, lsl #4
0x3ffcf88c:  e1a07002      mov	r7, r2
0x3ffcf890:  e5942004      ldr	r2, [r4, #4]
0x3ffcf894:  e5d4300c      ldrb	r3, [r4, #12]
0x3ffcf898:  e3520000      cmp	r2, #0	; 0x0
0x3ffcf89c:  e1a08000      mov	r8, r0
0x3ffcf8a0:  e203300f      and	r3, r3, #15	; 0xf
0x3ffcf8a4:  0a00001d      beq	0x3ffcf920

----------------
IN: 
0x3ffcf8a8:  e59fc090      ldr	ip, [pc, #144]	; 0x3ffcf940
0x3ffcf8ac:  e1a0c35c      asr	ip, ip, r3
0x3ffcf8b0:  e21c9001      ands	r9, ip, #1	; 0x1
0x3ffcf8b4:  1a00001e      bne	0x3ffcf934

----------------
IN: 
0x3ffcf8b8:  e5983034      ldr	r3, [r8, #52]
0x3ffcf8bc:  e5940000      ldr	r0, [r4]
0x3ffcf8c0:  e5933004      ldr	r3, [r3, #4]
0x3ffcf8c4:  e08ee003      add	lr, lr, r3
0x3ffcf8c8:  e08e0000      add	r0, lr, r0
0x3ffcf8cc:  eb005716      bl	0x3ffe552c

----------------
IN: 
0x3ffcf8d0:  e3500000      cmp	r0, #0	; 0x0
0x3ffcf8d4:  1a000016      bne	0x3ffcf934

----------------
IN: 
0x3ffcf8d8:  e59831b0      ldr	r3, [r8, #432]
0x3ffcf8dc:  e1a06086      lsl	r6, r6, #1
0x3ffcf8e0:  e193c0b6      ldrh	ip, [r3, r6]
0x3ffcf8e4:  e5983174      ldr	r3, [r8, #372]
0x3ffcf8e8:  e1a0c88c      lsl	ip, ip, #17
0x3ffcf8ec:  e1a0c8ac      lsr	ip, ip, #17
0x3ffcf8f0:  e083220c      add	r2, r3, ip, lsl #4
0x3ffcf8f4:  e5922004      ldr	r2, [r2, #4]
0x3ffcf8f8:  e1520005      cmp	r2, r5
0x3ffcf8fc:  11a04000      movne	r4, r0
0x3ffcf900:  1a000004      bne	0x3ffcf918

----------------
IN: 
0x3ffcf904:  e1a01007      mov	r1, r7
0x3ffcf908:  e793020c      ldr	r0, [r3, ip, lsl #4]
0x3ffcf90c:  eb005706      bl	0x3ffe552c

----------------
IN: 
0x3ffcf910:  e3500000      cmp	r0, #0	; 0x0
0x3ffcf914:  13a04000      movne	r4, #0	; 0x0
0x3ffcf918:  e1a00004      mov	r0, r4
0x3ffcf91c:  e8bd87f0      pop	{r4, r5, r6, r7, r8, r9, sl, pc}

----------------
IN: 
0x3ffcf9cc:  e2503000      subs	r3, r0, #0	; 0x0
0x3ffcf9d0:  1a000002      bne	0x3ffcf9e0

----------------
IN: 
0x3ffcf9e0:  e1a00003      mov	r0, r3
0x3ffcf9e4:  e28dd014      add	sp, sp, #20	; 0x14
0x3ffcf9e8:  e8bd8ff0      pop	{r4, r5, r6, r7, r8, r9, sl, fp, pc}

----------------
IN: 
0x3ffdccb8:  e3500000      cmp	r0, #0	; 0x0
0x3ffdccbc:  0a000026      beq	0x3ffdcd5c

----------------
IN: 
0x3ffdccc0:  e2554000      subs	r4, r5, #0	; 0x0
0x3ffdccc4:  13a04001      movne	r4, #1	; 0x1
0x3ffdccc8:  e1d010be      ldrh	r1, [r0, #14]
0x3ffdcccc:  e59f20dc      ldr	r2, [pc, #220]	; 0x3ffdcdb0
0x3ffdccd0:  e1510002      cmp	r1, r2
0x3ffdccd4:  03a03000      moveq	r3, #0	; 0x0
0x3ffdccd8:  12043001      andne	r3, r4, #1	; 0x1
0x3ffdccdc:  e3530000      cmp	r3, #0	; 0x0
0x3ffdcce0:  15953000      ldrne	r3, [r5]
0x3ffdcce4:  e5902004      ldr	r2, [r0, #4]
0x3ffdcce8:  e59f00c4      ldr	r0, [pc, #196]	; 0x3ffdcdb4
0x3ffdccec:  e59f10ac      ldr	r1, [pc, #172]	; 0x3ffdcda0
0x3ffdccf0:  e0823003      add	r3, r2, r3
0x3ffdccf4:  e08f0000      add	r0, pc, r0
0x3ffdccf8:  e5803000      str	r3, [r0]
0x3ffdccfc:  e58d1000      str	r1, [sp]
0x3ffdcd00:  e59f30b0      ldr	r3, [pc, #176]	; 0x3ffdcdb8
0x3ffdcd04:  e59f10b0      ldr	r1, [pc, #176]	; 0x3ffdcdbc
0x3ffdcd08:  e1a00005      mov	r0, r5
0x3ffdcd0c:  e59f20ac      ldr	r2, [pc, #172]	; 0x3ffdcdc0
0x3ffdcd10:  e08f3003      add	r3, pc, r3
0x3ffdcd14:  e08f1001      add	r1, pc, r1
0x3ffdcd18:  ebffcb0a      bl	0x3ffcf948

----------------
IN: 
0x3ffdcd1c:  e3500000      cmp	r0, #0	; 0x0
0x3ffdcd20:  0a000015      beq	0x3ffdcd7c

----------------
IN: 
0x3ffdcd24:  e1d020be      ldrh	r2, [r0, #14]
0x3ffdcd28:  e59f3080      ldr	r3, [pc, #128]	; 0x3ffdcdb0
0x3ffdcd2c:  e1520003      cmp	r2, r3
0x3ffdcd30:  03a04000      moveq	r4, #0	; 0x0
0x3ffdcd34:  12044001      andne	r4, r4, #1	; 0x1
0x3ffdcd38:  e3540000      cmp	r4, #0	; 0x0
0x3ffdcd3c:  15954000      ldrne	r4, [r5]
0x3ffdcd40:  e5903004      ldr	r3, [r0, #4]
0x3ffdcd44:  e59f2078      ldr	r2, [pc, #120]	; 0x3ffdcdc4
0x3ffdcd48:  e0833004      add	r3, r3, r4
0x3ffdcd4c:  e08f2002      add	r2, pc, r2
0x3ffdcd50:  e5823004      str	r3, [r2, #4]
0x3ffdcd54:  e28dd00c      add	sp, sp, #12	; 0xc
0x3ffdcd58:  e8bd8030      pop	{r4, r5, pc}

----------------
IN: 
0x3ffe1b74:  e3a03000      mov	r3, #0	; 0x0
0x3ffe1b78:  e5d52788      ldrb	r2, [r5, #1928]
0x3ffe1b7c:  e2850e5f      add	r0, r5, #1520	; 0x5f0
0x3ffe1b80:  e3c22004      bic	r2, r2, #4	; 0x4
0x3ffe1b84:  e5c52788      strb	r2, [r5, #1928]
0x3ffe1b88:  e59a11d8      ldr	r1, [sl, #472]
0x3ffe1b8c:  e1a02003      mov	r2, r3
0x3ffe1b90:  ebffc4fa      bl	0x3ffd2f80

----------------
IN: 
0x3ffd5064:  e1520001      cmp	r2, r1
0x3ffd5068:  008ee000      addeq	lr, lr, r0
0x3ffd506c:  0afff81d      beq	0x3ffd30e8

----------------
IN: 
0x3ffe67d4:  e1500b81      cmp	r0, r1, lsl #23
0x3ffe67d8:  e0a22002      adc	r2, r2, r2
0x3ffe67dc:  20400b81      subcs	r0, r0, r1, lsl #23
0x3ffe67e0:  e1500b01      cmp	r0, r1, lsl #22
0x3ffe67e4:  e0a22002      adc	r2, r2, r2
0x3ffe67e8:  20400b01      subcs	r0, r0, r1, lsl #22
0x3ffe67ec:  e1500a81      cmp	r0, r1, lsl #21
0x3ffe67f0:  e0a22002      adc	r2, r2, r2
0x3ffe67f4:  20400a81      subcs	r0, r0, r1, lsl #21
0x3ffe67f8:  e1500a01      cmp	r0, r1, lsl #20
0x3ffe67fc:  e0a22002      adc	r2, r2, r2
0x3ffe6800:  20400a01      subcs	r0, r0, r1, lsl #20
0x3ffe6804:  e1500981      cmp	r0, r1, lsl #19
0x3ffe6808:  e0a22002      adc	r2, r2, r2
0x3ffe680c:  20400981      subcs	r0, r0, r1, lsl #19
0x3ffe6810:  e1500901      cmp	r0, r1, lsl #18
0x3ffe6814:  e0a22002      adc	r2, r2, r2
0x3ffe6818:  20400901      subcs	r0, r0, r1, lsl #18
0x3ffe681c:  e1500881      cmp	r0, r1, lsl #17
0x3ffe6820:  e0a22002      adc	r2, r2, r2
0x3ffe6824:  20400881      subcs	r0, r0, r1, lsl #17
0x3ffe6828:  e1500801      cmp	r0, r1, lsl #16
0x3ffe682c:  e0a22002      adc	r2, r2, r2
0x3ffe6830:  20400801      subcs	r0, r0, r1, lsl #16
0x3ffe6834:  e1500781      cmp	r0, r1, lsl #15
0x3ffe6838:  e0a22002      adc	r2, r2, r2
0x3ffe683c:  20400781      subcs	r0, r0, r1, lsl #15
0x3ffe6840:  e1500701      cmp	r0, r1, lsl #14
0x3ffe6844:  e0a22002      adc	r2, r2, r2
0x3ffe6848:  20400701      subcs	r0, r0, r1, lsl #14
0x3ffe684c:  e1500681      cmp	r0, r1, lsl #13
0x3ffe6850:  e0a22002      adc	r2, r2, r2
0x3ffe6854:  20400681      subcs	r0, r0, r1, lsl #13
0x3ffe6858:  e1500601      cmp	r0, r1, lsl #12
0x3ffe685c:  e0a22002      adc	r2, r2, r2
0x3ffe6860:  20400601      subcs	r0, r0, r1, lsl #12
0x3ffe6864:  e1500581      cmp	r0, r1, lsl #11
0x3ffe6868:  e0a22002      adc	r2, r2, r2
0x3ffe686c:  20400581      subcs	r0, r0, r1, lsl #11
0x3ffe6870:  e1500501      cmp	r0, r1, lsl #10
0x3ffe6874:  e0a22002      adc	r2, r2, r2
0x3ffe6878:  20400501      subcs	r0, r0, r1, lsl #10
0x3ffe687c:  e1500481      cmp	r0, r1, lsl #9
0x3ffe6880:  e0a22002      adc	r2, r2, r2
0x3ffe6884:  20400481      subcs	r0, r0, r1, lsl #9
0x3ffe6888:  e1500401      cmp	r0, r1, lsl #8
0x3ffe688c:  e0a22002      adc	r2, r2, r2
0x3ffe6890:  20400401      subcs	r0, r0, r1, lsl #8
0x3ffe6894:  e1500381      cmp	r0, r1, lsl #7
0x3ffe6898:  e0a22002      adc	r2, r2, r2
0x3ffe689c:  20400381      subcs	r0, r0, r1, lsl #7
0x3ffe68a0:  e1500301      cmp	r0, r1, lsl #6
0x3ffe68a4:  e0a22002      adc	r2, r2, r2
0x3ffe68a8:  20400301      subcs	r0, r0, r1, lsl #6
0x3ffe68ac:  e1500281      cmp	r0, r1, lsl #5
0x3ffe68b0:  e0a22002      adc	r2, r2, r2
0x3ffe68b4:  20400281      subcs	r0, r0, r1, lsl #5
0x3ffe68b8:  e1500201      cmp	r0, r1, lsl #4
0x3ffe68bc:  e0a22002      adc	r2, r2, r2
0x3ffe68c0:  20400201      subcs	r0, r0, r1, lsl #4
0x3ffe68c4:  e1500181      cmp	r0, r1, lsl #3
0x3ffe68c8:  e0a22002      adc	r2, r2, r2
0x3ffe68cc:  20400181      subcs	r0, r0, r1, lsl #3
0x3ffe68d0:  e1500101      cmp	r0, r1, lsl #2
0x3ffe68d4:  e0a22002      adc	r2, r2, r2
0x3ffe68d8:  20400101      subcs	r0, r0, r1, lsl #2
0x3ffe68dc:  e1500081      cmp	r0, r1, lsl #1
0x3ffe68e0:  e0a22002      adc	r2, r2, r2
0x3ffe68e4:  20400081      subcs	r0, r0, r1, lsl #1
0x3ffe68e8:  e1500001      cmp	r0, r1
0x3ffe68ec:  e0a22002      adc	r2, r2, r2
0x3ffe68f0:  20400001      subcs	r0, r0, r1
0x3ffe68f4:  e1a00002      mov	r0, r2
0x3ffe68f8:  e12fff1e      bx	lr

----------------
IN: 
0x3ffd3eb4:  eaffff89      b	0x3ffd3ce0

----------------
IN: 
0x3ffd3d20:  e59f32bc      ldr	r3, [pc, #700]	; 0x3ffd3fe4
0x3ffd3d24:  e08f3003      add	r3, pc, r3
0x3ffd3d28:  e59331e8      ldr	r3, [r3, #488]
0x3ffd3d2c:  e3530000      cmp	r3, #0	; 0x0
0x3ffd3d30:  0affffee      beq	0x3ffd3cf0

----------------
IN: 
0x3ffe1b94:  eaffff14      b	0x3ffe17ec

----------------
IN: 
0x3ffe17ec:  e59f3a80      ldr	r3, [pc, #2688]	; 0x3ffe2274
0x3ffe17f0:  e3a01001      mov	r1, #1	; 0x1
0x3ffe17f4:  e08f3003      add	r3, pc, r3
0x3ffe17f8:  e5930014      ldr	r0, [r3, #20]
0x3ffe17fc:  ebff8dd3      bl	0x3ffc4f50

----------------
IN: 
0x3ffc4f50:  e92d4030      push	{r4, r5, lr}
0x3ffc4f54:  e2504000      subs	r4, r0, #0	; 0x0
0x3ffc4f58:  e24dd00c      sub	sp, sp, #12	; 0xc
0x3ffc4f5c:  0a000015      beq	0x3ffc4fb8

----------------
IN: 
0x3ffc4f60:  e59f2078      ldr	r2, [pc, #120]	; 0x3ffc4fe0
0x3ffc4f64:  e1a05001      mov	r5, r1
0x3ffc4f68:  e59f3074      ldr	r3, [pc, #116]	; 0x3ffc4fe4
0x3ffc4f6c:  e59f1074      ldr	r1, [pc, #116]	; 0x3ffc4fe8
0x3ffc4f70:  e08f3003      add	r3, pc, r3
0x3ffc4f74:  e58d2000      str	r2, [sp]
0x3ffc4f78:  e08f1001      add	r1, pc, r1
0x3ffc4f7c:  e59f2068      ldr	r2, [pc, #104]	; 0x3ffc4fec
0x3ffc4f80:  eb002a70      bl	0x3ffcf948

----------------
IN: 
0x3ffe681c:  e1500881      cmp	r0, r1, lsl #17
0x3ffe6820:  e0a22002      adc	r2, r2, r2
0x3ffe6824:  20400881      subcs	r0, r0, r1, lsl #17
0x3ffe6828:  e1500801      cmp	r0, r1, lsl #16
0x3ffe682c:  e0a22002      adc	r2, r2, r2
0x3ffe6830:  20400801      subcs	r0, r0, r1, lsl #16
0x3ffe6834:  e1500781      cmp	r0, r1, lsl #15
0x3ffe6838:  e0a22002      adc	r2, r2, r2
0x3ffe683c:  20400781      subcs	r0, r0, r1, lsl #15
0x3ffe6840:  e1500701      cmp	r0, r1, lsl #14
0x3ffe6844:  e0a22002      adc	r2, r2, r2
0x3ffe6848:  20400701      subcs	r0, r0, r1, lsl #14
0x3ffe684c:  e1500681      cmp	r0, r1, lsl #13
0x3ffe6850:  e0a22002      adc	r2, r2, r2
0x3ffe6854:  20400681      subcs	r0, r0, r1, lsl #13
0x3ffe6858:  e1500601      cmp	r0, r1, lsl #12
0x3ffe685c:  e0a22002      adc	r2, r2, r2
0x3ffe6860:  20400601      subcs	r0, r0, r1, lsl #12
0x3ffe6864:  e1500581      cmp	r0, r1, lsl #11
0x3ffe6868:  e0a22002      adc	r2, r2, r2
0x3ffe686c:  20400581      subcs	r0, r0, r1, lsl #11
0x3ffe6870:  e1500501      cmp	r0, r1, lsl #10
0x3ffe6874:  e0a22002      adc	r2, r2, r2
0x3ffe6878:  20400501      subcs	r0, r0, r1, lsl #10
0x3ffe687c:  e1500481      cmp	r0, r1, lsl #9
0x3ffe6880:  e0a22002      adc	r2, r2, r2
0x3ffe6884:  20400481      subcs	r0, r0, r1, lsl #9
0x3ffe6888:  e1500401      cmp	r0, r1, lsl #8
0x3ffe688c:  e0a22002      adc	r2, r2, r2
0x3ffe6890:  20400401      subcs	r0, r0, r1, lsl #8
0x3ffe6894:  e1500381      cmp	r0, r1, lsl #7
0x3ffe6898:  e0a22002      adc	r2, r2, r2
0x3ffe689c:  20400381      subcs	r0, r0, r1, lsl #7
0x3ffe68a0:  e1500301      cmp	r0, r1, lsl #6
0x3ffe68a4:  e0a22002      adc	r2, r2, r2
0x3ffe68a8:  20400301      subcs	r0, r0, r1, lsl #6
0x3ffe68ac:  e1500281      cmp	r0, r1, lsl #5
0x3ffe68b0:  e0a22002      adc	r2, r2, r2
0x3ffe68b4:  20400281      subcs	r0, r0, r1, lsl #5
0x3ffe68b8:  e1500201      cmp	r0, r1, lsl #4
0x3ffe68bc:  e0a22002      adc	r2, r2, r2
0x3ffe68c0:  20400201      subcs	r0, r0, r1, lsl #4
0x3ffe68c4:  e1500181      cmp	r0, r1, lsl #3
0x3ffe68c8:  e0a22002      adc	r2, r2, r2
0x3ffe68cc:  20400181      subcs	r0, r0, r1, lsl #3
0x3ffe68d0:  e1500101      cmp	r0, r1, lsl #2
0x3ffe68d4:  e0a22002      adc	r2, r2, r2
0x3ffe68d8:  20400101      subcs	r0, r0, r1, lsl #2
0x3ffe68dc:  e1500081      cmp	r0, r1, lsl #1
0x3ffe68e0:  e0a22002      adc	r2, r2, r2
0x3ffe68e4:  20400081      subcs	r0, r0, r1, lsl #1
0x3ffe68e8:  e1500001      cmp	r0, r1
0x3ffe68ec:  e0a22002      adc	r2, r2, r2
0x3ffe68f0:  20400001      subcs	r0, r0, r1
0x3ffe68f4:  e1a00002      mov	r0, r2
0x3ffe68f8:  e12fff1e      bx	lr

----------------
IN: 
0x3ffc4f84:  e2503000      subs	r3, r0, #0	; 0x0
0x3ffc4f88:  0a00000c      beq	0x3ffc4fc0

----------------
IN: 
0x3ffc4f8c:  e59f205c      ldr	r2, [pc, #92]	; 0x3ffc4ff0
0x3ffc4f90:  e1d310be      ldrh	r1, [r3, #14]
0x3ffc4f94:  e1a00005      mov	r0, r5
0x3ffc4f98:  e1510002      cmp	r1, r2
0x3ffc4f9c:  03a02000      moveq	r2, #0	; 0x0
0x3ffc4fa0:  15942000      ldrne	r2, [r4]
0x3ffc4fa4:  e5933004      ldr	r3, [r3, #4]
0x3ffc4fa8:  e0823003      add	r3, r2, r3
0x3ffc4fac:  e28dd00c      add	sp, sp, #12	; 0xc
0x3ffc4fb0:  e8bd4030      pop	{r4, r5, lr}
0x3ffc4fb4:  e12fff13      bx	r3

----------------
IN: 
0x3ff5d0dc:  e92d4070      push	{r4, r5, r6, lr}
0x3ff5d0e0:  e1a04000      mov	r4, r0
0x3ff5d0e4:  e59f20f8      ldr	r2, [pc, #248]	; 0x3ff5d1e4
0x3ff5d0e8:  e59f30f8      ldr	r3, [pc, #248]	; 0x3ff5d1e8
0x3ff5d0ec:  e08f2002      add	r2, pc, r2
0x3ff5d0f0:  e7923003      ldr	r3, [r2, r3]
0x3ff5d0f4:  e24dd010      sub	sp, sp, #16	; 0x10
0x3ff5d0f8:  e59f50ec      ldr	r5, [pc, #236]	; 0x3ff5d1ec
0x3ff5d0fc:  e5933000      ldr	r3, [r3]
0x3ff5d100:  e58d300c      str	r3, [sp, #12]
0x3ff5d104:  e3a03000      mov	r3, #0	; 0x0
0x3ff5d108:  ebfb81ec      bl	0x3fe3d8c0

----------------
IN: 
0x3fe3d8c0:  e52de004      push	{lr}		; (str lr, [sp, #-4]!)
0x3fe3d8c4:  ebffc189      bl	0x3fe2def0

----------------
IN: 
0x3fe2def0:  e3e00a0f      mvn	r0, #61440	; 0xf000
0x3fe2def4:  e240f01f      sub	pc, r0, #31	; 0x1f

----------------
IN: 
0x3fe3d8c8:  e59f2048      ldr	r2, [pc, #72]	; 0x3fe3d918
0x3fe3d8cc:  e59fc048      ldr	ip, [pc, #72]	; 0x3fe3d91c
0x3fe3d8d0:  e79f2002      ldr	r2, [pc, r2]
0x3fe3d8d4:  e79fc00c      ldr	ip, [pc, ip]
0x3fe3d8d8:  e7902002      ldr	r2, [r0, r2]
0x3fe3d8dc:  e59f103c      ldr	r1, [pc, #60]	; 0x3fe3d920
0x3fe3d8e0:  e5922000      ldr	r2, [r2]
0x3fe3d8e4:  e59f3038      ldr	r3, [pc, #56]	; 0x3fe3d924
0x3fe3d8e8:  e592e024      ldr	lr, [r2, #36]
0x3fe3d8ec:  e28eec01      add	lr, lr, #256	; 0x100
0x3fe3d8f0:  e780e00c      str	lr, [r0, ip]
0x3fe3d8f4:  e592c028      ldr	ip, [r2, #40]
0x3fe3d8f8:  e79f1001      ldr	r1, [pc, r1]
0x3fe3d8fc:  e28ccc02      add	ip, ip, #512	; 0x200
0x3fe3d900:  e5922030      ldr	r2, [r2, #48]
0x3fe3d904:  e780c001      str	ip, [r0, r1]
0x3fe3d908:  e79f3003      ldr	r3, [pc, r3]
0x3fe3d90c:  e2822c02      add	r2, r2, #512	; 0x200
0x3fe3d910:  e7802003      str	r2, [r0, r3]
0x3fe3d914:  e49df004      pop	{pc}		; (ldr pc, [sp], #4)

----------------
IN: 
0x3ff5d10c:  e59f20dc      ldr	r2, [pc, #220]	; 0x3ff5d1f0
0x3ff5d110:  e08f5005      add	r5, pc, r5
0x3ff5d114:  e59f30d8      ldr	r3, [pc, #216]	; 0x3ff5d1f4
0x3ff5d118:  e7952002      ldr	r2, [r5, r2]
0x3ff5d11c:  e08f3003      add	r3, pc, r3
0x3ff5d120:  e3a00003      mov	r0, #3	; 0x3
0x3ff5d124:  e28d1004      add	r1, sp, #4	; 0x4
0x3ff5d128:  e5c24000      strb	r4, [r2]
0x3ff5d12c:  e5c34000      strb	r4, [r3]
0x3ff5d130:  ebfe9613      bl	0x3ff02984

----------------
IN: 
0x3ff02984:  e92d4080      push	{r7, lr}
0x3ff02988:  e3a070bf      mov	r7, #191	; 0xbf
0x3ff0298c:  ef000000      svc	0x00000000

----------------
IN: 
0x3ff02990:  e3700a01      cmn	r0, #4096	; 0x1000
0x3ff02994:  e1a03000      mov	r3, r0
0x3ff02998:  8a000001      bhi	0x3ff029a4

----------------
IN: 
0x3ff0299c:  e1a00003      mov	r0, r3
0x3ff029a0:  e8bd8080      pop	{r7, pc}

----------------
IN: 
0x3ff5d134:  e3500000      cmp	r0, #0	; 0x0
0x3ff5d138:  1a000005      bne	0x3ff5d154

----------------
IN: 
0x3ff5d13c:  e59d6004      ldr	r6, [sp, #4]
0x3ff5d140:  e3760001      cmn	r6, #1	; 0x1
0x3ff5d144:  0a000002      beq	0x3ff5d154

----------------
IN: 
0x3ff5d148:  e3560901      cmp	r6, #16384	; 0x4000
0x3ff5d14c:  33a06901      movcc	r6, #16384	; 0x4000
0x3ff5d150:  ea000000      b	0x3ff5d158

----------------
IN: 
0x3ff5d158:  e59f3098      ldr	r3, [pc, #152]	; 0x3ff5d1f8
0x3ff5d15c:  e7953003      ldr	r3, [r5, r3]
0x3ff5d160:  e5935174      ldr	r5, [r3, #372]
0x3ff5d164:  e5930170      ldr	r0, [r3, #368]
0x3ff5d168:  e1a01005      mov	r1, r5
0x3ff5d16c:  e0850000      add	r0, r5, r0
0x3ff5d170:  e2400001      sub	r0, r0, #1	; 0x1
0x3ff5d174:  e5934010      ldr	r4, [r3, #16]
0x3ff5d178:  eb000e33      bl	0x3ff60a4c

----------------
IN: 
0x3ff60a4c:  e2512001      subs	r2, r1, #1	; 0x1
0x3ff60a50:  012fff1e      bxeq	lr

----------------
IN: 
0x3ff60a54:  3a000074      bcc	0x3ff60c2c

----------------
IN: 
0x3ff60a58:  e1500001      cmp	r0, r1
0x3ff60a5c:  9a00006b      bls	0x3ff60c10

----------------
IN: 
0x3ff60a60:  e1110002      tst	r1, r2
0x3ff60a64:  0a00006c      beq	0x3ff60c1c

----------------
IN: 
0x3ff60c1c:  e16f2f11      clz	r2, r1
0x3ff60c20:  e262201f      rsb	r2, r2, #31	; 0x1f
0x3ff60c24:  e1a00230      lsr	r0, r0, r2
0x3ff60c28:  e12fff1e      bx	lr

----------------
IN: 
0x3ff5d17c:  e2842b02      add	r2, r4, #2048	; 0x800
0x3ff5d180:  e0222095      mla	r2, r5, r0, r2
0x3ff5d184:  e2443001      sub	r3, r4, #1	; 0x1
0x3ff5d188:  e1520006      cmp	r2, r6
0x3ff5d18c:  20833002      addcs	r3, r3, r2
0x3ff5d190:  30833006      addcc	r3, r3, r6
0x3ff5d194:  e59f1060      ldr	r1, [pc, #96]	; 0x3ff5d1fc
0x3ff5d198:  e08f1001      add	r1, pc, r1
0x3ff5d19c:  e581400c      str	r4, [r1, #12]
0x3ff5d1a0:  e2644000      rsb	r4, r4, #0	; 0x0
0x3ff5d1a4:  e0033004      and	r3, r3, r4
0x3ff5d1a8:  e58d3004      str	r3, [sp, #4]
0x3ff5d1ac:  e5813014      str	r3, [r1, #20]
0x3ff5d1b0:  ebfcc733      bl	0x3fe8ee84

----------------
IN: 
0x3fe8ee84:  e92d4010      push	{r4, lr}
0x3fe8ee88:  e24dd008      sub	sp, sp, #8	; 0x8
0x3fe8ee8c:  e1a0400d      mov	r4, sp
0x3fe8ee90:  e59fc06c      ldr	ip, [pc, #108]	; 0x3fe8ef04
0x3fe8ee94:  e59f306c      ldr	r3, [pc, #108]	; 0x3fe8ef08
0x3fe8ee98:  e08fc00c      add	ip, pc, ip
0x3fe8ee9c:  e59f2068      ldr	r2, [pc, #104]	; 0x3fe8ef0c
0x3fe8eea0:  e79c3003      ldr	r3, [ip, r3]
0x3fe8eea4:  e1a01004      mov	r1, r4
0x3fe8eea8:  e3a00017      mov	r0, #23	; 0x17
0x3fe8eeac:  e08f2002      add	r2, pc, r2
0x3fe8eeb0:  e5933000      ldr	r3, [r3]
0x3fe8eeb4:  e58d3004      str	r3, [sp, #4]
0x3fe8eeb8:  e3a03000      mov	r3, #0	; 0x0
0x3fe8eebc:  ebfe7971      bl	0x3fe2d488

----------------
IN: 
0x3fe2d488:  e28fc601      add	ip, pc, #1048576	; 0x100000
0x3fe2d48c:  e28cca69      add	ip, ip, #430080	; 0x69000
0x3fe2d490:  e5bcfba8      ldr	pc, [ip, #2984]!

----------------
IN: 
0x3fe2d3f0:  e52de004      push	{lr}		; (str lr, [sp, #-4]!)
0x3fe2d3f4:  e59fe004      ldr	lr, [pc, #4]	; 0x3fe2d400
0x3fe2d3f8:  e08fe00e      add	lr, pc, lr
0x3fe2d3fc:  e5bef008      ldr	pc, [lr, #8]!

----------------
IN: 
0x3ffd7b2c:  e92d001f      push	{r0, r1, r2, r3, r4}
0x3ffd7b30:  e51e0004      ldr	r0, [lr, #-4]
0x3ffd7b34:  e04c100e      sub	r1, ip, lr
0x3ffd7b38:  e2411004      sub	r1, r1, #4	; 0x4
0x3ffd7b3c:  e0811001      add	r1, r1, r1
0x3ffd7b40:  ebfff6ee      bl	0x3ffd5700

----------------
IN: 
0x3ffd5700:  e5d0219a      ldrb	r2, [r0, #410]
0x3ffd5704:  e590c000      ldr	ip, [r0]
0x3ffd5708:  e92d43f0      push	{r4, r5, r6, r7, r8, r9, lr}
0x3ffd570c:  e2122020      ands	r2, r2, #32	; 0x20
0x3ffd5710:  e1a06001      mov	r6, r1
0x3ffd5714:  11a0200c      movne	r2, ip
0x3ffd5718:  e1a05000      mov	r5, r0
0x3ffd571c:  e590107c      ldr	r1, [r0, #124]
0x3ffd5720:  e5903038      ldr	r3, [r0, #56]
0x3ffd5724:  e5910004      ldr	r0, [r1, #4]
0x3ffd5728:  e5933004      ldr	r3, [r3, #4]
0x3ffd572c:  e0860000      add	r0, r6, r0
0x3ffd5730:  e0801002      add	r1, r0, r2
0x3ffd5734:  e7908002      ldr	r8, [r0, r2]
0x3ffd5738:  e5911004      ldr	r1, [r1, #4]
0x3ffd573c:  e5950034      ldr	r0, [r5, #52]
0x3ffd5740:  1083300c      addne	r3, r3, ip
0x3ffd5744:  e5909004      ldr	r9, [r0, #4]
0x3ffd5748:  e1a00421      lsr	r0, r1, #8
0x3ffd574c:  e20110ff      and	r1, r1, #255	; 0xff
0x3ffd5750:  e24dd01c      sub	sp, sp, #28	; 0x1c
0x3ffd5754:  e0833200      add	r3, r3, r0, lsl #4
0x3ffd5758:  e3510016      cmp	r1, #22	; 0x16
0x3ffd575c:  e08c8008      add	r8, ip, r8
0x3ffd5760:  e0829009      add	r9, r2, r9
0x3ffd5764:  e58d3010      str	r3, [sp, #16]
0x3ffd5768:  1a000090      bne	0x3ffd59b0

----------------
IN: 
0x3ffd576c:  e5d3100d      ldrb	r1, [r3, #13]
0x3ffd5770:  e3110003      tst	r1, #3	; 0x3
0x3ffd5774:  1a00007e      bne	0x3ffd5974

----------------
IN: 
0x3ffd5778:  e59510e8      ldr	r1, [r5, #232]
0x3ffd577c:  e3510000      cmp	r1, #0	; 0x0
0x3ffd5780:  0a000009      beq	0x3ffd57ac

----------------
IN: 
0x3ffd5784:  e5911004      ldr	r1, [r1, #4]
0x3ffd5788:  e0822080      add	r2, r2, r0, lsl #1
0x3ffd578c:  e19220b1      ldrh	r2, [r2, r1]
0x3ffd5790:  e5951174      ldr	r1, [r5, #372]
0x3ffd5794:  e1a02882      lsl	r2, r2, #17
0x3ffd5798:  e1a028a2      lsr	r2, r2, #17
0x3ffd579c:  e0811202      add	r1, r1, r2, lsl #4
0x3ffd57a0:  e5912004      ldr	r2, [r1, #4]
0x3ffd57a4:  e3520000      cmp	r2, #0	; 0x0
0x3ffd57a8:  03a01000      moveq	r1, #0	; 0x0
0x3ffd57ac:  eb0036df      bl	0x3ffe3330

----------------
IN: 
0x3ffd57b0:  e5102580      ldr	r2, [r0, #-1408]
0x3ffd57b4:  e1a07000      mov	r7, r0
0x3ffd57b8:  e3520000      cmp	r2, #0	; 0x0
0x3ffd57bc:  03a02001      moveq	r2, #1	; 0x1
0x3ffd57c0:  0a000006      beq	0x3ffd57e0

----------------
IN: 
0x3ffd57e0:  e5930000      ldr	r0, [r3]
0x3ffd57e4:  e3a03000      mov	r3, #0	; 0x0
0x3ffd57e8:  e58d300c      str	r3, [sp, #12]
0x3ffd57ec:  e3a03001      mov	r3, #1	; 0x1
0x3ffd57f0:  e58d2008      str	r2, [sp, #8]
0x3ffd57f4:  e58d1000      str	r1, [sp]
0x3ffd57f8:  e58d3004      str	r3, [sp, #4]
0x3ffd57fc:  e59531d8      ldr	r3, [r5, #472]
0x3ffd5800:  e0890000      add	r0, r9, r0
0x3ffd5804:  e1a01005      mov	r1, r5
0x3ffd5808:  e28d2010      add	r2, sp, #16	; 0x10
0x3ffd580c:  ebffe319      bl	0x3ffce478

----------------
IN: 
0x3ffd5810:  e5173580      ldr	r3, [r7, #-1408]
0x3ffd5814:  e1a09000      mov	r9, r0
0x3ffd5818:  e3530000      cmp	r3, #0	; 0x0
0x3ffd581c:  1a000027      bne	0x3ffd58c0

----------------
IN: 
0x3ffd5820:  e59d3010      ldr	r3, [sp, #16]
0x3ffd5824:  e3530000      cmp	r3, #0	; 0x0
0x3ffd5828:  058d3014      streq	r3, [sp, #20]
0x3ffd582c:  0a00000d      beq	0x3ffd5868

----------------
IN: 
0x3ffd5830:  e1d320be      ldrh	r2, [r3, #14]
0x3ffd5834:  e59f1194      ldr	r1, [pc, #404]	; 0x3ffd59d0
0x3ffd5838:  e1520001      cmp	r2, r1
0x3ffd583c:  13590000      cmpne	r9, #0	; 0x0
0x3ffd5840:  13a02001      movne	r2, #1	; 0x1
0x3ffd5844:  03a02000      moveq	r2, #0	; 0x0
0x3ffd5848:  15992000      ldrne	r2, [r9]
0x3ffd584c:  e5931004      ldr	r1, [r3, #4]
0x3ffd5850:  e0822001      add	r2, r2, r1
0x3ffd5854:  e58d2014      str	r2, [sp, #20]
0x3ffd5858:  e5d3300c      ldrb	r3, [r3, #12]
0x3ffd585c:  e203300f      and	r3, r3, #15	; 0xf
0x3ffd5860:  e353000a      cmp	r3, #10	; 0xa
0x3ffd5864:  0a00004b      beq	0x3ffd5998

----------------
IN: 
0x3ffd5868:  e59571ac      ldr	r7, [r5, #428]
0x3ffd586c:  e3570000      cmp	r7, #0	; 0x0
0x3ffd5870:  059d0014      ldreq	r0, [sp, #20]
0x3ffd5874:  0a00000a      beq	0x3ffd58a4

----------------
IN: 
0x3ffd58a4:  e59f3128      ldr	r3, [pc, #296]	; 0x3ffd59d4
0x3ffd58a8:  e08f3003      add	r3, pc, r3
0x3ffd58ac:  e5933034      ldr	r3, [r3, #52]
0x3ffd58b0:  e3530000      cmp	r3, #0	; 0x0
0x3ffd58b4:  05880000      streq	r0, [r8]
0x3ffd58b8:  e28dd01c      add	sp, sp, #28	; 0x1c
0x3ffd58bc:  e8bd83f0      pop	{r4, r5, r6, r7, r8, r9, pc}

----------------
IN: 
0x3ffd7b44:  e1a0c000      mov	ip, r0
0x3ffd7b48:  e8bd401f      pop	{r0, r1, r2, r3, r4, lr}
0x3ffd7b4c:  e12fff1c      bx	ip

----------------
IN: 
0x3fe8eec0:  e59f2048      ldr	r2, [pc, #72]	; 0x3fe8ef10
0x3fe8eec4:  e1a01004      mov	r1, r4
0x3fe8eec8:  e08f2002      add	r2, pc, r2
0x3fe8eecc:  e3a0000d      mov	r0, #13	; 0xd
0x3fe8eed0:  ebfe796c      bl	0x3fe2d488

----------------
IN: 
0x3fe8eed4:  e59f2038      ldr	r2, [pc, #56]	; 0x3fe8ef14
0x3fe8eed8:  e59f3028      ldr	r3, [pc, #40]	; 0x3fe8ef08
0x3fe8eedc:  e08f2002      add	r2, pc, r2
0x3fe8eee0:  e7923003      ldr	r3, [r2, r3]
0x3fe8eee4:  e5932000      ldr	r2, [r3]
0x3fe8eee8:  e59d3004      ldr	r3, [sp, #4]
0x3fe8eeec:  e0332002      eors	r2, r3, r2
0x3fe8eef0:  e3a03000      mov	r3, #0	; 0x0
0x3fe8eef4:  1a000001      bne	0x3fe8ef00

----------------
IN: 
0x3fe8eef8:  e28dd008      add	sp, sp, #8	; 0x8
0x3fe8eefc:  e8bd8010      pop	{r4, pc}

----------------
IN: 
0x3ff5d1b4:  e59f2044      ldr	r2, [pc, #68]	; 0x3ff5d200
0x3ff5d1b8:  e59f3028      ldr	r3, [pc, #40]	; 0x3ff5d1e8
0x3ff5d1bc:  e08f2002      add	r2, pc, r2
0x3ff5d1c0:  e7923003      ldr	r3, [r2, r3]
0x3ff5d1c4:  e5932000      ldr	r2, [r3]
0x3ff5d1c8:  e59d300c      ldr	r3, [sp, #12]
0x3ff5d1cc:  e0332002      eors	r2, r3, r2
0x3ff5d1d0:  e3a03000      mov	r3, #0	; 0x0
0x3ff5d1d4:  1a000001      bne	0x3ff5d1e0

----------------
IN: 
0x3ff5d1d8:  e28dd010      add	sp, sp, #16	; 0x10
0x3ff5d1dc:  e8bd8070      pop	{r4, r5, r6, pc}

----------------
IN: 
0x3ffe1800:  ebffeebd      bl	0x3ffdd2fc

----------------
IN: 
0x3ffdd2fc:  e12fff1e      bx	lr

----------------
IN: 
0x3ffe1804:  e3a01000      mov	r1, #0	; 0x0
0x3ffe1808:  e1a00001      mov	r0, r1
0x3ffe180c:  ebffe1f4      bl	0x3ffd9fe4

----------------
IN: 
0x3ffd9fe4:  e59f3034      ldr	r3, [pc, #52]	; 0x3ffda020
0x3ffd9fe8:  e59f2034      ldr	r2, [pc, #52]	; 0x3ffda024
0x3ffd9fec:  e080c100      add	ip, r0, r0, lsl #2
0x3ffd9ff0:  e08f3003      add	r3, pc, r3
0x3ffd9ff4:  e08f2002      add	r2, pc, r2
0x3ffd9ff8:  e080008c      add	r0, r0, ip, lsl #1
0x3ffd9ffc:  e59221e8      ldr	r2, [r2, #488]

----------------
IN: 
0x3ffda000:  e7930180      ldr	r0, [r3, r0, lsl #3]
0x3ffda004:  e3500000      cmp	r0, #0	; 0x0
0x3ffda008:  13520000      cmpne	r2, #0	; 0x0
0x3ffda00c:  012fff1e      bxeq	lr

----------------
IN: 
0x3ffe1810:  e3a00000      mov	r0, #0	; 0x0
0x3ffe1814:  ebff928a      bl	0x3ffc6244

----------------
IN: 
0x3ffe1818:  e3a03000      mov	r3, #0	; 0x0
0x3ffe181c:  e580300c      str	r3, [r0, #12]
0x3ffe1820:  ebff9286      bl	0x3ffc6240

----------------
IN: 
0x3ffe1824:  ebffde31      bl	0x3ffd90f0

----------------
IN: 
0x3ffd90f0:  e92d4010      push	{r4, lr}
0x3ffd90f4:  e59f4038      ldr	r4, [pc, #56]	; 0x3ffd9134
0x3ffd90f8:  e08f4004      add	r4, pc, r4
0x3ffd90fc:  e5940008      ldr	r0, [r4, #8]
0x3ffd9100:  e2403001      sub	r3, r0, #1	; 0x1
0x3ffd9104:  e3730003      cmn	r3, #3	; 0x3
0x3ffd9108:  9a000004      bls	0x3ffd9120

----------------
IN: 
0x3ffd9120:  e594100c      ldr	r1, [r4, #12]
0x3ffd9124:  eb002f45      bl	0x3ffe4e40

----------------
IN: 
0x3ffd9128:  e3a03000      mov	r3, #0	; 0x0
0x3ffd912c:  e5843008      str	r3, [r4, #8]
0x3ffd9130:  eafffff5      b	0x3ffd910c

----------------
IN: 
0x3ffd910c:  e3a02000      mov	r2, #0	; 0x0
0x3ffd9110:  e59f3020      ldr	r3, [pc, #32]	; 0x3ffd9138
0x3ffd9114:  e08f3003      add	r3, pc, r3
0x3ffd9118:  e5832000      str	r2, [r3]
0x3ffd911c:  e8bd8010      pop	{r4, pc}

----------------
IN: 
0x3ffe1828:  e24bd020      sub	sp, fp, #32	; 0x20
0x3ffe182c:  e8bd8ff0      pop	{r4, r5, r6, r7, r8, r9, sl, fp, pc}

----------------
IN: 
0x3ffdd268:  e59d003c      ldr	r0, [sp, #60]
0x3ffdd26c:  e28dd044      add	sp, sp, #68	; 0x44
0x3ffdd270:  e8bd8ff0      pop	{r4, r5, r6, r7, r8, r9, sl, fp, pc}

----------------
IN: 
0x3ffdef40:  e5953000      ldr	r3, [r5]
0x3ffdef44:  e3130080      tst	r3, #128	; 0x80
0x3ffdef48:  1a00001d      bne	0x3ffdefc4

----------------
IN: 
0x3ffdef4c:  e24bd020      sub	sp, fp, #32	; 0x20
0x3ffdef50:  e8bd8ff0      pop	{r4, r5, r6, r7, r8, r9, sl, fp, pc}

----------------
IN: 
0x3ffdde18:  e28f6084      add	r6, pc, #132	; 0x84
0x3ffdde1c:  e08aa006      add	sl, sl, r6
0x3ffdde20:  e79a4004      ldr	r4, [sl, r4]
0x3ffdde24:  e1a06000      mov	r6, r0
0x3ffdde28:  e59d1000      ldr	r1, [sp]
0x3ffdde2c:  e28d2004      add	r2, sp, #4	; 0x4
0x3ffdde30:  e3540000      cmp	r4, #0	; 0x0
0x3ffdde34:  1a000007      bne	0x3ffdde58

----------------
IN: 
0x3ffdde38:  e0823101      add	r3, r2, r1, lsl #2
0x3ffdde3c:  e2833004      add	r3, r3, #4	; 0x4
0x3ffdde40:  e59f006c      ldr	r0, [pc, #108]	; 0x3ffddeb4
0x3ffdde44:  e79a0000      ldr	r0, [sl, r0]
0x3ffdde48:  ebffacf3      bl	0x3ffc921c

----------------
IN: 
0x3ffc921c:  e92d47f0      push	{r4, r5, r6, r7, r8, r9, sl, lr}
0x3ffc9220:  e59f4114      ldr	r4, [pc, #276]	; 0x3ffc933c
0x3ffc9224:  e1a05000      mov	r5, r0
0x3ffc9228:  e08f4004      add	r4, pc, r4
0x3ffc922c:  e594c5d8      ldr	ip, [r4, #1496]
0x3ffc9230:  e1a06001      mov	r6, r1
0x3ffc9234:  e35c0000      cmp	ip, #0	; 0x0
0x3ffc9238:  e1a07002      mov	r7, r2
0x3ffc923c:  e1a08003      mov	r8, r3
0x3ffc9240:  e590a0a0      ldr	sl, [r0, #160]
0x3ffc9244:  e59090a4      ldr	r9, [r0, #164]
0x3ffc9248:  1a000010      bne	0x3ffc9290

----------------
IN: 
0x3ffc924c:  e3590000      cmp	r9, #0	; 0x0
0x3ffc9250:  135a0000      cmpne	sl, #0	; 0x0
0x3ffc9254:  1a000012      bne	0x3ffc92a4

----------------
IN: 
0x3ffc9258:  e5954164      ldr	r4, [r5, #356]
0x3ffc925c:  e3540000      cmp	r4, #0	; 0x0
0x3ffc9260:  e2444001      sub	r4, r4, #1	; 0x1
0x3ffc9264:  08bd87f0      popeq	{r4, r5, r6, r7, r8, r9, sl, pc}

----------------
IN: 
0x3ffc9268:  e595c200      ldr	ip, [r5, #512]
0x3ffc926c:  e1a03008      mov	r3, r8
0x3ffc9270:  e79c0104      ldr	r0, [ip, r4, lsl #2]
0x3ffc9274:  e1a02007      mov	r2, r7
0x3ffc9278:  e1a01006      mov	r1, r6
0x3ffc927c:  e2444001      sub	r4, r4, #1	; 0x1
0x3ffc9280:  ebffff8c      bl	0x3ffc90b8

----------------
IN: 
0x3ffc90b8:  e92d47f0      push	{r4, r5, r6, r7, r8, r9, sl, lr}
0x3ffc90bc:  e1a08003      mov	r8, r3
0x3ffc90c0:  e5903014      ldr	r3, [r0, #20]
0x3ffc90c4:  e1a05000      mov	r5, r0
0x3ffc90c8:  e5d33198      ldrb	r3, [r3, #408]
0x3ffc90cc:  e1a06001      mov	r6, r1
0x3ffc90d0:  e3130004      tst	r3, #4	; 0x4
0x3ffc90d4:  e1a07002      mov	r7, r2
0x3ffc90d8:  1a000001      bne	0x3ffc90e4

----------------
IN: 
0x3ffc90e4:  e5d53198      ldrb	r3, [r5, #408]
0x3ffc90e8:  e3130008      tst	r3, #8	; 0x8
0x3ffc90ec:  18bd87f0      popne	{r4, r5, r6, r7, r8, r9, sl, pc}

----------------
IN: 
0x3ffc90f0:  e3833008      orr	r3, r3, #8	; 0x8
0x3ffc90f4:  e5951004      ldr	r1, [r5, #4]
0x3ffc90f8:  e5c53198      strb	r3, [r5, #408]
0x3ffc90fc:  e5d13000      ldrb	r3, [r1]
0x3ffc9100:  e3530000      cmp	r3, #0	; 0x0
0x3ffc9104:  0a000021      beq	0x3ffc9190

----------------
IN: 
0x3ffc9108:  e59f30ec      ldr	r3, [pc, #236]	; 0x3ffc91fc
0x3ffc910c:  e08f3003      add	r3, pc, r3
0x3ffc9110:  e5933000      ldr	r3, [r3]
0x3ffc9114:  e3130002      tst	r3, #2	; 0x2
0x3ffc9118:  1a00002b      bne	0x3ffc91cc

----------------
IN: 
0x3ffc911c:  e5953050      ldr	r3, [r5, #80]
0x3ffc9120:  e3530000      cmp	r3, #0	; 0x0
0x3ffc9124:  0a000006      beq	0x3ffc9144

----------------
IN: 
0x3ffc9144:  e5953084      ldr	r3, [r5, #132]
0x3ffc9148:  e3530000      cmp	r3, #0	; 0x0
0x3ffc914c:  08bd87f0      popeq	{r4, r5, r6, r7, r8, r9, sl, pc}

----------------
IN: 
0x3ffc9284:  e3740001      cmn	r4, #1	; 0x1
0x3ffc9288:  1afffff6      bne	0x3ffc9268

----------------
IN: 
0x3ffc9150:  e5934004      ldr	r4, [r3, #4]
0x3ffc9154:  e595308c      ldr	r3, [r5, #140]
0x3ffc9158:  e5952000      ldr	r2, [r5]
0x3ffc915c:  e5939004      ldr	r9, [r3, #4]
0x3ffc9160:  e0844002      add	r4, r4, r2
0x3ffc9164:  e1b09129      lsrs	r9, r9, #2
0x3ffc9168:  08bd87f0      popeq	{r4, r5, r6, r7, r8, r9, sl, pc}

----------------
IN: 
0x3ffc916c:  e0849109      add	r9, r4, r9, lsl #2
0x3ffc9170:  e4945004      ldr	r5, [r4], #4
0x3ffc9174:  e1a02008      mov	r2, r8
0x3ffc9178:  e1a01007      mov	r1, r7
0x3ffc917c:  e1a00006      mov	r0, r6
0x3ffc9180:  e12fff35      blx	r5

----------------
IN: 
0x3fe2d778:  e59f3084      ldr	r3, [pc, #132]	; 0x3fe2d804
0x3fe2d77c:  e92d40d0      push	{r4, r6, r7, lr}
0x3fe2d780:  e08f3003      add	r3, pc, r3
0x3fe2d784:  e5d33000      ldrb	r3, [r3]
0x3fe2d788:  e59f7078      ldr	r7, [pc, #120]	; 0x3fe2d808
0x3fe2d78c:  e3530000      cmp	r3, #0	; 0x0
0x3fe2d790:  e08f7007      add	r7, pc, r7
0x3fe2d794:  e1a06000      mov	r6, r0
0x3fe2d798:  e1a04002      mov	r4, r2
0x3fe2d79c:  e24dd008      sub	sp, sp, #8	; 0x8
0x3fe2d7a0:  0a000007      beq	0x3fe2d7c4

----------------
IN: 
0x3fe2d7a4:  e59f3060      ldr	r3, [pc, #96]	; 0x3fe2d80c
0x3fe2d7a8:  e7973003      ldr	r3, [r7, r3]
0x3fe2d7ac:  e5930000      ldr	r0, [r3]
0x3fe2d7b0:  e59f3058      ldr	r3, [pc, #88]	; 0x3fe2d810
0x3fe2d7b4:  e7973003      ldr	r3, [r7, r3]
0x3fe2d7b8:  e593303c      ldr	r3, [r3, #60]
0x3fe2d7bc:  e1530000      cmp	r3, r0
0x3fe2d7c0:  1a00000b      bne	0x3fe2d7f4

----------------
IN: 
0x3fe2d7c4:  e1a02004      mov	r2, r4
0x3fe2d7c8:  e1a00006      mov	r0, r6
0x3fe2d7cc:  e59f3040      ldr	r3, [pc, #64]	; 0x3fe2d814
0x3fe2d7d0:  e08f3003      add	r3, pc, r3
0x3fe2d7d4:  e5836000      str	r6, [r3]
0x3fe2d7d8:  e5831004      str	r1, [r3, #4]
0x3fe2d7dc:  e59f3034      ldr	r3, [pc, #52]	; 0x3fe2d818
0x3fe2d7e0:  e7973003      ldr	r3, [r7, r3]
0x3fe2d7e4:  e5834000      str	r4, [r3]
0x3fe2d7e8:  e28dd008      add	sp, sp, #8	; 0x8
0x3fe2d7ec:  e8bd40d0      pop	{r4, r6, r7, lr}
0x3fe2d7f0:  ea0379fb      b	0x3ff0bfe4

----------------
IN: 
0x3ff0bfe4:  e92d4070      push	{r4, r5, r6, lr}
0x3ff0bfe8:  e59f5048      ldr	r5, [pc, #72]	; 0x3ff0c038
0x3ff0bfec:  e2514000      subs	r4, r1, #0	; 0x0
0x3ff0bff0:  e08f5005      add	r5, pc, r5
0x3ff0bff4:  08bd8070      popeq	{r4, r5, r6, pc}

----------------
IN: 
0x3ff0bff8:  e5946000      ldr	r6, [r4]
0x3ff0bffc:  e3560000      cmp	r6, #0	; 0x0

----------------
IN: 
0x3ff0c000:  08bd8070      popeq	{r4, r5, r6, pc}

----------------
IN: 
0x3ff0c004:  e1a00006      mov	r0, r6
0x3ff0c008:  e3a0102f      mov	r1, #47	; 0x2f
0x3ff0c00c:  ebfe5eac      bl	0x3fea3ac4

----------------
IN: 
0x3fea3ac4:  e92d4070      push	{r4, r5, r6, lr}
0x3fea3ac8:  e21150ff      ands	r5, r1, #255	; 0xff
0x3fea3acc:  e1a04000      mov	r4, r0
0x3fea3ad0:  13a06000      movne	r6, #0	; 0x0
0x3fea3ad4:  1a000002      bne	0x3fea3ae4

----------------
IN: 
0x3fea3ae4:  e1a01005      mov	r1, r5
0x3fea3ae8:  e1a00004      mov	r0, r4
0x3fea3aec:  ebfffde0      bl	0x3fea3274

----------------
IN: 
0x3fea3274:  e3100003      tst	r0, #3	; 0x3
0x3fea3278:  e1a02000      mov	r2, r0
0x3fea327c:  e20110ff      and	r1, r1, #255	; 0xff
0x3fea3280:  0a00000c      beq	0x3fea32b8

----------------
IN: 
0x3fea32b8:  e92d4070      push	{r4, r5, r6, lr}
0x3fea32bc:  e1816401      orr	r6, r1, r1, lsl #8
0x3fea32c0:  e59f409c      ldr	r4, [pc, #156]	; 0x3fea3364
0x3fea32c4:  e1866806      orr	r6, r6, r6, lsl #16
0x3fea32c8:  e1a00002      mov	r0, r2
0x3fea32cc:  e492e004      ldr	lr, [r2], #4
0x3fea32d0:  e026500e      eor	r5, r6, lr
0x3fea32d4:  e08e3004      add	r3, lr, r4
0x3fea32d8:  e085c004      add	ip, r5, r4
0x3fea32dc:  e023300e      eor	r3, r3, lr
0x3fea32e0:  e02cc005      eor	ip, ip, r5
0x3fea32e4:  e003300c      and	r3, r3, ip
0x3fea32e8:  e1833004      orr	r3, r3, r4
0x3fea32ec:  e3730001      cmn	r3, #1	; 0x1
0x3fea32f0:  0afffff4      beq	0x3fea32c8

----------------
IN: 
0x3fea32f4:  e5523004      ldrb	r3, [r2, #-4]
0x3fea32f8:  e1530001      cmp	r3, r1
0x3fea32fc:  08bd8070      popeq	{r4, r5, r6, pc}

----------------
IN: 
0x3fea3300:  e3530000      cmp	r3, #0	; 0x0
0x3fea3304:  0a00000e      beq	0x3fea3344

----------------
IN: 
0x3fea3308:  e5523003      ldrb	r3, [r2, #-3]
0x3fea330c:  e1530001      cmp	r3, r1
0x3fea3310:  0a00000d      beq	0x3fea334c

----------------
IN: 
0x3fea334c:  e2800001      add	r0, r0, #1	; 0x1
0x3fea3350:  e8bd8070      pop	{r4, r5, r6, pc}

----------------
IN: 
0x3fea3af0:  e3500000      cmp	r0, #0	; 0x0
0x3fea3af4:  1afffff8      bne	0x3fea3adc

----------------
IN: 
0x3fea3adc:  e1a06000      mov	r6, r0
0x3fea3ae0:  e2804001      add	r4, r0, #1	; 0x1
0x3fea3ae4:  e1a01005      mov	r1, r5
0x3fea3ae8:  e1a00004      mov	r0, r4
0x3fea3aec:  ebfffde0      bl	0x3fea3274

----------------
IN: 
0x3fea3284:  e1a03000      mov	r3, r0
0x3fea3288:  ea000002      b	0x3fea3298

----------------
IN: 
0x3fea3298:  e1a00003      mov	r0, r3
0x3fea329c:  e4d32001      ldrb	r2, [r3], #1
0x3fea32a0:  e1520001      cmp	r2, r1
0x3fea32a4:  012fff1e      bxeq	lr

----------------
IN: 
0x3fea32a8:  e3520000      cmp	r2, #0	; 0x0
0x3fea32ac:  1afffff6      bne	0x3fea328c

----------------
IN: 
0x3fea328c:  e3130003      tst	r3, #3	; 0x3
0x3fea3290:  e1a02003      mov	r2, r3
0x3fea3294:  0a000007      beq	0x3fea32b8

----------------
IN: 
0x3fea3314:  e3530000      cmp	r3, #0	; 0x0
0x3fea3318:  0a000009      beq	0x3fea3344

----------------
IN: 
0x3fea3344:  e1a00003      mov	r0, r3
0x3fea3348:  e8bd8070      pop	{r4, r5, r6, pc}

----------------
IN: 
0x3fea3af8:  e1a00006      mov	r0, r6
0x3fea3afc:  e8bd8070      pop	{r4, r5, r6, pc}

----------------
IN: 
0x3ff0c010:  e59f2024      ldr	r2, [pc, #36]	; 0x3ff0c03c
0x3ff0c014:  e3500000      cmp	r0, #0	; 0x0
0x3ff0c018:  e7952002      ldr	r2, [r5, r2]
0x3ff0c01c:  e59f301c      ldr	r3, [pc, #28]	; 0x3ff0c040
0x3ff0c020:  12806001      addne	r6, r0, #1	; 0x1
0x3ff0c024:  e5826000      str	r6, [r2]
0x3ff0c028:  e5942000      ldr	r2, [r4]
0x3ff0c02c:  e7953003      ldr	r3, [r5, r3]
0x3ff0c030:  e5832000      str	r2, [r3]
0x3ff0c034:  e8bd8070      pop	{r4, r5, r6, pc}

----------------
IN: 
0x3ffc9184:  e1590004      cmp	r9, r4
0x3ffc9188:  1afffff8      bne	0x3ffc9170

----------------
IN: 
0x3ffc9170:  e4945004      ldr	r5, [r4], #4
0x3ffc9174:  e1a02008      mov	r2, r8
0x3ffc9178:  e1a01007      mov	r1, r7
0x3ffc917c:  e1a00006      mov	r0, r6
0x3ffc9180:  e12fff35      blx	r5

----------------
IN: 
0x3fe2d81c:  e59f3070      ldr	r3, [pc, #112]	; 0x3fe2d894
0x3fe2d820:  e59f1070      ldr	r1, [pc, #112]	; 0x3fe2d898
0x3fe2d824:  e08f3003      add	r3, pc, r3
0x3fe2d828:  e7931001      ldr	r1, [r3, r1]
0x3fe2d82c:  e59f2068      ldr	r2, [pc, #104]	; 0x3fe2d89c
0x3fe2d830:  e5911098      ldr	r1, [r1, #152]
0x3fe2d834:  e08f2002      add	r2, pc, r2
0x3fe2d838:  e1510002      cmp	r1, r2
0x3fe2d83c:  0a000009      beq	0x3fe2d868

----------------
IN: 
0x3fe2d868:  e59f203c      ldr	r2, [pc, #60]	; 0x3fe2d8ac
0x3fe2d86c:  e7932002      ldr	r2, [r3, r2]
0x3fe2d870:  e5922098      ldr	r2, [r2, #152]
0x3fe2d874:  e1520001      cmp	r2, r1
0x3fe2d878:  1afffff0      bne	0x3fe2d840

----------------
IN: 
0x3fe2d87c:  e59f102c      ldr	r1, [pc, #44]	; 0x3fe2d8b0
0x3fe2d880:  e7931001      ldr	r1, [r3, r1]
0x3fe2d884:  e5911098      ldr	r1, [r1, #152]
0x3fe2d888:  e1510002      cmp	r1, r2
0x3fe2d88c:  1affffeb      bne	0x3fe2d840

----------------
IN: 
0x3fe2d890:  e12fff1e      bx	lr

----------------
IN: 
0x3ffc918c:  e8bd87f0      pop	{r4, r5, r6, r7, r8, r9, sl, pc}

----------------
IN: 
0x3ffc9190:  e5d53198      ldrb	r3, [r5, #408]
0x3ffc9194:  e3130003      tst	r3, #3	; 0x3
0x3ffc9198:  08bd87f0      popeq	{r4, r5, r6, r7, r8, r9, sl, pc}

----------------
IN: 
0x3ffc928c:  e8bd87f0      pop	{r4, r5, r6, r7, r8, r9, sl, pc}

----------------
IN: 
0x3ffdde4c:  e59f0058      ldr	r0, [pc, #88]	; 0x3ffddeac
0x3ffdde50:  e08a0000      add	r0, sl, r0
0x3ffdde54:  e12fff16      bx	r6

----------------
IN: 
0x000104dc:  e3a0b000      mov	fp, #0	; 0x0

----------------
IN: 
0x000104e0:  e3a0e000      mov	lr, #0	; 0x0

----------------
IN: 
0x000104e4:  e49d1004      pop	{r1}		; (ldr r1, [sp], #4)

----------------
IN: 
0x000104e8:  e1a0200d      mov	r2, sp

----------------
IN: 
0x000104ec:  e52d2004      push	{r2}		; (str r2, [sp, #-4]!)

----------------
IN: 
0x000104f0:  e52d0004      push	{r0}		; (str r0, [sp, #-4]!)

----------------
IN: 
0x000104f4:  e59fa01c      ldr	sl, [pc, #28]	; 0x10518

----------------
IN: 
0x000104f8:  e28f3018      add	r3, pc, #24	; 0x18

----------------
IN: 
0x000104fc:  e08aa003      add	sl, sl, r3

----------------
IN: 
0x00010500:  e3a03000      mov	r3, #0	; 0x0

----------------
IN: 
0x00010504:  e52d3004      push	{r3}		; (str r3, [sp, #-4]!)

----------------
IN: 
0x00010508:  e59f000c      ldr	r0, [pc, #12]	; 0x1051c

----------------
IN: 
0x0001050c:  e79a0000      ldr	r0, [sl, r0]

----------------
IN: 
0x00010510:  ebffffd3      bl	0x10464

----------------
IN: 
0x00010464:  e28fc600      add	ip, pc, #0	; 0x0

----------------
IN: 
0x00010468:  e28cca10      add	ip, ip, #65536	; 0x10000

----------------
IN: 
0x0001046c:  e5bcfba0      ldr	pc, [ip, #2976]!

----------------
IN: 
0x00010450:  e52de004      push	{lr}		; (str lr, [sp, #-4]!)

----------------
IN: 
0x00010454:  e59fe004      ldr	lr, [pc, #4]	; 0x10460

----------------
IN: 
0x00010458:  e08fe00e      add	lr, pc, lr

----------------
IN: 
0x0001045c:  e5bef008      ldr	pc, [lr, #8]!

----------------
IN: 
0x3ffd7b2c:  e92d001f      push	{r0, r1, r2, r3, r4}
0x3ffd7b30:  e51e0004      ldr	r0, [lr, #-4]
0x3ffd7b34:  e04c100e      sub	r1, ip, lr
0x3ffd7b38:  e2411004      sub	r1, r1, #4	; 0x4
0x3ffd7b3c:  e0811001      add	r1, r1, r1
0x3ffd7b40:  ebfff6ee      bl	0x3ffd5700

----------------
IN: 
0x3ffd5700:  e5d0219a      ldrb	r2, [r0, #410]
0x3ffd5704:  e590c000      ldr	ip, [r0]
0x3ffd5708:  e92d43f0      push	{r4, r5, r6, r7, r8, r9, lr}
0x3ffd570c:  e2122020      ands	r2, r2, #32	; 0x20
0x3ffd5710:  e1a06001      mov	r6, r1
0x3ffd5714:  11a0200c      movne	r2, ip
0x3ffd5718:  e1a05000      mov	r5, r0
0x3ffd571c:  e590107c      ldr	r1, [r0, #124]
0x3ffd5720:  e5903038      ldr	r3, [r0, #56]
0x3ffd5724:  e5910004      ldr	r0, [r1, #4]
0x3ffd5728:  e5933004      ldr	r3, [r3, #4]
0x3ffd572c:  e0860000      add	r0, r6, r0
0x3ffd5730:  e0801002      add	r1, r0, r2
0x3ffd5734:  e7908002      ldr	r8, [r0, r2]
0x3ffd5738:  e5911004      ldr	r1, [r1, #4]
0x3ffd573c:  e5950034      ldr	r0, [r5, #52]
0x3ffd5740:  1083300c      addne	r3, r3, ip
0x3ffd5744:  e5909004      ldr	r9, [r0, #4]
0x3ffd5748:  e1a00421      lsr	r0, r1, #8
0x3ffd574c:  e20110ff      and	r1, r1, #255	; 0xff
0x3ffd5750:  e24dd01c      sub	sp, sp, #28	; 0x1c
0x3ffd5754:  e0833200      add	r3, r3, r0, lsl #4
0x3ffd5758:  e3510016      cmp	r1, #22	; 0x16
0x3ffd575c:  e08c8008      add	r8, ip, r8
0x3ffd5760:  e0829009      add	r9, r2, r9
0x3ffd5764:  e58d3010      str	r3, [sp, #16]
0x3ffd5768:  1a000090      bne	0x3ffd59b0

----------------
IN: 
0x3ffd576c:  e5d3100d      ldrb	r1, [r3, #13]
0x3ffd5770:  e3110003      tst	r1, #3	; 0x3
0x3ffd5774:  1a00007e      bne	0x3ffd5974

----------------
IN: 
0x3ffd5778:  e59510e8      ldr	r1, [r5, #232]
0x3ffd577c:  e3510000      cmp	r1, #0	; 0x0
0x3ffd5780:  0a000009      beq	0x3ffd57ac

----------------
IN: 
0x3ffd5784:  e5911004      ldr	r1, [r1, #4]
0x3ffd5788:  e0822080      add	r2, r2, r0, lsl #1
0x3ffd578c:  e19220b1      ldrh	r2, [r2, r1]
0x3ffd5790:  e5951174      ldr	r1, [r5, #372]
0x3ffd5794:  e1a02882      lsl	r2, r2, #17
0x3ffd5798:  e1a028a2      lsr	r2, r2, #17
0x3ffd579c:  e0811202      add	r1, r1, r2, lsl #4
0x3ffd57a0:  e5912004      ldr	r2, [r1, #4]
0x3ffd57a4:  e3520000      cmp	r2, #0	; 0x0
0x3ffd57a8:  03a01000      moveq	r1, #0	; 0x0
0x3ffd57ac:  eb0036df      bl	0x3ffe3330

----------------
IN: 
0x3ffe3330:  e3e00a0f      mvn	r0, #61440	; 0xf000
0x3ffe3334:  e240f01f      sub	pc, r0, #31	; 0x1f

----------------
IN: 
0xffff0fe0:  Address 0xffff0fe0 is out of bounds.


----------------
IN: 
0x3ffd57b0:  e5102580      ldr	r2, [r0, #-1408]
0x3ffd57b4:  e1a07000      mov	r7, r0
0x3ffd57b8:  e3520000      cmp	r2, #0	; 0x0
0x3ffd57bc:  03a02001      moveq	r2, #1	; 0x1
0x3ffd57c0:  0a000006      beq	0x3ffd57e0

----------------
IN: 
0x3ffd57e0:  e5930000      ldr	r0, [r3]
0x3ffd57e4:  e3a03000      mov	r3, #0	; 0x0
0x3ffd57e8:  e58d300c      str	r3, [sp, #12]
0x3ffd57ec:  e3a03001      mov	r3, #1	; 0x1
0x3ffd57f0:  e58d2008      str	r2, [sp, #8]
0x3ffd57f4:  e58d1000      str	r1, [sp]
0x3ffd57f8:  e58d3004      str	r3, [sp, #4]
0x3ffd57fc:  e59531d8      ldr	r3, [r5, #472]
0x3ffd5800:  e0890000      add	r0, r9, r0
0x3ffd5804:  e1a01005      mov	r1, r5
0x3ffd5808:  e28d2010      add	r2, sp, #16	; 0x10
0x3ffd580c:  ebffe319      bl	0x3ffce478

----------------
IN: 
0x3ffce478:  e92d4ff0      push	{r4, r5, r6, r7, r8, r9, sl, fp, lr}
0x3ffce47c:  e1a0b000      mov	fp, r0
0x3ffce480:  e1a0a001      mov	sl, r1
0x3ffce484:  e1a09002      mov	r9, r2
0x3ffce488:  e59fcf9c      ldr	ip, [pc, #3996]	; 0x3ffcf42c
0x3ffce48c:  e24dd07c      sub	sp, sp, #124	; 0x7c
0x3ffce490:  e08fc00c      add	ip, pc, ip
0x3ffce494:  e28ccd16      add	ip, ip, #1408	; 0x580
0x3ffce498:  e28cc004      add	ip, ip, #4	; 0x4
0x3ffce49c:  e58dc02c      str	ip, [sp, #44]
0x3ffce4a0:  e59fcf88      ldr	ip, [pc, #3976]	; 0x3ffcf430
0x3ffce4a4:  e58d3020      str	r3, [sp, #32]
0x3ffce4a8:  e08fc00c      add	ip, pc, ip
0x3ffce4ac:  e59f3f80      ldr	r3, [pc, #3968]	; 0x3ffcf434
0x3ffce4b0:  e28ccd16      add	ip, ip, #1408	; 0x580
0x3ffce4b4:  e28cc004      add	ip, ip, #4	; 0x4
0x3ffce4b8:  e08f3003      add	r3, pc, r3
0x3ffce4bc:  e59d60ac      ldr	r6, [sp, #172]
0x3ffce4c0:  e58dc030      str	ip, [sp, #48]
0x3ffce4c4:  e58d3024      str	r3, [sp, #36]
0x3ffce4c8:  e5db3000      ldrb	r3, [fp]
0x3ffce4cc:  e3530000      cmp	r3, #0	; 0x0
0x3ffce4d0:  0a00009c      beq	0x3ffce748

----------------
IN: 
0x3ffce4d4:  e1a0200b      mov	r2, fp
0x3ffce4d8:  e59f4f58      ldr	r4, [pc, #3928]	; 0x3ffcf438
0x3ffce4dc:  e0844284      add	r4, r4, r4, lsl #5
0x3ffce4e0:  e0834004      add	r4, r3, r4
0x3ffce4e4:  e5f23001      ldrb	r3, [r2, #1]!
0x3ffce4e8:  e3530000      cmp	r3, #0	; 0x0
0x3ffce4ec:  1afffffa      bne	0x3ffce4dc

----------------
IN: 
0x3ffce4dc:  e0844284      add	r4, r4, r4, lsl #5
0x3ffce4e0:  e0834004      add	r4, r3, r4
0x3ffce4e4:  e5f23001      ldrb	r3, [r2, #1]!
0x3ffce4e8:  e3530000      cmp	r3, #0	; 0x0
0x3ffce4ec:  1afffffa      bne	0x3ffce4dc

----------------
IN: 
0x3ffce4f0:  e3e02000      mvn	r2, #0	; 0x0
0x3ffce4f4:  e59d30a0      ldr	r3, [sp, #160]
0x3ffce4f8:  e58d2054      str	r2, [sp, #84]
0x3ffce4fc:  e3530000      cmp	r3, #0	; 0x0
0x3ffce500:  e3a03000      mov	r3, #0	; 0x0
0x3ffce504:  e59d2024      ldr	r2, [sp, #36]
0x3ffce508:  e58d305c      str	r3, [sp, #92]
0x3ffce50c:  e58d3060      str	r3, [sp, #96]
0x3ffce510:  e59235e0      ldr	r3, [r2, #1504]
0x3ffce514:  e2833001      add	r3, r3, #1	; 0x1
0x3ffce518:  e58235e0      str	r3, [r2, #1504]
0x3ffce51c:  0a000002      beq	0x3ffce52c

----------------
IN: 
0x3ffce520:  e59d30a8      ldr	r3, [sp, #168]
0x3ffce524:  e3130002      tst	r3, #2	; 0x2
0x3ffce528:  1a00045f      bne	0x3ffcf6ac

----------------
IN: 
0x3ffce52c:  e59d3020      ldr	r3, [sp, #32]
0x3ffce530:  e3560000      cmp	r6, #0	; 0x0
0x3ffce534:  e5933000      ldr	r3, [r3]
0x3ffce538:  1a000084      bne	0x3ffce750

----------------
IN: 
0x3ffce53c:  e3530000      cmp	r3, #0	; 0x0
0x3ffce540:  0a00008d      beq	0x3ffce77c

----------------
IN: 
0x3ffce544:  e58d6028      str	r6, [sp, #40]
0x3ffce548:  e28d705c      add	r7, sp, #92	; 0x5c
0x3ffce54c:  e1a02007      mov	r2, r7
0x3ffce550:  e28d8054      add	r8, sp, #84	; 0x54
0x3ffce554:  e1a07008      mov	r7, r8
0x3ffce558:  e59d0028      ldr	r0, [sp, #40]
0x3ffce55c:  e1a08002      mov	r8, r2
0x3ffce560:  e59d5020      ldr	r5, [sp, #32]
0x3ffce564:  ea000002      b	0x3ffce574

----------------
IN: 
0x3ffce574:  e58d3004      str	r3, [sp, #4]
0x3ffce578:  e59d30a4      ldr	r3, [sp, #164]
0x3ffce57c:  e58d0008      str	r0, [sp, #8]
0x3ffce580:  e58d3018      str	r3, [sp, #24]
0x3ffce584:  e59d30a8      ldr	r3, [sp, #168]
0x3ffce588:  e58da01c      str	sl, [sp, #28]
0x3ffce58c:  e58d3010      str	r3, [sp, #16]
0x3ffce590:  e59d30a0      ldr	r3, [sp, #160]
0x3ffce594:  e58d6014      str	r6, [sp, #20]
0x3ffce598:  e58d300c      str	r3, [sp, #12]
0x3ffce59c:  e58d8000      str	r8, [sp]
0x3ffce5a0:  e1a02007      mov	r2, r7
0x3ffce5a4:  e1a01004      mov	r1, r4
0x3ffce5a8:  e1a0000b      mov	r0, fp
0x3ffce5ac:  e5993000      ldr	r3, [r9]
0x3ffce5b0:  ebfffc80      bl	0x3ffcd7b8

----------------
IN: 
0x3ffcd7b8:  e92d4ff0      push	{r4, r5, r6, r7, r8, r9, sl, fp, lr}
0x3ffcd7bc:  e24dd064      sub	sp, sp, #100	; 0x64
0x3ffcd7c0:  e59dc08c      ldr	ip, [sp, #140]
0x3ffcd7c4:  e59d5090      ldr	r5, [sp, #144]
0x3ffcd7c8:  e59c7004      ldr	r7, [ip, #4]
0x3ffcd7cc:  e59d90a0      ldr	r9, [sp, #160]
0x3ffcd7d0:  e58d003c      str	r0, [sp, #60]
0x3ffcd7d4:  e58d2044      str	r2, [sp, #68]
0x3ffcd7d8:  e58d3040      str	r3, [sp, #64]
0x3ffcd7dc:  e59c6000      ldr	r6, [ip]
0x3ffcd7e0:  e2453107      sub	r3, r5, #-1073741823	; 0xc0000001
0x3ffcd7e4:  e0866103      add	r6, r6, r3, lsl #2
0x3ffcd7e8:  e59f3c08      ldr	r3, [pc, #3080]	; 0x3ffce3f8
0x3ffcd7ec:  e59fac08      ldr	sl, [pc, #3080]	; 0x3ffce3fc
0x3ffcd7f0:  e08f3003      add	r3, pc, r3
0x3ffcd7f4:  e08fa00a      add	sl, pc, sl
0x3ffcd7f8:  e58d3048      str	r3, [sp, #72]
0x3ffcd7fc:  e1a032a1      lsr	r3, r1, #5
0x3ffcd800:  e1a0b00a      mov	fp, sl
0x3ffcd804:  e58d3030      str	r3, [sp, #48]
0x3ffcd808:  e1a0a007      mov	sl, r7
0x3ffcd80c:  e58d102c      str	r1, [sp, #44]
0x3ffcd810:  ea000022      b	0x3ffcd8a0

----------------
IN: 
0x3ffcd8a0:  e5b63004      ldr	r3, [r6, #4]!
0x3ffcd8a4:  e5934014      ldr	r4, [r3, #20]
0x3ffcd8a8:  e59d309c      ldr	r3, [sp, #156]
0x3ffcd8ac:  e1540003      cmp	r4, r3
0x3ffcd8b0:  0afffff7      beq	0x3ffcd894

----------------
IN: 
0x3ffcd8b4:  e2193002      ands	r3, r9, #2	; 0x2
0x3ffcd8b8:  e58d3024      str	r3, [sp, #36]
0x3ffcd8bc:  0a000002      beq	0x3ffcd8cc

----------------
IN: 
0x3ffcd8cc:  e5d4319a      ldrb	r3, [r4, #410]
0x3ffcd8d0:  e3130002      tst	r3, #2	; 0x2
0x3ffcd8d4:  1affffee      bne	0x3ffcd894

----------------
IN: 
0x3ffcd8d8:  e59b3000      ldr	r3, [fp]
0x3ffcd8dc:  e3130008      tst	r3, #8	; 0x8
0x3ffcd8e0:  0affffcb      beq	0x3ffcd814

----------------
IN: 
0x3ffcd814:  e594117c      ldr	r1, [r4, #380]
0x3ffcd818:  e3510000      cmp	r1, #0	; 0x0
0x3ffcd81c:  0a00001c      beq	0x3ffcd894

----------------
IN: 
0x3ffcd820:  e3a02000      mov	r2, #0	; 0x0
0x3ffcd824:  e5d4319a      ldrb	r3, [r4, #410]
0x3ffcd828:  e5940038      ldr	r0, [r4, #56]
0x3ffcd82c:  e58d2058      str	r2, [sp, #88]
0x3ffcd830:  e58d205c      str	r2, [sp, #92]
0x3ffcd834:  e5942034      ldr	r2, [r4, #52]
0x3ffcd838:  e2133020      ands	r3, r3, #32	; 0x20
0x3ffcd83c:  15943000      ldrne	r3, [r4]
0x3ffcd840:  e5922004      ldr	r2, [r2, #4]
0x3ffcd844:  e5908004      ldr	r8, [r0, #4]
0x3ffcd848:  10888003      addne	r8, r8, r3
0x3ffcd84c:  e0833002      add	r3, r3, r2
0x3ffcd850:  e5942188      ldr	r2, [r4, #392]
0x3ffcd854:  e58d3028      str	r3, [sp, #40]
0x3ffcd858:  e3520000      cmp	r2, #0	; 0x0
0x3ffcd85c:  0a000032      beq	0x3ffcd92c

----------------
IN: 
0x3ffcd860:  e59d0030      ldr	r0, [sp, #48]
0x3ffcd864:  e5943180      ldr	r3, [r4, #384]
0x3ffcd868:  e0033000      and	r3, r3, r0
0x3ffcd86c:  e7920103      ldr	r0, [r2, r3, lsl #2]
0x3ffcd870:  e59d302c      ldr	r3, [sp, #44]
0x3ffcd874:  e5942184      ldr	r2, [r4, #388]
0x3ffcd878:  e1a02233      lsr	r2, r3, r2
0x3ffcd87c:  e203301f      and	r3, r3, #31	; 0x1f
0x3ffcd880:  e202201f      and	r2, r2, #31	; 0x1f
0x3ffcd884:  e1a03330      lsr	r3, r0, r3
0x3ffcd888:  e0033230      and	r3, r3, r0, lsr r2
0x3ffcd88c:  e3130001      tst	r3, #1	; 0x1
0x3ffcd890:  1a00006f      bne	0x3ffcda54

----------------
IN: 
0x3ffcda54:  e59d002c      ldr	r0, [sp, #44]
0x3ffcda58:  eb0063b1      bl	0x3ffe6924

----------------
IN: 
0x3ffe6924:  e3510000      cmp	r1, #0	; 0x0
0x3ffe6928:  0afffffa      beq	0x3ffe6918

----------------
IN: 
0x3ffe692c:  e92d4003      push	{r0, r1, lr}
0x3ffe6930:  ebffff80      bl	0x3ffe6738

----------------
IN: 
0x3ffe6738:  e2512001      subs	r2, r1, #1	; 0x1
0x3ffe673c:  012fff1e      bxeq	lr

----------------
IN: 
0x3ffe6740:  3a000074      bcc	0x3ffe6918

----------------
IN: 
0x3ffe6744:  e1500001      cmp	r0, r1
0x3ffe6748:  9a00006b      bls	0x3ffe68fc

----------------
IN: 
0x3ffe674c:  e1110002      tst	r1, r2
0x3ffe6750:  0a00006c      beq	0x3ffe6908

----------------
IN: 
0x3ffe6754:  e16f3f10      clz	r3, r0
0x3ffe6758:  e16f2f11      clz	r2, r1
0x3ffe675c:  e0423003      sub	r3, r2, r3
0x3ffe6760:  e273301f      rsbs	r3, r3, #31	; 0x1f
0x3ffe6764:  10833083      addne	r3, r3, r3, lsl #1
0x3ffe6768:  e3a02000      mov	r2, #0	; 0x0
0x3ffe676c:  108ff103      addne	pc, pc, r3, lsl #2

----------------
IN: 
0x3ffe6780:  e1500f01      cmp	r0, r1, lsl #30
0x3ffe6784:  e0a22002      adc	r2, r2, r2
0x3ffe6788:  20400f01      subcs	r0, r0, r1, lsl #30
0x3ffe678c:  e1500e81      cmp	r0, r1, lsl #29
0x3ffe6790:  e0a22002      adc	r2, r2, r2
0x3ffe6794:  20400e81      subcs	r0, r0, r1, lsl #29
0x3ffe6798:  e1500e01      cmp	r0, r1, lsl #28
0x3ffe679c:  e0a22002      adc	r2, r2, r2
0x3ffe67a0:  20400e01      subcs	r0, r0, r1, lsl #28
0x3ffe67a4:  e1500d81      cmp	r0, r1, lsl #27
0x3ffe67a8:  e0a22002      adc	r2, r2, r2
0x3ffe67ac:  20400d81      subcs	r0, r0, r1, lsl #27
0x3ffe67b0:  e1500d01      cmp	r0, r1, lsl #26
0x3ffe67b4:  e0a22002      adc	r2, r2, r2
0x3ffe67b8:  20400d01      subcs	r0, r0, r1, lsl #26
0x3ffe67bc:  e1500c81      cmp	r0, r1, lsl #25
0x3ffe67c0:  e0a22002      adc	r2, r2, r2
0x3ffe67c4:  20400c81      subcs	r0, r0, r1, lsl #25
0x3ffe67c8:  e1500c01      cmp	r0, r1, lsl #24
0x3ffe67cc:  e0a22002      adc	r2, r2, r2
0x3ffe67d0:  20400c01      subcs	r0, r0, r1, lsl #24
0x3ffe67d4:  e1500b81      cmp	r0, r1, lsl #23
0x3ffe67d8:  e0a22002      adc	r2, r2, r2
0x3ffe67dc:  20400b81      subcs	r0, r0, r1, lsl #23
0x3ffe67e0:  e1500b01      cmp	r0, r1, lsl #22
0x3ffe67e4:  e0a22002      adc	r2, r2, r2
0x3ffe67e8:  20400b01      subcs	r0, r0, r1, lsl #22
0x3ffe67ec:  e1500a81      cmp	r0, r1, lsl #21
0x3ffe67f0:  e0a22002      adc	r2, r2, r2
0x3ffe67f4:  20400a81      subcs	r0, r0, r1, lsl #21
0x3ffe67f8:  e1500a01      cmp	r0, r1, lsl #20
0x3ffe67fc:  e0a22002      adc	r2, r2, r2
0x3ffe6800:  20400a01      subcs	r0, r0, r1, lsl #20
0x3ffe6804:  e1500981      cmp	r0, r1, lsl #19
0x3ffe6808:  e0a22002      adc	r2, r2, r2
0x3ffe680c:  20400981      subcs	r0, r0, r1, lsl #19
0x3ffe6810:  e1500901      cmp	r0, r1, lsl #18
0x3ffe6814:  e0a22002      adc	r2, r2, r2
0x3ffe6818:  20400901      subcs	r0, r0, r1, lsl #18
0x3ffe681c:  e1500881      cmp	r0, r1, lsl #17
0x3ffe6820:  e0a22002      adc	r2, r2, r2
0x3ffe6824:  20400881      subcs	r0, r0, r1, lsl #17
0x3ffe6828:  e1500801      cmp	r0, r1, lsl #16
0x3ffe682c:  e0a22002      adc	r2, r2, r2
0x3ffe6830:  20400801      subcs	r0, r0, r1, lsl #16
0x3ffe6834:  e1500781      cmp	r0, r1, lsl #15
0x3ffe6838:  e0a22002      adc	r2, r2, r2
0x3ffe683c:  20400781      subcs	r0, r0, r1, lsl #15
0x3ffe6840:  e1500701      cmp	r0, r1, lsl #14
0x3ffe6844:  e0a22002      adc	r2, r2, r2
0x3ffe6848:  20400701      subcs	r0, r0, r1, lsl #14
0x3ffe684c:  e1500681      cmp	r0, r1, lsl #13
0x3ffe6850:  e0a22002      adc	r2, r2, r2
0x3ffe6854:  20400681      subcs	r0, r0, r1, lsl #13
0x3ffe6858:  e1500601      cmp	r0, r1, lsl #12
0x3ffe685c:  e0a22002      adc	r2, r2, r2
0x3ffe6860:  20400601      subcs	r0, r0, r1, lsl #12
0x3ffe6864:  e1500581      cmp	r0, r1, lsl #11
0x3ffe6868:  e0a22002      adc	r2, r2, r2
0x3ffe686c:  20400581      subcs	r0, r0, r1, lsl #11
0x3ffe6870:  e1500501      cmp	r0, r1, lsl #10
0x3ffe6874:  e0a22002      adc	r2, r2, r2
0x3ffe6878:  20400501      subcs	r0, r0, r1, lsl #10
0x3ffe687c:  e1500481      cmp	r0, r1, lsl #9
0x3ffe6880:  e0a22002      adc	r2, r2, r2
0x3ffe6884:  20400481      subcs	r0, r0, r1, lsl #9
0x3ffe6888:  e1500401      cmp	r0, r1, lsl #8
0x3ffe688c:  e0a22002      adc	r2, r2, r2
0x3ffe6890:  20400401      subcs	r0, r0, r1, lsl #8
0x3ffe6894:  e1500381      cmp	r0, r1, lsl #7
0x3ffe6898:  e0a22002      adc	r2, r2, r2
0x3ffe689c:  20400381      subcs	r0, r0, r1, lsl #7
0x3ffe68a0:  e1500301      cmp	r0, r1, lsl #6
0x3ffe68a4:  e0a22002      adc	r2, r2, r2
0x3ffe68a8:  20400301      subcs	r0, r0, r1, lsl #6
0x3ffe68ac:  e1500281      cmp	r0, r1, lsl #5
0x3ffe68b0:  e0a22002      adc	r2, r2, r2
0x3ffe68b4:  20400281      subcs	r0, r0, r1, lsl #5
0x3ffe68b8:  e1500201      cmp	r0, r1, lsl #4
0x3ffe68bc:  e0a22002      adc	r2, r2, r2
0x3ffe68c0:  20400201      subcs	r0, r0, r1, lsl #4
0x3ffe68c4:  e1500181      cmp	r0, r1, lsl #3
0x3ffe68c8:  e0a22002      adc	r2, r2, r2
0x3ffe68cc:  20400181      subcs	r0, r0, r1, lsl #3
0x3ffe68d0:  e1500101      cmp	r0, r1, lsl #2
0x3ffe68d4:  e0a22002      adc	r2, r2, r2
0x3ffe68d8:  20400101      subcs	r0, r0, r1, lsl #2
0x3ffe68dc:  e1500081      cmp	r0, r1, lsl #1
0x3ffe68e0:  e0a22002      adc	r2, r2, r2
0x3ffe68e4:  20400081      subcs	r0, r0, r1, lsl #1
0x3ffe68e8:  e1500001      cmp	r0, r1
0x3ffe68ec:  e0a22002      adc	r2, r2, r2
0x3ffe68f0:  20400001      subcs	r0, r0, r1
0x3ffe68f4:  e1a00002      mov	r0, r2
0x3ffe68f8:  e12fff1e      bx	lr

----------------
IN: 
0x3ffe6934:  e8bd4006      pop	{r1, r2, lr}
0x3ffe6938:  e0030092      mul	r3, r2, r0
0x3ffe693c:  e0411003      sub	r1, r1, r3
0x3ffe6940:  e12fff1e      bx	lr

----------------
IN: 
0x3ffcda5c:  e594318c      ldr	r3, [r4, #396]
0x3ffcda60:  e7933101      ldr	r3, [r3, r1, lsl #2]
0x3ffcda64:  e3530000      cmp	r3, #0	; 0x0
0x3ffcda68:  0affff89      beq	0x3ffcd894

----------------
IN: 
0x3ffcda6c:  e5947190      ldr	r7, [r4, #400]
0x3ffcda70:  e58d604c      str	r6, [sp, #76]
0x3ffcda74:  e0877103      add	r7, r7, r3, lsl #2
0x3ffcda78:  e28d3058      add	r3, sp, #88	; 0x58
0x3ffcda7c:  e58d3034      str	r3, [sp, #52]
0x3ffcda80:  e28d305c      add	r3, sp, #92	; 0x5c
0x3ffcda84:  e58d5090      str	r5, [sp, #144]
0x3ffcda88:  e58da050      str	sl, [sp, #80]
0x3ffcda8c:  e58db054      str	fp, [sp, #84]
0x3ffcda90:  e59d6040      ldr	r6, [sp, #64]
0x3ffcda94:  e59d502c      ldr	r5, [sp, #44]
0x3ffcda98:  e59da094      ldr	sl, [sp, #148]
0x3ffcda9c:  e59db098      ldr	fp, [sp, #152]
0x3ffcdaa0:  e58d3038      str	r3, [sp, #56]
0x3ffcdaa4:  ea000001      b	0x3ffcdab0

----------------
IN: 
0x3ffcdab0:  e1a03007      mov	r3, r7
0x3ffcdab4:  e4972004      ldr	r2, [r7], #4
0x3ffcdab8:  e0221005      eor	r1, r2, r5
0x3ffcdabc:  e1b010a1      lsrs	r1, r1, #1
0x3ffcdac0:  1afffff8      bne	0x3ffcdaa8

----------------
IN: 
0x3ffcdac4:  e5942190      ldr	r2, [r4, #400]
0x3ffcdac8:  e1a01006      mov	r1, r6
0x3ffcdacc:  e0433002      sub	r3, r3, r2
0x3ffcdad0:  e59d2034      ldr	r2, [sp, #52]
0x3ffcdad4:  e1a03143      asr	r3, r3, #2
0x3ffcdad8:  e58d2018      str	r2, [sp, #24]
0x3ffcdadc:  e59d2038      ldr	r2, [sp, #56]
0x3ffcdae0:  e58d3008      str	r3, [sp, #8]
0x3ffcdae4:  e58d2014      str	r2, [sp, #20]
0x3ffcdae8:  e59d2028      ldr	r2, [sp, #40]
0x3ffcdaec:  e0883203      add	r3, r8, r3, lsl #4
0x3ffcdaf0:  e58d200c      str	r2, [sp, #12]
0x3ffcdaf4:  e58d3004      str	r3, [sp, #4]
0x3ffcdaf8:  e1a0200a      mov	r2, sl
0x3ffcdafc:  e1a0300b      mov	r3, fp
0x3ffcdb00:  e59d003c      ldr	r0, [sp, #60]
0x3ffcdb04:  e58d4010      str	r4, [sp, #16]
0x3ffcdb08:  e58d9000      str	r9, [sp]
0x3ffcdb0c:  ebfffebb      bl	0x3ffcd600

----------------
IN: 
0x3ffcd600:  e92d41f0      push	{r4, r5, r6, r7, r8, lr}
0x3ffcd604:  e59d501c      ldr	r5, [sp, #28]
0x3ffcd608:  e1a07003      mov	r7, r3
0x3ffcd60c:  e595c004      ldr	ip, [r5, #4]
0x3ffcd610:  e5d5e00c      ldrb	lr, [r5, #12]
0x3ffcd614:  e35c0000      cmp	ip, #0	; 0x0
0x3ffcd618:  e1a08001      mov	r8, r1
0x3ffcd61c:  e1a04002      mov	r4, r2
0x3ffcd620:  e59d6028      ldr	r6, [sp, #40]
0x3ffcd624:  e1d530be      ldrh	r3, [r5, #14]
0x3ffcd628:  e20ee00f      and	lr, lr, #15	; 0xf
0x3ffcd62c:  0a000041      beq	0x3ffcd738

----------------
IN: 
0x3ffcd738:  e59f2068      ldr	r2, [pc, #104]	; 0x3ffcd7a8
0x3ffcd73c:  e35e0006      cmp	lr, #6	; 0x6
0x3ffcd740:  11530002      cmpne	r3, r2
0x3ffcd744:  0affffb9      beq	0x3ffcd630

----------------
IN: 
0x3ffcd748:  e3a00000      mov	r0, #0	; 0x0
0x3ffcd74c:  e8bd81f0      pop	{r4, r5, r6, r7, r8, pc}

----------------
IN: 
0x3ffcdb10:  e3500000      cmp	r0, #0	; 0x0
0x3ffcdb14:  1affffb1      bne	0x3ffcd9e0

----------------
IN: 
0x3ffcdb18:  e5172004      ldr	r2, [r7, #-4]
0x3ffcdb1c:  eaffffe1      b	0x3ffcdaa8

----------------
IN: 
0x3ffcdaa8:  e3120001      tst	r2, #1	; 0x1
0x3ffcdaac:  1a000034      bne	0x3ffcdb84

----------------
IN: 
0x3ffcdb84:  e59d3058      ldr	r3, [sp, #88]
0x3ffcdb88:  e59d604c      ldr	r6, [sp, #76]
0x3ffcdb8c:  e3530001      cmp	r3, #1	; 0x1
0x3ffcdb90:  e59d5090      ldr	r5, [sp, #144]
0x3ffcdb94:  e59da050      ldr	sl, [sp, #80]
0x3ffcdb98:  e59db054      ldr	fp, [sp, #84]
0x3ffcdb9c:  1affff3c      bne	0x3ffcd894

----------------
IN: 
0x3ffcd894:  e2855001      add	r5, r5, #1	; 0x1
0x3ffcd898:  e15a0005      cmp	sl, r5
0x3ffcd89c:  9a0000c5      bls	0x3ffcdbb8

----------------
IN: 
0x3ffe67e0:  e1500b01      cmp	r0, r1, lsl #22
0x3ffe67e4:  e0a22002      adc	r2, r2, r2
0x3ffe67e8:  20400b01      subcs	r0, r0, r1, lsl #22
0x3ffe67ec:  e1500a81      cmp	r0, r1, lsl #21
0x3ffe67f0:  e0a22002      adc	r2, r2, r2
0x3ffe67f4:  20400a81      subcs	r0, r0, r1, lsl #21
0x3ffe67f8:  e1500a01      cmp	r0, r1, lsl #20
0x3ffe67fc:  e0a22002      adc	r2, r2, r2
0x3ffe6800:  20400a01      subcs	r0, r0, r1, lsl #20
0x3ffe6804:  e1500981      cmp	r0, r1, lsl #19
0x3ffe6808:  e0a22002      adc	r2, r2, r2
0x3ffe680c:  20400981      subcs	r0, r0, r1, lsl #19
0x3ffe6810:  e1500901      cmp	r0, r1, lsl #18
0x3ffe6814:  e0a22002      adc	r2, r2, r2
0x3ffe6818:  20400901      subcs	r0, r0, r1, lsl #18
0x3ffe681c:  e1500881      cmp	r0, r1, lsl #17
0x3ffe6820:  e0a22002      adc	r2, r2, r2
0x3ffe6824:  20400881      subcs	r0, r0, r1, lsl #17
0x3ffe6828:  e1500801      cmp	r0, r1, lsl #16
0x3ffe682c:  e0a22002      adc	r2, r2, r2
0x3ffe6830:  20400801      subcs	r0, r0, r1, lsl #16
0x3ffe6834:  e1500781      cmp	r0, r1, lsl #15
0x3ffe6838:  e0a22002      adc	r2, r2, r2
0x3ffe683c:  20400781      subcs	r0, r0, r1, lsl #15
0x3ffe6840:  e1500701      cmp	r0, r1, lsl #14
0x3ffe6844:  e0a22002      adc	r2, r2, r2
0x3ffe6848:  20400701      subcs	r0, r0, r1, lsl #14
0x3ffe684c:  e1500681      cmp	r0, r1, lsl #13
0x3ffe6850:  e0a22002      adc	r2, r2, r2
0x3ffe6854:  20400681      subcs	r0, r0, r1, lsl #13
0x3ffe6858:  e1500601      cmp	r0, r1, lsl #12
0x3ffe685c:  e0a22002      adc	r2, r2, r2
0x3ffe6860:  20400601      subcs	r0, r0, r1, lsl #12
0x3ffe6864:  e1500581      cmp	r0, r1, lsl #11
0x3ffe6868:  e0a22002      adc	r2, r2, r2
0x3ffe686c:  20400581      subcs	r0, r0, r1, lsl #11
0x3ffe6870:  e1500501      cmp	r0, r1, lsl #10
0x3ffe6874:  e0a22002      adc	r2, r2, r2
0x3ffe6878:  20400501      subcs	r0, r0, r1, lsl #10
0x3ffe687c:  e1500481      cmp	r0, r1, lsl #9
0x3ffe6880:  e0a22002      adc	r2, r2, r2
0x3ffe6884:  20400481      subcs	r0, r0, r1, lsl #9
0x3ffe6888:  e1500401      cmp	r0, r1, lsl #8
0x3ffe688c:  e0a22002      adc	r2, r2, r2
0x3ffe6890:  20400401      subcs	r0, r0, r1, lsl #8
0x3ffe6894:  e1500381      cmp	r0, r1, lsl #7
0x3ffe6898:  e0a22002      adc	r2, r2, r2
0x3ffe689c:  20400381      subcs	r0, r0, r1, lsl #7
0x3ffe68a0:  e1500301      cmp	r0, r1, lsl #6
0x3ffe68a4:  e0a22002      adc	r2, r2, r2
0x3ffe68a8:  20400301      subcs	r0, r0, r1, lsl #6
0x3ffe68ac:  e1500281      cmp	r0, r1, lsl #5
0x3ffe68b0:  e0a22002      adc	r2, r2, r2
0x3ffe68b4:  20400281      subcs	r0, r0, r1, lsl #5
0x3ffe68b8:  e1500201      cmp	r0, r1, lsl #4
0x3ffe68bc:  e0a22002      adc	r2, r2, r2
0x3ffe68c0:  20400201      subcs	r0, r0, r1, lsl #4
0x3ffe68c4:  e1500181      cmp	r0, r1, lsl #3
0x3ffe68c8:  e0a22002      adc	r2, r2, r2
0x3ffe68cc:  20400181      subcs	r0, r0, r1, lsl #3
0x3ffe68d0:  e1500101      cmp	r0, r1, lsl #2
0x3ffe68d4:  e0a22002      adc	r2, r2, r2
0x3ffe68d8:  20400101      subcs	r0, r0, r1, lsl #2
0x3ffe68dc:  e1500081      cmp	r0, r1, lsl #1
0x3ffe68e0:  e0a22002      adc	r2, r2, r2
0x3ffe68e4:  20400081      subcs	r0, r0, r1, lsl #1
0x3ffe68e8:  e1500001      cmp	r0, r1
0x3ffe68ec:  e0a22002      adc	r2, r2, r2
0x3ffe68f0:  20400001      subcs	r0, r0, r1
0x3ffe68f4:  e1a00002      mov	r0, r2
0x3ffe68f8:  e12fff1e      bx	lr

----------------
IN: 
0x3ffcd630:  e59dc018      ldr	ip, [sp, #24]
0x3ffcd634:  e59f2168      ldr	r2, [pc, #360]	; 0x3ffcd7a4
0x3ffcd638:  e3530000      cmp	r3, #0	; 0x0
0x3ffcd63c:  13a0c000      movne	ip, #0	; 0x0
0x3ffcd640:  020cc001      andeq	ip, ip, #1	; 0x1
0x3ffcd644:  e1a02e52      asr	r2, r2, lr
0x3ffcd648:  e2022001      and	r2, r2, #1	; 0x1
0x3ffcd64c:  e19cc002      orrs	ip, ip, r2
0x3ffcd650:  1a00003c      bne	0x3ffcd748

----------------
IN: 
0x3ffcd654:  e1550008      cmp	r5, r8
0x3ffcd658:  0a000006      beq	0x3ffcd678

----------------
IN: 
0x3ffcd65c:  e1a01000      mov	r1, r0
0x3ffcd660:  e59d3024      ldr	r3, [sp, #36]
0x3ffcd664:  e5950000      ldr	r0, [r5]
0x3ffcd668:  e0830000      add	r0, r3, r0
0x3ffcd66c:  eb005fae      bl	0x3ffe552c

----------------
IN: 
0x3ffe552c:  e4d03001      ldrb	r3, [r0], #1
0x3ffe5530:  e4d12001      ldrb	r2, [r1], #1
0x3ffe5534:  e3530000      cmp	r3, #0	; 0x0
0x3ffe5538:  0a000003      beq	0x3ffe554c

----------------
IN: 
0x3ffe553c:  e1530002      cmp	r3, r2
0x3ffe5540:  0afffff9      beq	0x3ffe552c

----------------
IN: 
0x3ffe554c:  e2620000      rsb	r0, r2, #0	; 0x0
0x3ffe5550:  e12fff1e      bx	lr

----------------
IN: 
0x3ffcd670:  e3500000      cmp	r0, #0	; 0x0
0x3ffcd674:  1a000033      bne	0x3ffcd748

----------------
IN: 
0x3ffcd678:  e3540000      cmp	r4, #0	; 0x0
0x3ffcd67c:  e59631b0      ldr	r3, [r6, #432]
0x3ffcd680:  0a000013      beq	0x3ffcd6d4

----------------
IN: 
0x3ffcd684:  e3530000      cmp	r3, #0	; 0x0
0x3ffcd688:  0a000036      beq	0x3ffcd768

----------------
IN: 
0x3ffcd68c:  e59d2020      ldr	r2, [sp, #32]
0x3ffcd690:  e1a02082      lsl	r2, r2, #1
0x3ffcd694:  e19370b2      ldrh	r7, [r3, r2]
0x3ffcd698:  e5962174      ldr	r2, [r6, #372]
0x3ffcd69c:  e1a03887      lsl	r3, r7, #17
0x3ffcd6a0:  e1a038a3      lsr	r3, r3, #17
0x3ffcd6a4:  e0821203      add	r1, r2, r3, lsl #4
0x3ffcd6a8:  e5916004      ldr	r6, [r1, #4]
0x3ffcd6ac:  e5941004      ldr	r1, [r4, #4]
0x3ffcd6b0:  e1560001      cmp	r6, r1
0x3ffcd6b4:  0a000025      beq	0x3ffcd750

----------------
IN: 
0x3ffcd750:  e7920203      ldr	r0, [r2, r3, lsl #4]
0x3ffcd754:  e5941000      ldr	r1, [r4]
0x3ffcd758:  eb005f73      bl	0x3ffe552c

----------------
IN: 
0x3ffcd75c:  e3500000      cmp	r0, #0	; 0x0
0x3ffcd760:  0affffd9      beq	0x3ffcd6cc

----------------
IN: 
0x3ffcd6cc:  e1a00005      mov	r0, r5
0x3ffcd6d0:  e8bd81f0      pop	{r4, r5, r6, r7, r8, pc}

----------------
IN: 
0x3ffcd9e0:  e1a03000      mov	r3, r0
0x3ffcd9e4:  e59d604c      ldr	r6, [sp, #76]
0x3ffcd9e8:  e59d5090      ldr	r5, [sp, #144]
0x3ffcd9ec:  e59da050      ldr	sl, [sp, #80]
0x3ffcd9f0:  e59db054      ldr	fp, [sp, #84]
0x3ffcd9f4:  e59d20a4      ldr	r2, [sp, #164]
0x3ffcd9f8:  e3520000      cmp	r2, #0	; 0x0
0x3ffcd9fc:  0a000047      beq	0x3ffcdb20

----------------
IN: 
0x3ffcda00:  e5d3200d      ldrb	r2, [r3, #13]
0x3ffcda04:  e2022003      and	r2, r2, #3	; 0x3
0x3ffcda08:  e2421001      sub	r1, r2, #1	; 0x1
0x3ffcda0c:  e3510001      cmp	r1, #1	; 0x1
0x3ffcda10:  9affff9f      bls	0x3ffcd894

----------------
IN: 
0x3ffcda14:  e3520003      cmp	r2, #3	; 0x3
0x3ffcda18:  0a0000b5      beq	0x3ffcdcf4

----------------
IN: 
0x3ffcda1c:  e5d3200c      ldrb	r2, [r3, #12]
0x3ffcda20:  e1a02222      lsr	r2, r2, #4
0x3ffcda24:  e3520002      cmp	r2, #2	; 0x2
0x3ffcda28:  0a00004a      beq	0x3ffcdb58

----------------
IN: 
0x3ffcda2c:  e352000a      cmp	r2, #10	; 0xa
0x3ffcda30:  0a000063      beq	0x3ffcdbc4

----------------
IN: 
0x3ffcda34:  e3520001      cmp	r2, #1	; 0x1
0x3ffcda38:  1affff95      bne	0x3ffcd894

----------------
IN: 
0x3ffcda3c:  e59d2088      ldr	r2, [sp, #136]
0x3ffcda40:  e5823000      str	r3, [r2]
0x3ffcda44:  e5824004      str	r4, [r2, #4]
0x3ffcda48:  e3a00001      mov	r0, #1	; 0x1
0x3ffcda4c:  e28dd064      add	sp, sp, #100	; 0x64
0x3ffcda50:  e8bd8ff0      pop	{r4, r5, r6, r7, r8, r9, sl, fp, pc}

----------------
IN: 
0x3ffce5b4:  e3500000      cmp	r0, #0	; 0x0
0x3ffce5b8:  0affffea      beq	0x3ffce568

----------------
IN: 
0x3ffce5bc:  e59dc05c      ldr	ip, [sp, #92]
0x3ffce5c0:  e1a08007      mov	r8, r7
0x3ffce5c4:  e35c0000      cmp	ip, #0	; 0x0
0x3ffce5c8:  e5993000      ldr	r3, [r9]
0x3ffce5cc:  0a00006b      beq	0x3ffce780

----------------
IN: 
0x3ffce5d0:  e3530000      cmp	r3, #0	; 0x0
0x3ffce5d4:  0a000003      beq	0x3ffce5e8

----------------
IN: 
0x3ffce5d8:  e5d3000d      ldrb	r0, [r3, #13]
0x3ffce5dc:  e2000003      and	r0, r0, #3	; 0x3
0x3ffce5e0:  e3500003      cmp	r0, #3	; 0x3
0x3ffce5e4:  0a000017      beq	0x3ffce648

----------------
IN: 
0x3ffce5e8:  e3a03000      mov	r3, #0	; 0x0
0x3ffce5ec:  e59d5060      ldr	r5, [sp, #96]
0x3ffce5f0:  e58d3028      str	r3, [sp, #40]
0x3ffce5f4:  e5d53198      ldrb	r3, [r5, #408]
0x3ffce5f8:  e2033003      and	r3, r3, #3	; 0x3
0x3ffce5fc:  e3530002      cmp	r3, #2	; 0x2
0x3ffce600:  0a0000f3      beq	0x3ffce9d4

----------------
IN: 
0x3ffce604:  e1a08005      mov	r8, r5
0x3ffce608:  e58d5020      str	r5, [sp, #32]
0x3ffce60c:  e59d505c      ldr	r5, [sp, #92]
0x3ffce610:  e598320c      ldr	r3, [r8, #524]
0x3ffce614:  e59f2e20      ldr	r2, [pc, #3616]	; 0x3ffcf43c
0x3ffce618:  e3530000      cmp	r3, #0	; 0x0
0x3ffce61c:  03a03001      moveq	r3, #1	; 0x1
0x3ffce620:  0588320c      streq	r3, [r8, #524]
0x3ffce624:  e59f3e14      ldr	r3, [pc, #3604]	; 0x3ffcf440
0x3ffce628:  e08f3003      add	r3, pc, r3
0x3ffce62c:  e5933000      ldr	r3, [r3]
0x3ffce630:  e1130002      tst	r3, r2
0x3ffce634:  1a000080      bne	0x3ffce83c

----------------
IN: 
0x3ffce638:  e59d0020      ldr	r0, [sp, #32]
0x3ffce63c:  e5895000      str	r5, [r9]
0x3ffce640:  e28dd07c      add	sp, sp, #124	; 0x7c
0x3ffce644:  e8bd8ff0      pop	{r4, r5, r6, r7, r8, r9, sl, fp, pc}

----------------
IN: 
0x3ffd5810:  e5173580      ldr	r3, [r7, #-1408]
0x3ffd5814:  e1a09000      mov	r9, r0
0x3ffd5818:  e3530000      cmp	r3, #0	; 0x0
0x3ffd581c:  1a000027      bne	0x3ffd58c0

----------------
IN: 
0x3ffd5820:  e59d3010      ldr	r3, [sp, #16]
0x3ffd5824:  e3530000      cmp	r3, #0	; 0x0
0x3ffd5828:  058d3014      streq	r3, [sp, #20]
0x3ffd582c:  0a00000d      beq	0x3ffd5868

----------------
IN: 
0x3ffd5830:  e1d320be      ldrh	r2, [r3, #14]
0x3ffd5834:  e59f1194      ldr	r1, [pc, #404]	; 0x3ffd59d0
0x3ffd5838:  e1520001      cmp	r2, r1
0x3ffd583c:  13590000      cmpne	r9, #0	; 0x0
0x3ffd5840:  13a02001      movne	r2, #1	; 0x1
0x3ffd5844:  03a02000      moveq	r2, #0	; 0x0
0x3ffd5848:  15992000      ldrne	r2, [r9]
0x3ffd584c:  e5931004      ldr	r1, [r3, #4]
0x3ffd5850:  e0822001      add	r2, r2, r1
0x3ffd5854:  e58d2014      str	r2, [sp, #20]
0x3ffd5858:  e5d3300c      ldrb	r3, [r3, #12]
0x3ffd585c:  e203300f      and	r3, r3, #15	; 0xf
0x3ffd5860:  e353000a      cmp	r3, #10	; 0xa
0x3ffd5864:  0a00004b      beq	0x3ffd5998

----------------
IN: 
0x3ffd5868:  e59571ac      ldr	r7, [r5, #428]
0x3ffd586c:  e3570000      cmp	r7, #0	; 0x0
0x3ffd5870:  059d0014      ldreq	r0, [sp, #20]
0x3ffd5874:  0a00000a      beq	0x3ffd58a4

----------------
IN: 
0x3ffd58a4:  e59f3128      ldr	r3, [pc, #296]	; 0x3ffd59d4
0x3ffd58a8:  e08f3003      add	r3, pc, r3
0x3ffd58ac:  e5933034      ldr	r3, [r3, #52]
0x3ffd58b0:  e3530000      cmp	r3, #0	; 0x0
0x3ffd58b4:  05880000      streq	r0, [r8]
0x3ffd58b8:  e28dd01c      add	sp, sp, #28	; 0x1c
0x3ffd58bc:  e8bd83f0      pop	{r4, r5, r6, r7, r8, r9, pc}

----------------
IN: 
0x3ffd7b44:  e1a0c000      mov	ip, r0
0x3ffd7b48:  e8bd401f      pop	{r0, r1, r2, r3, r4, lr}
0x3ffd7b4c:  e12fff1c      bx	ip

----------------
IN: 
0x3fe2d9d4:  e92d4ff0      push	{r4, r5, r6, r7, r8, r9, sl, fp, lr}
0x3fe2d9d8:  e24dd00c      sub	sp, sp, #12	; 0xc
0x3fe2d9dc:  e59dc034      ldr	ip, [sp, #52]
0x3fe2d9e0:  e59f6144      ldr	r6, [pc, #324]	; 0x3fe2db2c
0x3fe2d9e4:  e35c0000      cmp	ip, #0	; 0x0
0x3fe2d9e8:  e08f6006      add	r6, pc, r6
0x3fe2d9ec:  e1a08000      mov	r8, r0
0x3fe2d9f0:  e1a05001      mov	r5, r1
0x3fe2d9f4:  e1a04002      mov	r4, r2
0x3fe2d9f8:  e1a07003      mov	r7, r3
0x3fe2d9fc:  0a000003      beq	0x3fe2da10

----------------
IN: 
0x3fe2da00:  e3a02000      mov	r2, #0	; 0x0
0x3fe2da04:  e1a0000c      mov	r0, ip
0x3fe2da08:  e1a01002      mov	r1, r2
0x3fe2da0c:  eb0067f8      bl	0x3fe479f4

----------------
IN: 
0x3fe479f4:  e59f3004      ldr	r3, [pc, #4]	; 0x3fe47a00
0x3fe479f8:  e08f3003      add	r3, pc, r3
0x3fe479fc:  eaffff9c      b	0x3fe47874

----------------
IN: 
0x3fe47874:  e92d47f0      push	{r4, r5, r6, r7, r8, r9, sl, lr}
0x3fe47878:  e59f915c      ldr	r9, [pc, #348]	; 0x3fe479dc
0x3fe4787c:  e2505000      subs	r5, r0, #0	; 0x0
0x3fe47880:  e08f9009      add	r9, pc, r9
0x3fe47884:  0a000048      beq	0x3fe479ac

----------------
IN: 
0x3fe47888:  e1a0a003      mov	sl, r3
0x3fe4788c:  e59f314c      ldr	r3, [pc, #332]	; 0x3fe479e0
0x3fe47890:  e1a08001      mov	r8, r1
0x3fe47894:  e7996003      ldr	r6, [r9, r3]
0x3fe47898:  e1a07002      mov	r7, r2
0x3fe4789c:  e3a01001      mov	r1, #1	; 0x1
0x3fe478a0:  e1a02006      mov	r2, r6
0x3fe478a4:  e3a04000      mov	r4, #0	; 0x0
0x3fe478a8:  e5923000      ldr	r3, [r2]
0x3fe478ac:  e1530004      cmp	r3, r4
0x3fe478b0:  1a000005      bne	0x3fe478cc

----------------
IN: 
0x3fe478b4:  e1a00004      mov	r0, r4
0x3fe478b8:  e3e03a0f      mvn	r3, #61440	; 0xf000
0x3fe478bc:  e1a0e00f      mov	lr, pc
0x3fe478c0:  e243f03f      sub	pc, r3, #63	; 0x3f

----------------
IN: 
0xffff0fc0:  Address 0xffff0fc0 is out of bounds.


----------------
IN: 
0x3fe478c4:  3afffff7      bcc	0x3fe478a8

----------------
IN: 
0x3fe478c8:  e1a03004      mov	r3, r4
0x3fe478cc:  e1530004      cmp	r3, r4
0x3fe478d0:  1a00001d      bne	0x3fe4794c

----------------
IN: 
0x3fe478d4:  e1a0000a      mov	r0, sl
0x3fe478d8:  ebffff98      bl	0x3fe47740

----------------
IN: 
0x3fe47740:  e59f3118      ldr	r3, [pc, #280]	; 0x3fe47860
0x3fe47744:  e08f3003      add	r3, pc, r3
0x3fe47748:  e5d33000      ldrb	r3, [r3]
0x3fe4774c:  e3530000      cmp	r3, #0	; 0x0
0x3fe47750:  1a000034      bne	0x3fe47828

----------------
IN: 
0x3fe47754:  e92d4070      push	{r4, r5, r6, lr}
0x3fe47758:  e5905000      ldr	r5, [r0]
0x3fe4775c:  e1a04000      mov	r4, r0
0x3fe47760:  e3550000      cmp	r5, #0	; 0x0
0x3fe47764:  0a000027      beq	0x3fe47808

----------------
IN: 
0x3fe47768:  e1a0e005      mov	lr, r5
0x3fe4776c:  e1a00003      mov	r0, r3
0x3fe47770:  e59e3004      ldr	r3, [lr, #4]
0x3fe47774:  e28ec008      add	ip, lr, #8	; 0x8
0x3fe47778:  ea000004      b	0x3fe47790

----------------
IN: 
0x3fe47790:  e3530000      cmp	r3, #0	; 0x0
0x3fe47794:  1afffff8      bne	0x3fe4777c

----------------
IN: 
0x3fe47798:  e59e2000      ldr	r2, [lr]
0x3fe4779c:  e1a0000e      mov	r0, lr
0x3fe477a0:  e3520000      cmp	r2, #0	; 0x0
0x3fe477a4:  e58e3004      str	r3, [lr, #4]
0x3fe477a8:  0a000012      beq	0x3fe477f8

----------------
IN: 
0x3fe477f8:  e3a03001      mov	r3, #1	; 0x1
0x3fe477fc:  e28e0008      add	r0, lr, #8	; 0x8
0x3fe47800:  e58e3004      str	r3, [lr, #4]
0x3fe47804:  eafffff0      b	0x3fe477cc

----------------
IN: 
0x3fe477cc:  e3a0c001      mov	ip, #1	; 0x1
0x3fe477d0:  e59f208c      ldr	r2, [pc, #140]	; 0x3fe47864
0x3fe477d4:  e08f2002      add	r2, pc, r2
0x3fe477d8:  e5923000      ldr	r3, [r2]
0x3fe477dc:  e5921004      ldr	r1, [r2, #4]
0x3fe477e0:  e093300c      adds	r3, r3, ip
0x3fe477e4:  e2a11000      adc	r1, r1, #0	; 0x0
0x3fe477e8:  e580c000      str	ip, [r0]
0x3fe477ec:  e5823000      str	r3, [r2]
0x3fe477f0:  e5821004      str	r1, [r2, #4]
0x3fe477f4:  e8bd8070      pop	{r4, r5, r6, pc}

----------------
IN: 
0x3fe478dc:  e3500000      cmp	r0, #0	; 0x0
0x3fe478e0:  0a00001f      beq	0x3fe47964

----------------
IN: 
0x3fe478e4:  e3a03004      mov	r3, #4	; 0x4
0x3fe478e8:  e59f20f4      ldr	r2, [pc, #244]	; 0x3fe479e4
0x3fe478ec:  e7992002      ldr	r2, [r9, r2]
0x3fe478f0:  e5808008      str	r8, [r0, #8]
0x3fe478f4:  e5922000      ldr	r2, [r2]
0x3fe478f8:  e580700c      str	r7, [r0, #12]
0x3fe478fc:  e0255002      eor	r5, r5, r2
0x3fe47900:  e8800028      stm	r0, {r3, r5}
0x3fe47904:  e3a01000      mov	r1, #0	; 0x0
0x3fe47908:  e1a02006      mov	r2, r6
0x3fe4790c:  e5964000      ldr	r4, [r6]
0x3fe47910:  e5923000      ldr	r3, [r2]
0x3fe47914:  e1530004      cmp	r3, r4
0x3fe47918:  1a000005      bne	0x3fe47934

----------------
IN: 
0x3fe4791c:  e1a00004      mov	r0, r4
0x3fe47920:  e3e03a0f      mvn	r3, #61440	; 0xf000
0x3fe47924:  e1a0e00f      mov	lr, pc
0x3fe47928:  e243f03f      sub	pc, r3, #63	; 0x3f

----------------
IN: 
0x3fe4792c:  3afffff7      bcc	0x3fe47910

----------------
IN: 
0x3fe47930:  e1a03004      mov	r3, r4
0x3fe47934:  e1540003      cmp	r4, r3
0x3fe47938:  1afffff1      bne	0x3fe47904

----------------
IN: 
0x3fe4793c:  e3540001      cmp	r4, #1	; 0x1
0x3fe47940:  ca000004      bgt	0x3fe47958

----------------
IN: 
0x3fe47944:  e3a00000      mov	r0, #0	; 0x0
0x3fe47948:  e8bd87f0      pop	{r4, r5, r6, r7, r8, r9, sl, pc}

----------------
IN: 
0x3fe2da10:  e59f3118      ldr	r3, [pc, #280]	; 0x3fe2db30
0x3fe2da14:  e7963003      ldr	r3, [r6, r3]
0x3fe2da18:  e58d3004      str	r3, [sp, #4]
0x3fe2da1c:  e5933000      ldr	r3, [r3]
0x3fe2da20:  e213a002      ands	sl, r3, #2	; 0x2
0x3fe2da24:  1a000039      bne	0x3fe2db10

----------------
IN: 
0x3fe2da28:  e59f3104      ldr	r3, [pc, #260]	; 0x3fe2db34
0x3fe2da2c:  e3570000      cmp	r7, #0	; 0x0
0x3fe2da30:  e7963003      ldr	r3, [r6, r3]
0x3fe2da34:  e5939000      ldr	r9, [r3]
0x3fe2da38:  0a00000d      beq	0x3fe2da74

----------------
IN: 
0x3fe2da74:  e59f30bc      ldr	r3, [pc, #188]	; 0x3fe2db38
0x3fe2da78:  e7967003      ldr	r7, [r6, r3]
0x3fe2da7c:  e597b000      ldr	fp, [r7]
0x3fe2da80:  e59b3050      ldr	r3, [fp, #80]
0x3fe2da84:  e3530000      cmp	r3, #0	; 0x0
0x3fe2da88:  0a000006      beq	0x3fe2daa8

----------------
IN: 
0x3fe2da8c:  e5931004      ldr	r1, [r3, #4]
0x3fe2da90:  e59b3000      ldr	r3, [fp]
0x3fe2da94:  e1a02009      mov	r2, r9
0x3fe2da98:  e0833001      add	r3, r3, r1
0x3fe2da9c:  e1a00005      mov	r0, r5
0x3fe2daa0:  e1a01004      mov	r1, r4
0x3fe2daa4:  e12fff33      blx	r3

----------------
IN: 
0x00010444:  e92d4008      push	{r3, lr}

----------------
IN: 
0x00010448:  eb000034      bl	0x10520

----------------
IN: 
0x00010520:  e59f3014      ldr	r3, [pc, #20]	; 0x1053c

----------------
IN: 
0x00010524:  e59f2014      ldr	r2, [pc, #20]	; 0x10540

----------------
IN: 
0x00010528:  e08f3003      add	r3, pc, r3

----------------
IN: 
0x0001052c:  e7932002      ldr	r2, [r3, r2]

----------------
IN: 
0x00010530:  e3520000      cmp	r2, #0	; 0x0

----------------
IN: 
0x00010534:  012fff1e      bxeq	lr

----------------
IN: 
0x0001044c:  e8bd8008      pop	{r3, pc}

----------------
IN: 
0x3fe2daa8:  e59b3084      ldr	r3, [fp, #132]
0x3fe2daac:  e3530000      cmp	r3, #0	; 0x0
0x3fe2dab0:  0affffe7      beq	0x3fe2da54

----------------
IN: 
0x3fe2dab4:  e5936004      ldr	r6, [r3, #4]
0x3fe2dab8:  e59b308c      ldr	r3, [fp, #140]
0x3fe2dabc:  e59b1000      ldr	r1, [fp]
0x3fe2dac0:  e593b004      ldr	fp, [r3, #4]
0x3fe2dac4:  e0866001      add	r6, r6, r1
0x3fe2dac8:  e1b0b12b      lsrs	fp, fp, #2
0x3fe2dacc:  0affffe0      beq	0x3fe2da54

----------------
IN: 
0x3fe2dad0:  e086b10b      add	fp, r6, fp, lsl #2
0x3fe2dad4:  e4963004      ldr	r3, [r6], #4
0x3fe2dad8:  e1a02009      mov	r2, r9
0x3fe2dadc:  e1a01004      mov	r1, r4
0x3fe2dae0:  e1a00005      mov	r0, r5
0x3fe2dae4:  e12fff33      blx	r3

----------------
IN: 
0x000105d0:  eaffffe6      b	0x10570

----------------
IN: 
0x00010570:  e59f0024      ldr	r0, [pc, #36]	; 0x1059c

----------------
IN: 
0x00010574:  e59f3024      ldr	r3, [pc, #36]	; 0x105a0

----------------
IN: 
0x00010578:  e0433000      sub	r3, r3, r0

----------------
IN: 
0x0001057c:  e1a01fa3      lsr	r1, r3, #31

----------------
IN: 
0x00010580:  e0811143      add	r1, r1, r3, asr #2

----------------
IN: 
0x00010584:  e1b010c1      asrs	r1, r1, #1

----------------
IN: 
0x00010588:  012fff1e      bxeq	lr

----------------
IN: 
0x3fe2dae8:  e15b0006      cmp	fp, r6
0x3fe2daec:  1afffff8      bne	0x3fe2dad4

----------------
IN: 
0x3fe2daf0:  eaffffd7      b	0x3fe2da54

----------------
IN: 
0x3fe2da54:  e5970000      ldr	r0, [r7]
0x3fe2da58:  ebfffe99      bl	0x3fe2d4c4

----------------
IN: 
0x3fe2d4c4:  e28fc601      add	ip, pc, #1048576	; 0x100000
0x3fe2d4c8:  e28cca69      add	ip, ip, #430080	; 0x69000
0x3fe2d4cc:  e5bcfb80      ldr	pc, [ip, #2944]!

----------------
IN: 
0x3fe2d3f0:  e52de004      push	{lr}		; (str lr, [sp, #-4]!)
0x3fe2d3f4:  e59fe004      ldr	lr, [pc, #4]	; 0x3fe2d400
0x3fe2d3f8:  e08fe00e      add	lr, pc, lr
0x3fe2d3fc:  e5bef008      ldr	pc, [lr, #8]!

----------------
IN: 
0x3ffe6828:  e1500801      cmp	r0, r1, lsl #16
0x3ffe682c:  e0a22002      adc	r2, r2, r2
0x3ffe6830:  20400801      subcs	r0, r0, r1, lsl #16
0x3ffe6834:  e1500781      cmp	r0, r1, lsl #15
0x3ffe6838:  e0a22002      adc	r2, r2, r2
0x3ffe683c:  20400781      subcs	r0, r0, r1, lsl #15
0x3ffe6840:  e1500701      cmp	r0, r1, lsl #14
0x3ffe6844:  e0a22002      adc	r2, r2, r2
0x3ffe6848:  20400701      subcs	r0, r0, r1, lsl #14
0x3ffe684c:  e1500681      cmp	r0, r1, lsl #13
0x3ffe6850:  e0a22002      adc	r2, r2, r2
0x3ffe6854:  20400681      subcs	r0, r0, r1, lsl #13
0x3ffe6858:  e1500601      cmp	r0, r1, lsl #12
0x3ffe685c:  e0a22002      adc	r2, r2, r2
0x3ffe6860:  20400601      subcs	r0, r0, r1, lsl #12
0x3ffe6864:  e1500581      cmp	r0, r1, lsl #11
0x3ffe6868:  e0a22002      adc	r2, r2, r2
0x3ffe686c:  20400581      subcs	r0, r0, r1, lsl #11
0x3ffe6870:  e1500501      cmp	r0, r1, lsl #10
0x3ffe6874:  e0a22002      adc	r2, r2, r2
0x3ffe6878:  20400501      subcs	r0, r0, r1, lsl #10
0x3ffe687c:  e1500481      cmp	r0, r1, lsl #9
0x3ffe6880:  e0a22002      adc	r2, r2, r2
0x3ffe6884:  20400481      subcs	r0, r0, r1, lsl #9
0x3ffe6888:  e1500401      cmp	r0, r1, lsl #8
0x3ffe688c:  e0a22002      adc	r2, r2, r2
0x3ffe6890:  20400401      subcs	r0, r0, r1, lsl #8
0x3ffe6894:  e1500381      cmp	r0, r1, lsl #7
0x3ffe6898:  e0a22002      adc	r2, r2, r2
0x3ffe689c:  20400381      subcs	r0, r0, r1, lsl #7
0x3ffe68a0:  e1500301      cmp	r0, r1, lsl #6
0x3ffe68a4:  e0a22002      adc	r2, r2, r2
0x3ffe68a8:  20400301      subcs	r0, r0, r1, lsl #6
0x3ffe68ac:  e1500281      cmp	r0, r1, lsl #5
0x3ffe68b0:  e0a22002      adc	r2, r2, r2
0x3ffe68b4:  20400281      subcs	r0, r0, r1, lsl #5
0x3ffe68b8:  e1500201      cmp	r0, r1, lsl #4
0x3ffe68bc:  e0a22002      adc	r2, r2, r2
0x3ffe68c0:  20400201      subcs	r0, r0, r1, lsl #4
0x3ffe68c4:  e1500181      cmp	r0, r1, lsl #3
0x3ffe68c8:  e0a22002      adc	r2, r2, r2
0x3ffe68cc:  20400181      subcs	r0, r0, r1, lsl #3
0x3ffe68d0:  e1500101      cmp	r0, r1, lsl #2
0x3ffe68d4:  e0a22002      adc	r2, r2, r2
0x3ffe68d8:  20400101      subcs	r0, r0, r1, lsl #2
0x3ffe68dc:  e1500081      cmp	r0, r1, lsl #1
0x3ffe68e0:  e0a22002      adc	r2, r2, r2
0x3ffe68e4:  20400081      subcs	r0, r0, r1, lsl #1
0x3ffe68e8:  e1500001      cmp	r0, r1
0x3ffe68ec:  e0a22002      adc	r2, r2, r2
0x3ffe68f0:  20400001      subcs	r0, r0, r1
0x3ffe68f4:  e1a00002      mov	r0, r2
0x3ffe68f8:  e12fff1e      bx	lr

----------------
IN: 
0x3ffda250:  e92d47f0      push	{r4, r5, r6, r7, r8, r9, sl, lr}
0x3ffda254:  e59f8074      ldr	r8, [pc, #116]	; 0x3ffda2d0
0x3ffda258:  e08f8008      add	r8, pc, r8
0x3ffda25c:  e59831e8      ldr	r3, [r8, #488]
0x3ffda260:  e3530000      cmp	r3, #0	; 0x0
0x3ffda264:  08bd87f0      popeq	{r4, r5, r6, r7, r8, r9, sl, pc}

----------------
IN: 
0x3fe2da5c:  e35a0000      cmp	sl, #0	; 0x0
0x3fe2da60:  1a000023      bne	0x3fe2daf4

----------------
IN: 
0x3fe2da64:  e1a02004      mov	r2, r4
0x3fe2da68:  e1a01005      mov	r1, r5
0x3fe2da6c:  e1a00008      mov	r0, r8
0x3fe2da70:  ebffff93      bl	0x3fe2d8c4

----------------
IN: 
0x3fe2d8c4:  e59fc0f4      ldr	ip, [pc, #244]	; 0x3fe2d9c0
0x3fe2d8c8:  e1a03000      mov	r3, r0
0x3fe2d8cc:  e08fc00c      add	ip, pc, ip
0x3fe2d8d0:  e1a0400c      mov	r4, ip
0x3fe2d8d4:  e92d4080      push	{r7, lr}
0x3fe2d8d8:  e59fe0e4      ldr	lr, [pc, #228]	; 0x3fe2d9c4
0x3fe2d8dc:  e59fc0e4      ldr	ip, [pc, #228]	; 0x3fe2d9c8
0x3fe2d8e0:  e08fe00e      add	lr, pc, lr
0x3fe2d8e4:  e24dde13      sub	sp, sp, #304	; 0x130
0x3fe2d8e8:  e79ec00c      ldr	ip, [lr, ip]
0x3fe2d8ec:  e28d0010      add	r0, sp, #16	; 0x10
0x3fe2d8f0:  e59cc000      ldr	ip, [ip]
0x3fe2d8f4:  e58dc12c      str	ip, [sp, #300]
0x3fe2d8f8:  e3a0c000      mov	ip, #0	; 0x0
0x3fe2d8fc:  e58d4000      str	r4, [sp]
0x3fe2d900:  e58d3004      str	r3, [sp, #4]
0x3fe2d904:  e58d1008      str	r1, [sp, #8]
0x3fe2d908:  e58d200c      str	r2, [sp, #12]
0x3fe2d90c:  eb005b07      bl	0x3fe44530

----------------
IN: 
0x3fe44530:  e3a01000      mov	r1, #0	; 0x0
0x3fe44534:  eaffffc9      b	0x3fe44460

----------------
IN: 
0x3fe44460:  e59fc06c      ldr	ip, [pc, #108]	; 0x3fe444d4
0x3fe44464:  e59f206c      ldr	r2, [pc, #108]	; 0x3fe444d8
0x3fe44468:  e08cc00f      add	ip, ip, pc
0x3fe4446c:  e79cc002      ldr	ip, [ip, r2]
0x3fe44470:  e59c2000      ldr	r2, [ip]
0x3fe44474:  e1a0c000      mov	ip, r0
0x3fe44478:  e1a0300d      mov	r3, sp
0x3fe4447c:  e0233002      eor	r3, r3, r2
0x3fe44480:  e48c3004      str	r3, [ip], #4
0x3fe44484:  e02e3002      eor	r3, lr, r2
0x3fe44488:  e48c3004      str	r3, [ip], #4
0x3fe4448c:  e8ac0ff0      stmia	ip!, {r4, r5, r6, r7, r8, r9, sl, fp}
0x3fe44490:  e59f3044      ldr	r3, [pc, #68]	; 0x3fe444dc
0x3fe44494:  e59f2044      ldr	r2, [pc, #68]	; 0x3fe444e0
0x3fe44498:  e083300f      add	r3, r3, pc
0x3fe4449c:  e7933002      ldr	r3, [r3, r2]
0x3fe444a0:  e5932048      ldr	r2, [r3, #72]
0x3fe444a4:  e3120040      tst	r2, #64	; 0x40
0x3fe444a8:  0a000000      beq	0x3fe444b0

----------------
IN: 
0x3fe444ac:  ecac8b10      vstmia	ip!, {d8-d15}
0x3fe444b0:  e3120c02      tst	r2, #512	; 0x200
0x3fe444b4:  0a000005      beq	0x3fe444d0

----------------
IN: 
0x3fe444d0:  ea000003      b	0x3fe444e4

----------------
IN: 
0x3fe444e4:  e3510000      cmp	r1, #0	; 0x0
0x3fe444e8:  e92d4010      push	{r4, lr}
0x3fe444ec:  e1a04000      mov	r4, r0
0x3fe444f0:  1a000002      bne	0x3fe44500

----------------
IN: 
0x3fe444f4:  e3a00000      mov	r0, #0	; 0x0
0x3fe444f8:  e5841100      str	r1, [r4, #256]
0x3fe444fc:  e8bd8010      pop	{r4, pc}

----------------
IN: 
0x3fe2d910:  e3500000      cmp	r0, #0	; 0x0
0x3fe2d914:  1a000010      bne	0x3fe2d95c

----------------
IN: 
0x3fe2d918:  eb000174      bl	0x3fe2def0

----------------
IN: 
0x3fe2def0:  e3e00a0f      mvn	r0, #61440	; 0xf000
0x3fe2def4:  e240f01f      sub	pc, r0, #31	; 0x1f

----------------
IN: 
0x3fe2d91c:  e1a03000      mov	r3, r0
0x3fe2d920:  e28dc010      add	ip, sp, #16	; 0x10
0x3fe2d924:  e513e500      ldr	lr, [r3, #-1280]
0x3fe2d928:  e503c500      str	ip, [r3, #-1280]
0x3fe2d92c:  e5133504      ldr	r3, [r3, #-1284]
0x3fe2d930:  e59f2094      ldr	r2, [pc, #148]	; 0x3fe2d9cc
0x3fe2d934:  e59dc000      ldr	ip, [sp]
0x3fe2d938:  e58de118      str	lr, [sp, #280]
0x3fe2d93c:  e58d311c      str	r3, [sp, #284]
0x3fe2d940:  e79c3002      ldr	r3, [ip, r2]
0x3fe2d944:  e59d100c      ldr	r1, [sp, #12]
0x3fe2d948:  e5932000      ldr	r2, [r3]
0x3fe2d94c:  e59d0008      ldr	r0, [sp, #8]
0x3fe2d950:  e59d3004      ldr	r3, [sp, #4]
0x3fe2d954:  e12fff33      blx	r3

----------------
IN: main
0x000105d4:  e92d4800      push	{fp, lr}

----------------
IN: main
0x000105d8:  e28db004      add	fp, sp, #4	; 0x4

----------------
IN: main
0x000105dc:  e24dd058      sub	sp, sp, #88	; 0x58

----------------
IN: main
0x000105e0:  e50b0048      str	r0, [fp, #-72]

----------------
IN: main
0x000105e4:  e50b104c      str	r1, [fp, #-76]

----------------
IN: main
0x000105e8:  e59f326c      ldr	r3, [pc, #620]	; 0x1085c

----------------
IN: main
0x000105ec:  e5933000      ldr	r3, [r3]

----------------
IN: main
0x000105f0:  e50b3008      str	r3, [fp, #-8]

----------------
IN: main
0x000105f4:  e3a03000      mov	r3, #0	; 0x0

----------------
IN: main
0x000105f8:  e24b3040      sub	r3, fp, #64	; 0x40

----------------
IN: main
0x000105fc:  e1a01003      mov	r1, r3

----------------
IN: main
0x00010600:  e59f0258      ldr	r0, [pc, #600]	; 0x10860

----------------
IN: main
0x00010604:  ebffffae      bl	0x104c4

----------------
IN: 
0x000104c4:  e28fc600      add	ip, pc, #0	; 0x0

----------------
IN: 
0x000104c8:  e28cca10      add	ip, ip, #65536	; 0x10000

----------------
IN: 
0x000104cc:  e5bcfb60      ldr	pc, [ip, #2912]!

----------------
IN: 
0x3fe5dc0c:  e92d000f      push	{r0, r1, r2, r3}
0x3fe5dc10:  e52de004      push	{lr}		; (str lr, [sp, #-4]!)
0x3fe5dc14:  e59f2078      ldr	r2, [pc, #120]	; 0x3fe5dc94
0x3fe5dc18:  e59f3078      ldr	r3, [pc, #120]	; 0x3fe5dc98
0x3fe5dc1c:  e08f2002      add	r2, pc, r2
0x3fe5dc20:  e7923003      ldr	r3, [r2, r3]
0x3fe5dc24:  e24dd00c      sub	sp, sp, #12	; 0xc
0x3fe5dc28:  e5933000      ldr	r3, [r3]
0x3fe5dc2c:  e58d3004      str	r3, [sp, #4]
0x3fe5dc30:  e3a03000      mov	r3, #0	; 0x0
0x3fe5dc34:  e59f0060      ldr	r0, [pc, #96]	; 0x3fe5dc9c
0x3fe5dc38:  e28d2014      add	r2, sp, #20	; 0x14
0x3fe5dc3c:  e59fc05c      ldr	ip, [pc, #92]	; 0x3fe5dca0
0x3fe5dc40:  e58d2000      str	r2, [sp]
0x3fe5dc44:  e08f0000      add	r0, pc, r0
0x3fe5dc48:  e790000c      ldr	r0, [r0, ip]
0x3fe5dc4c:  e3a03002      mov	r3, #2	; 0x2
0x3fe5dc50:  e59d1010      ldr	r1, [sp, #16]
0x3fe5dc54:  e5900000      ldr	r0, [r0]
0x3fe5dc58:  eb00029e      bl	0x3fe5e6d8

----------------
IN: 
0x3fe5e6d8:  e92d4ff0      push	{r4, r5, r6, r7, r8, r9, sl, fp, lr}
0x3fe5e6dc:  e28db020      add	fp, sp, #32	; 0x20
0x3fe5e6e0:  e24dde5e      sub	sp, sp, #1504	; 0x5e0
0x3fe5e6e4:  e24dd004      sub	sp, sp, #4	; 0x4
0x3fe5e6e8:  e59fcf10      ldr	ip, [pc, #3856]	; 0x3fe5f600
0x3fe5e6ec:  e1a09000      mov	r9, r0
0x3fe5e6f0:  e59f0f0c      ldr	r0, [pc, #3852]	; 0x3fe5f604
0x3fe5e6f4:  e08fc00c      add	ip, pc, ip
0x3fe5e6f8:  e79c0000      ldr	r0, [ip, r0]
0x3fe5e6fc:  e24b5d11      sub	r5, fp, #1088	; 0x440
0x3fe5e700:  e5900000      ldr	r0, [r0]
0x3fe5e704:  e50b0028      str	r0, [fp, #-40]
0x3fe5e708:  e3a00000      mov	r0, #0	; 0x0
0x3fe5e70c:  ebff3df7      bl	0x3fe2def0

----------------
IN: 
0x3fe5e710:  e2455004      sub	r5, r5, #4	; 0x4
0x3fe5e714:  e59f4eec      ldr	r4, [pc, #3820]	; 0x3fe5f608
0x3fe5e718:  e50b35e8      str	r3, [fp, #-1512]
0x3fe5e71c:  e50b55a0      str	r5, [fp, #-1440]
0x3fe5e720:  e50b25b8      str	r2, [fp, #-1464]
0x3fe5e724:  e50b1574      str	r1, [fp, #-1396]
0x3fe5e728:  e79f4004      ldr	r4, [pc, r4]
0x3fe5e72c:  e3a0eb01      mov	lr, #1024	; 0x400
0x3fe5e730:  e7903004      ldr	r3, [r0, r4]
0x3fe5e734:  e59fced0      ldr	ip, [pc, #3792]	; 0x3fe5f60c
0x3fe5e738:  e1a00003      mov	r0, r3
0x3fe5e73c:  e50b3594      str	r3, [fp, #-1428]
0x3fe5e740:  e599306c      ldr	r3, [r9, #108]
0x3fe5e744:  e5900000      ldr	r0, [r0]
0x3fe5e748:  e3530000      cmp	r3, #0	; 0x0
0x3fe5e74c:  03e03000      mvneq	r3, #0	; 0x0
0x3fe5e750:  e2856008      add	r6, r5, #8	; 0x8
0x3fe5e754:  e08fc00c      add	ip, pc, ip
0x3fe5e758:  e50b05a8      str	r0, [fp, #-1448]
0x3fe5e75c:  e50b6444      str	r6, [fp, #-1092]
0x3fe5e760:  e50be440      str	lr, [fp, #-1088]
0x3fe5e764:  e50b2578      str	r2, [fp, #-1400]
0x3fe5e768:  0589306c      streq	r3, [r9, #108]
0x3fe5e76c:  0a000001      beq	0x3fe5e778

----------------
IN: 
0x3fe5e778:  e5993000      ldr	r3, [r9]
0x3fe5e77c:  e3130004      tst	r3, #4	; 0x4
0x3fe5e780:  1a000cf6      bne	0x3fe61b60

----------------
IN: 
0x3fe5e784:  e3510000      cmp	r1, #0	; 0x0
0x3fe5e788:  0a000fb3      beq	0x3fe6265c

----------------
IN: 
0x3fe5e78c:  e51b3594      ldr	r3, [fp, #-1428]
0x3fe5e790:  e5932004      ldr	r2, [r3, #4]
0x3fe5e794:  e59f3e74      ldr	r3, [pc, #3700]	; 0x3fe5f610
0x3fe5e798:  e5921028      ldr	r1, [r2, #40]
0x3fe5e79c:  e5922024      ldr	r2, [r2, #36]
0x3fe5e7a0:  e50b25d8      str	r2, [fp, #-1496]
0x3fe5e7a4:  e5d12000      ldrb	r2, [r1]
0x3fe5e7a8:  e50b9564      str	r9, [fp, #-1380]
0x3fe5e7ac:  e79c3003      ldr	r3, [ip, r3]
0x3fe5e7b0:  e3520000      cmp	r2, #0	; 0x0
0x3fe5e7b4:  e50b3568      str	r3, [fp, #-1384]
0x3fe5e7b8:  11a03001      movne	r3, r1
0x3fe5e7bc:  03a03000      moveq	r3, #0	; 0x0
0x3fe5e7c0:  e50b35ac      str	r3, [fp, #-1452]
0x3fe5e7c4:  e24b3e56      sub	r3, fp, #1376	; 0x560
0x3fe5e7c8:  e2433004      sub	r3, r3, #4	; 0x4
0x3fe5e7cc:  e50b35dc      str	r3, [fp, #-1500]
0x3fe5e7d0:  e2433004      sub	r3, r3, #4	; 0x4
0x3fe5e7d4:  e1a00003      mov	r0, r3
0x3fe5e7d8:  e50b35c4      str	r3, [fp, #-1476]
0x3fe5e7dc:  eb00a521      bl	0x3fe87c68

----------------
IN: 
0x3fe87c68:  e52de004      push	{lr}		; (str lr, [sp, #-4]!)
0x3fe87c6c:  e1a03000      mov	r3, r0
0x3fe87c70:  ebfe989e      bl	0x3fe2def0

----------------
IN: 
0x3fe87c74:  e3a02000      mov	r2, #0	; 0x0
0x3fe87c78:  e5101504      ldr	r1, [r0, #-1284]
0x3fe87c7c:  e583100c      str	r1, [r3, #12]
0x3fe87c80:  e550104a      ldrb	r1, [r0, #-74]
0x3fe87c84:  e5831008      str	r1, [r3, #8]
0x3fe87c88:  e540204a      strb	r2, [r0, #-74]
0x3fe87c8c:  e5003504      str	r3, [r0, #-1284]
0x3fe87c90:  e49df004      pop	{pc}		; (ldr pc, [sp], #4)

----------------
IN: 
0x3fe5e7e0:  e5994000      ldr	r4, [r9]
0x3fe5e7e4:  e2144902      ands	r4, r4, #32768	; 0x8000
0x3fe5e7e8:  0a0000ae      beq	0x3fe5eaa8

----------------
IN: 
0x3fe5eaa8:  ebff3d10      bl	0x3fe2def0

----------------
IN: 
0x3fe5eaac:  e5992048      ldr	r2, [r9, #72]
0x3fe5eab0:  e2405d16      sub	r5, r0, #1408	; 0x580
0x3fe5eab4:  e5923008      ldr	r3, [r2, #8]
0x3fe5eab8:  e1530005      cmp	r3, r5
0x3fe5eabc:  0a00000d      beq	0x3fe5eaf8

----------------
IN: 
0x3fe5eac0:  e3a01001      mov	r1, #1	; 0x1
0x3fe5eac4:  e5923000      ldr	r3, [r2]
0x3fe5eac8:  e1530004      cmp	r3, r4
0x3fe5eacc:  1a000005      bne	0x3fe5eae8

----------------
IN: 
0x3fe5ead0:  e1a00004      mov	r0, r4
0x3fe5ead4:  e3e03a0f      mvn	r3, #61440	; 0xf000
0x3fe5ead8:  e1a0e00f      mov	lr, pc
0x3fe5eadc:  e243f03f      sub	pc, r3, #63	; 0x3f

----------------
IN: 
0x3fe5eae0:  3afffff7      bcc	0x3fe5eac4

----------------
IN: 
0x3fe5eae4:  e1a03004      mov	r3, r4
0x3fe5eae8:  e3530000      cmp	r3, #0	; 0x0
0x3fe5eaec:  1a000802      bne	0x3fe60afc

----------------
IN: 
0x3fe5eaf0:  e5992048      ldr	r2, [r9, #72]
0x3fe5eaf4:  e5825008      str	r5, [r2, #8]
0x3fe5eaf8:  e5923004      ldr	r3, [r2, #4]
0x3fe5eafc:  e2833001      add	r3, r3, #1	; 0x1
0x3fe5eb00:  e5823004      str	r3, [r2, #4]
0x3fe5eb04:  eaffff38      b	0x3fe5e7ec

----------------
IN: 
0x3fe5e7ec:  e3a01000      mov	r1, #0	; 0x0
0x3fe5e7f0:  e24b2e55      sub	r2, fp, #1360	; 0x550
0x3fe5e7f4:  e2422004      sub	r2, r2, #4	; 0x4
0x3fe5e7f8:  e51b3574      ldr	r3, [fp, #-1396]
0x3fe5e7fc:  e50b1558      str	r1, [fp, #-1368]
0x3fe5e800:  e4021004      str	r1, [r2], #-4
0x3fe5e804:  e50b25cc      str	r2, [fp, #-1484]
0x3fe5e808:  e5d32000      ldrb	r2, [r3]
0x3fe5e80c:  e1a04003      mov	r4, r3
0x3fe5e810:  e1520001      cmp	r2, r1
0x3fe5e814:  0a0009d6      beq	0x3fe60f74

----------------
IN: 
0x3fe5e818:  e1a0a001      mov	sl, r1
0x3fe5e81c:  e1a0800a      mov	r8, sl
0x3fe5e820:  e1a0500a      mov	r5, sl
0x3fe5e824:  e24b1e51      sub	r1, fp, #1296	; 0x510
0x3fe5e828:  e2411004      sub	r1, r1, #4	; 0x4
0x3fe5e82c:  e50b15e4      str	r1, [fp, #-1508]
0x3fe5e830:  e28110a6      add	r1, r1, #166	; 0xa6
0x3fe5e834:  e50b15ec      str	r1, [fp, #-1516]
0x3fe5e838:  e50ba5bc      str	sl, [fp, #-1468]
0x3fe5e83c:  e50ba580      str	sl, [fp, #-1408]
0x3fe5e840:  e50ba590      str	sl, [fp, #-1424]
0x3fe5e844:  e50ba59c      str	sl, [fp, #-1436]
0x3fe5e848:  e50ba5c8      str	sl, [fp, #-1480]
0x3fe5e84c:  e50ba5d0      str	sl, [fp, #-1488]
0x3fe5e850:  e50ba5d4      str	sl, [fp, #-1492]
0x3fe5e854:  e3120080      tst	r2, #128	; 0x80
0x3fe5e858:  1a00003a      bne	0x3fe5e948

----------------
IN: 
0x3fe5e85c:  e1a02003      mov	r2, r3
0x3fe5e860:  e2833001      add	r3, r3, #1	; 0x1
0x3fe5e864:  e50b3574      str	r3, [fp, #-1396]
0x3fe5e868:  e5d26000      ldrb	r6, [r2]
0x3fe5e86c:  e1a04003      mov	r4, r3
0x3fe5e870:  e3560025      cmp	r6, #37	; 0x25
0x3fe5e874:  0a00003d      beq	0x3fe5e970

----------------
IN: 
0x3fe5e970:  e51b1444      ldr	r1, [fp, #-1092]
0x3fe5e974:  e51b0440      ldr	r0, [fp, #-1088]
0x3fe5e978:  e50b144c      str	r1, [fp, #-1100]
0x3fe5e97c:  e0811000      add	r1, r1, r0
0x3fe5e980:  e50b1448      str	r1, [fp, #-1096]
0x3fe5e984:  e5d22001      ldrb	r2, [r2, #1]
0x3fe5e988:  e2421030      sub	r1, r2, #48	; 0x30
0x3fe5e98c:  e3510009      cmp	r1, #9	; 0x9
0x3fe5e990:  8a00005c      bhi	0x3fe5eb08

----------------
IN: 
0x3fe5eb08:  e352002a      cmp	r2, #42	; 0x2a
0x3fe5eb0c:  13520027      cmpne	r2, #39	; 0x27
0x3fe5eb10:  03a01001      moveq	r1, #1	; 0x1
0x3fe5eb14:  13a01000      movne	r1, #0	; 0x0
0x3fe5eb18:  e3520049      cmp	r2, #73	; 0x49
0x3fe5eb1c:  03811001      orreq	r1, r1, #1	; 0x1
0x3fe5eb20:  e3510000      cmp	r1, #0	; 0x0
0x3fe5eb24:  01a02001      moveq	r2, r1
0x3fe5eb28:  050b25a4      streq	r2, [fp, #-1444]
0x3fe5eb2c:  050b25b4      streq	r2, [fp, #-1460]
0x3fe5eb30:  0a000022      beq	0x3fe5ebc0

----------------
IN: 
0x3fe5ebc0:  e3e02000      mvn	r2, #0	; 0x0
0x3fe5ebc4:  e50b258c      str	r2, [fp, #-1420]
0x3fe5ebc8:  eaffff80      b	0x3fe5e9d0

----------------
IN: 
0x3fe5e9d0:  e2831001      add	r1, r3, #1	; 0x1
0x3fe5e9d4:  e50b1574      str	r1, [fp, #-1396]
0x3fe5e9d8:  e5d32000      ldrb	r2, [r3]
0x3fe5e9dc:  e242204c      sub	r2, r2, #76	; 0x4c
0x3fe5e9e0:  e352002e      cmp	r2, #46	; 0x2e
0x3fe5e9e4:  908ff102      addls	pc, pc, r2, lsl #2

----------------
IN: 
0x3fe5ea4c:  ea0000e5      b	0x3fe5ede8

----------------
IN: 
0x3fe5ede8:  e1a01003      mov	r1, r3
0x3fe5edec:  e50b3574      str	r3, [fp, #-1396]
0x3fe5edf0:  e5d32000      ldrb	r2, [r3]
0x3fe5edf4:  e3520000      cmp	r2, #0	; 0x0
0x3fe5edf8:  0affff7c      beq	0x3fe5ebf0

----------------
IN: 
0x3fe5edfc:  e2813001      add	r3, r1, #1	; 0x1
0x3fe5ee00:  e50b3574      str	r3, [fp, #-1396]
0x3fe5ee04:  e35a0000      cmp	sl, #0	; 0x0
0x3fe5ee08:  e5d16000      ldrb	r6, [r1]
0x3fe5ee0c:  1a0000a3      bne	0x3fe5f0a0

----------------
IN: 
0x3fe5ee10:  e356005b      cmp	r6, #91	; 0x5b
0x3fe5ee14:  1a00013b      bne	0x3fe5f308

----------------
IN: 
0x3fe5f308:  e20630df      and	r3, r6, #223	; 0xdf
0x3fe5f30c:  e3530043      cmp	r3, #67	; 0x43
0x3fe5f310:  1356006e      cmpne	r6, #110	; 0x6e
0x3fe5f314:  1affff61      bne	0x3fe5f0a0

----------------
IN: 
0x3fe5f0a0:  ebff3b92      bl	0x3fe2def0

----------------
IN: 
0x3fe5f0a4:  e3a01000      mov	r1, #0	; 0x0
0x3fe5f0a8:  e59f2574      ldr	r2, [pc, #1396]	; 0x3fe5f624
0x3fe5f0ac:  e59f3574      ldr	r3, [pc, #1396]	; 0x3fe5f628
0x3fe5f0b0:  e79f2002      ldr	r2, [pc, r2]
0x3fe5f0b4:  e79f3003      ldr	r3, [pc, r3]
0x3fe5f0b8:  e7904002      ldr	r4, [r0, r2]
0x3fe5f0bc:  e51b7580      ldr	r7, [fp, #-1408]
0x3fe5f0c0:  e51ba594      ldr	sl, [fp, #-1428]
0x3fe5f0c4:  e7801003      str	r1, [r0, r3]
0x3fe5f0c8:  ea00000c      b	0x3fe5f100

----------------
IN: 
0x3fe5f100:  e3780001      cmn	r8, #1	; 0x1
0x3fe5f104:  1afffff0      bne	0x3fe5f0cc

----------------
IN: 
0x3fe5f0cc:  e5993004      ldr	r3, [r9, #4]
0x3fe5f0d0:  e5992008      ldr	r2, [r9, #8]
0x3fe5f0d4:  e1530002      cmp	r3, r2
0x3fe5f0d8:  2a000079      bcs	0x3fe5f2c4

----------------
IN: 
0x3fe5f2c4:  e1a00009      mov	r0, r9
0x3fe5f2c8:  eb00953f      bl	0x3fe847cc

----------------
IN: 
0x3fe847cc:  e590306c      ldr	r3, [r0, #108]
0x3fe847d0:  e92d4070      push	{r4, r5, r6, lr}
0x3fe847d4:  e3530000      cmp	r3, #0	; 0x0
0x3fe847d8:  03e03000      mvneq	r3, #0	; 0x0
0x3fe847dc:  e1a04000      mov	r4, r0
0x3fe847e0:  0580306c      streq	r3, [r0, #108]
0x3fe847e4:  0a000001      beq	0x3fe847f0

----------------
IN: 
0x3fe847e8:  e3730001      cmn	r3, #1	; 0x1
0x3fe847ec:  1a000037      bne	0x3fe848d0

----------------
IN: 
0x3fe847f0:  e5943000      ldr	r3, [r4]
0x3fe847f4:  e3130b02      tst	r3, #2048	; 0x800
0x3fe847f8:  1a000030      bne	0x3fe848c0

----------------
IN: 
0x3fe847fc:  e5943004      ldr	r3, [r4, #4]
0x3fe84800:  e5941008      ldr	r1, [r4, #8]
0x3fe84804:  e1530001      cmp	r3, r1
0x3fe84808:  3a000028      bcc	0x3fe848b0

----------------
IN: 
0x3fe8480c:  e5943000      ldr	r3, [r4]
0x3fe84810:  e3130c01      tst	r3, #256	; 0x100
0x3fe84814:  1a00001f      bne	0x3fe84898

----------------
IN: 
0x3fe84818:  e5943030      ldr	r3, [r4, #48]
0x3fe8481c:  e3530000      cmp	r3, #0	; 0x0
0x3fe84820:  0a000010      beq	0x3fe84868

----------------
IN: 
0x3fe84868:  e5940024      ldr	r0, [r4, #36]
0x3fe8486c:  e3500000      cmp	r0, #0	; 0x0
0x3fe84870:  0affffef      beq	0x3fe84834

----------------
IN: 
0x3fe84834:  e59f20b4      ldr	r2, [pc, #180]	; 0x3fe848f0
0x3fe84838:  e59f30b4      ldr	r3, [pc, #180]	; 0x3fe848f4
0x3fe8483c:  e5945098      ldr	r5, [r4, #152]
0x3fe84840:  e08f2002      add	r2, pc, r2
0x3fe84844:  e08f3003      add	r3, pc, r3
0x3fe84848:  e0451002      sub	r1, r5, r2
0x3fe8484c:  e0433002      sub	r3, r3, r2
0x3fe84850:  e1530001      cmp	r3, r1
0x3fe84854:  9a00001f      bls	0x3fe848d8

----------------
IN: 
0x3fe84858:  e1a00004      mov	r0, r4
0x3fe8485c:  e5953014      ldr	r3, [r5, #20]
0x3fe84860:  e8bd4070      pop	{r4, r5, r6, lr}
0x3fe84864:  e12fff13      bx	r3

----------------
IN: 
0x3fe84a14:  e59f3050      ldr	r3, [pc, #80]	; 0x3fe84a6c
0x3fe84a18:  e59f2050      ldr	r2, [pc, #80]	; 0x3fe84a70
0x3fe84a1c:  e92d4070      push	{r4, r5, r6, lr}
0x3fe84a20:  e5905098      ldr	r5, [r0, #152]
0x3fe84a24:  e08f3003      add	r3, pc, r3
0x3fe84a28:  e08f2002      add	r2, pc, r2
0x3fe84a2c:  e0422003      sub	r2, r2, r3
0x3fe84a30:  e0453003      sub	r3, r5, r3
0x3fe84a34:  e1520003      cmp	r2, r3
0x3fe84a38:  e1a04000      mov	r4, r0
0x3fe84a3c:  9a000008      bls	0x3fe84a64

----------------
IN: 
0x3fe84a40:  e5953010      ldr	r3, [r5, #16]
0x3fe84a44:  e1a00004      mov	r0, r4
0x3fe84a48:  e12fff33      blx	r3

----------------
IN: 
0x3fe83630:  e5903000      ldr	r3, [r0]
0x3fe83634:  e92d47f0      push	{r4, r5, r6, r7, r8, r9, sl, lr}
0x3fe83638:  e59f6370      ldr	r6, [pc, #880]	; 0x3fe839b0
0x3fe8363c:  e3130010      tst	r3, #16	; 0x10
0x3fe83640:  e08f6006      add	r6, pc, r6
0x3fe83644:  1a0000b0      bne	0x3fe8390c

----------------
IN: 
0x3fe83648:  e3130004      tst	r3, #4	; 0x4
0x3fe8364c:  e1a05000      mov	r5, r0
0x3fe83650:  1a0000af      bne	0x3fe83914

----------------
IN: 
0x3fe83654:  e5902004      ldr	r2, [r0, #4]
0x3fe83658:  e5901008      ldr	r1, [r0, #8]
0x3fe8365c:  e1520001      cmp	r2, r1
0x3fe83660:  35d23000      ldrbcc	r3, [r2]
0x3fe83664:  3a00006e      bcc	0x3fe83824

----------------
IN: 
0x3fe83668:  e590201c      ldr	r2, [r0, #28]
0x3fe8366c:  e3520000      cmp	r2, #0	; 0x0
0x3fe83670:  0a00008a      beq	0x3fe838a0

----------------
IN: 
0x3fe838a0:  e5900024      ldr	r0, [r0, #36]
0x3fe838a4:  e3500000      cmp	r0, #0	; 0x0
0x3fe838a8:  0a000003      beq	0x3fe838bc

----------------
IN: 
0x3fe838bc:  e1a00005      mov	r0, r5
0x3fe838c0:  eb000421      bl	0x3fe8494c

----------------
IN: 
0x3fe8494c:  e590301c      ldr	r3, [r0, #28]
0x3fe84950:  e3530000      cmp	r3, #0	; 0x0
0x3fe84954:  112fff1e      bxne	lr

----------------
IN: 
0x3fe84958:  e5903000      ldr	r3, [r0]
0x3fe8495c:  e92d4070      push	{r4, r5, r6, lr}
0x3fe84960:  e3130002      tst	r3, #2	; 0x2
0x3fe84964:  e1a04000      mov	r4, r0
0x3fe84968:  0a000002      beq	0x3fe84978

----------------
IN: 
0x3fe84978:  e59f2084      ldr	r2, [pc, #132]	; 0x3fe84a04
0x3fe8497c:  e59f3084      ldr	r3, [pc, #132]	; 0x3fe84a08
0x3fe84980:  e5945098      ldr	r5, [r4, #152]
0x3fe84984:  e08f2002      add	r2, pc, r2
0x3fe84988:  e08f3003      add	r3, pc, r3
0x3fe8498c:  e0451002      sub	r1, r5, r2
0x3fe84990:  e0433002      sub	r3, r3, r2
0x3fe84994:  e1530001      cmp	r3, r1
0x3fe84998:  9a000017      bls	0x3fe849fc

----------------
IN: 
0x3fe8499c:  e1a00004      mov	r0, r4
0x3fe849a0:  e5953034      ldr	r3, [r5, #52]
0x3fe849a4:  e12fff33      blx	r3

----------------
IN: 
0x3fe73e08:  e92d4070      push	{r4, r5, r6, lr}
0x3fe73e0c:  e59f2168      ldr	r2, [pc, #360]	; 0x3fe73f7c
0x3fe73e10:  e59f3168      ldr	r3, [pc, #360]	; 0x3fe73f80
0x3fe73e14:  e08f2002      add	r2, pc, r2
0x3fe73e18:  e7923003      ldr	r3, [r2, r3]
0x3fe73e1c:  e24dd078      sub	sp, sp, #120	; 0x78
0x3fe73e20:  e5933000      ldr	r3, [r3]
0x3fe73e24:  e58d3074      str	r3, [sp, #116]
0x3fe73e28:  e3a03000      mov	r3, #0	; 0x0
0x3fe73e2c:  e5903038      ldr	r3, [r0, #56]
0x3fe73e30:  e1a04000      mov	r4, r0
0x3fe73e34:  e3530000      cmp	r3, #0	; 0x0
0x3fe73e38:  ba00002b      blt	0x3fe73eec

----------------
IN: 
0x3fe73e3c:  e59f2140      ldr	r2, [pc, #320]	; 0x3fe73f84
0x3fe73e40:  e59f3140      ldr	r3, [pc, #320]	; 0x3fe73f88
0x3fe73e44:  e5905098      ldr	r5, [r0, #152]
0x3fe73e48:  e08f2002      add	r2, pc, r2
0x3fe73e4c:  e08f3003      add	r3, pc, r3
0x3fe73e50:  e0451002      sub	r1, r5, r2
0x3fe73e54:  e0433002      sub	r3, r3, r2
0x3fe73e58:  e1530001      cmp	r3, r1
0x3fe73e5c:  9a000043      bls	0x3fe73f70

----------------
IN: 
0x3fe73e60:  e1a00004      mov	r0, r4
0x3fe73e64:  e1a0100d      mov	r1, sp
0x3fe73e68:  e5953048      ldr	r3, [r5, #72]
0x3fe73e6c:  e12fff33      blx	r3

----------------
IN: 
0x3fe82460:  e5900038      ldr	r0, [r0, #56]
0x3fe82464:  ea01ca17      b	0x3fef4cc8

----------------
IN: 
0x3fef4cc8:  e3500000      cmp	r0, #0	; 0x0
0x3fef4ccc:  ba000004      blt	0x3fef4ce4

----------------
IN: 
0x3fef4cd0:  e1a02001      mov	r2, r1
0x3fef4cd4:  e59f1028      ldr	r1, [pc, #40]	; 0x3fef4d04
0x3fef4cd8:  e3a03a01      mov	r3, #4096	; 0x1000
0x3fef4cdc:  e08f1001      add	r1, pc, r1
0x3fef4ce0:  ea0000c6      b	0x3fef5000

----------------
IN: 
0x3fef5000:  e1a0c003      mov	ip, r3
0x3fef5004:  e92d4ff0      push	{r4, r5, r6, r7, r8, r9, sl, fp, lr}
0x3fef5008:  e59fe348      ldr	lr, [pc, #840]	; 0x3fef5358
0x3fef500c:  e59f3348      ldr	r3, [pc, #840]	; 0x3fef535c
0x3fef5010:  e08fe00e      add	lr, pc, lr
0x3fef5014:  e79e3003      ldr	r3, [lr, r3]
0x3fef5018:  e24ddf73      sub	sp, sp, #460	; 0x1cc
0x3fef501c:  e5933000      ldr	r3, [r3]
0x3fef5020:  e58d31c4      str	r3, [sp, #452]
0x3fef5024:  e3a03000      mov	r3, #0	; 0x0
0x3fef5028:  e1a05002      mov	r5, r2
0x3fef502c:  e1a0e000      mov	lr, r0
0x3fef5030:  e59f3328      ldr	r3, [pc, #808]	; 0x3fef5360
0x3fef5034:  e59f7328      ldr	r7, [pc, #808]	; 0x3fef5364
0x3fef5038:  e28d40c0      add	r4, sp, #192	; 0xc0
0x3fef503c:  e38c2b02      orr	r2, ip, #2048	; 0x800
0x3fef5040:  ef000000      svc	0x00000000

----------------
IN: 
0x3fef5044:  e2506000      subs	r6, r0, #0	; 0x0
0x3fef5048:  1a000079      bne	0x3fef5234

----------------
IN: 
0x3fef504c:  e1d431bc      ldrh	r3, [r4, #28]
0x3fef5050:  e59d814c      ldr	r8, [sp, #332]
0x3fef5054:  e59d7148      ldr	r7, [sp, #328]
0x3fef5058:  e58d300c      str	r3, [sp, #12]
0x3fef505c:  e59f3304      ldr	r3, [pc, #772]	; 0x3fef5368
0x3fef5060:  e59d9144      ldr	r9, [sp, #324]
0x3fef5064:  e59d4140      ldr	r4, [sp, #320]
0x3fef5068:  e003c407      and	ip, r3, r7, lsl #8
0x3fef506c:  e208e0ff      and	lr, r8, #255	; 0xff
0x3fef5070:  e18ec00c      orr	ip, lr, ip
0x3fef5074:  e0033404      and	r3, r3, r4, lsl #8
0x3fef5078:  e58dc04c      str	ip, [sp, #76]
0x3fef507c:  e209c0ff      and	ip, r9, #255	; 0xff
0x3fef5080:  e18ce003      orr	lr, ip, r3
0x3fef5084:  e59da0d0      ldr	sl, [sp, #208]
0x3fef5088:  e59d3108      ldr	r3, [sp, #264]
0x3fef508c:  e59db0d4      ldr	fp, [sp, #212]
0x3fef5090:  e59dc0c4      ldr	ip, [sp, #196]
0x3fef5094:  e58da010      str	sl, [sp, #16]
0x3fef5098:  e58d3054      str	r3, [sp, #84]
0x3fef509c:  e59da0d8      ldr	sl, [sp, #216]
0x3fef50a0:  e59d3138      ldr	r3, [sp, #312]
0x3fef50a4:  e3a02070      mov	r2, #112	; 0x70
0x3fef50a8:  e1a01006      mov	r1, r6
0x3fef50ac:  e1a00005      mov	r0, r5
0x3fef50b0:  e58de050      str	lr, [sp, #80]
0x3fef50b4:  e58d3048      str	r3, [sp, #72]
0x3fef50b8:  e58db014      str	fp, [sp, #20]
0x3fef50bc:  e58da020      str	sl, [sp, #32]
0x3fef50c0:  e58dc024      str	ip, [sp, #36]
0x3fef50c4:  e59da128      ldr	sl, [sp, #296]
0x3fef50c8:  e28dc0e0      add	ip, sp, #224	; 0xe0
0x3fef50cc:  e89c1800      ldm	ip, {fp, ip}
0x3fef50d0:  e88d1800      stm	sp, {fp, ip}
0x3fef50d4:  e28dc0e8      add	ip, sp, #232	; 0xe8
0x3fef50d8:  e89c1800      ldm	ip, {fp, ip}
0x3fef50dc:  e58db018      str	fp, [sp, #24]
0x3fef50e0:  e58dc01c      str	ip, [sp, #28]
0x3fef50e4:  e28dc0f0      add	ip, sp, #240	; 0xf0
0x3fef50e8:  e89c1800      ldm	ip, {fp, ip}
0x3fef50ec:  e58db028      str	fp, [sp, #40]
0x3fef50f0:  e58dc02c      str	ip, [sp, #44]
0x3fef50f4:  e28dcc01      add	ip, sp, #256	; 0x100
0x3fef50f8:  e89c1800      ldm	ip, {fp, ip}
0x3fef50fc:  e58db030      str	fp, [sp, #48]
0x3fef5100:  e58dc034      str	ip, [sp, #52]
0x3fef5104:  e28dce13      add	ip, sp, #304	; 0x130
0x3fef5108:  e89c1800      ldm	ip, {fp, ip}
0x3fef510c:  e58db038      str	fp, [sp, #56]
0x3fef5110:  e58dc03c      str	ip, [sp, #60]
0x3fef5114:  e28dce12      add	ip, sp, #288	; 0x120
0x3fef5118:  e89c1800      ldm	ip, {fp, ip}
0x3fef511c:  e58db040      str	fp, [sp, #64]
0x3fef5120:  e58dc044      str	ip, [sp, #68]
0x3fef5124:  ebfebf2d      bl	0x3fea4de0

----------------
IN: 
0x3fea4de0:  e1a03000      mov	r3, r0
0x3fea4de4:  e3520008      cmp	r2, #8	; 0x8
0x3fea4de8:  3a000011      bcc	0x3fea4e34

----------------
IN: 
0x3fea4dec:  e3130003      tst	r3, #3	; 0x3
0x3fea4df0:  14c31001      strbne	r1, [r3], #1
0x3fea4df4:  12422001      subne	r2, r2, #1	; 0x1
0x3fea4df8:  1afffffb      bne	0x3fea4dec

----------------
IN: 
0x3fea4dfc:  e20110ff      and	r1, r1, #255	; 0xff
0x3fea4e00:  e1811401      orr	r1, r1, r1, lsl #8
0x3fea4e04:  e1811801      orr	r1, r1, r1, lsl #16
0x3fea4e08:  e1a0c001      mov	ip, r1
0x3fea4e0c:  e2522008      subs	r2, r2, #8	; 0x8
0x3fea4e10:  28a31002      stmiacs	r3!, {r1, ip}
0x3fea4e14:  22522008      subscs	r2, r2, #8	; 0x8
0x3fea4e18:  28a31002      stmiacs	r3!, {r1, ip}
0x3fea4e1c:  22522008      subscs	r2, r2, #8	; 0x8
0x3fea4e20:  28a31002      stmiacs	r3!, {r1, ip}
0x3fea4e24:  22522008      subscs	r2, r2, #8	; 0x8
0x3fea4e28:  28a31002      stmiacs	r3!, {r1, ip}
0x3fea4e2c:  2afffff6      bcs	0x3fea4e0c

----------------
IN: 
0x3fea4e0c:  e2522008      subs	r2, r2, #8	; 0x8
0x3fea4e10:  28a31002      stmiacs	r3!, {r1, ip}
0x3fea4e14:  22522008      subscs	r2, r2, #8	; 0x8
0x3fea4e18:  28a31002      stmiacs	r3!, {r1, ip}
0x3fea4e1c:  22522008      subscs	r2, r2, #8	; 0x8
0x3fea4e20:  28a31002      stmiacs	r3!, {r1, ip}
0x3fea4e24:  22522008      subscs	r2, r2, #8	; 0x8
0x3fea4e28:  28a31002      stmiacs	r3!, {r1, ip}
0x3fea4e2c:  2afffff6      bcs	0x3fea4e0c

----------------
IN: 
0x3fea4e30:  e2022007      and	r2, r2, #7	; 0x7
0x3fea4e34:  e2522001      subs	r2, r2, #1	; 0x1
0x3fea4e38:  24c31001      strbcs	r1, [r3], #1
0x3fea4e3c:  22522001      subscs	r2, r2, #1	; 0x1
0x3fea4e40:  24c31001      strbcs	r1, [r3], #1
0x3fea4e44:  22522001      subscs	r2, r2, #1	; 0x1
0x3fea4e48:  24c31001      strbcs	r1, [r3], #1
0x3fea4e4c:  22522001      subscs	r2, r2, #1	; 0x1
0x3fea4e50:  24c31001      strbcs	r1, [r3], #1
0x3fea4e54:  2afffff6      bcs	0x3fea4e34

----------------
IN: 
0x3fea4e58:  e12fff1e      bx	lr

----------------
IN: 
0x3fef5128:  e89d1800      ldm	sp, {fp, ip}
0x3fef512c:  e59d300c      ldr	r3, [sp, #12]
0x3fef5130:  e3c77eff      bic	r7, r7, #4080	; 0xff0
0x3fef5134:  e5853010      str	r3, [r5, #16]
0x3fef5138:  e59d3010      ldr	r3, [sp, #16]
0x3fef513c:  e585b008      str	fp, [r5, #8]
0x3fef5140:  e585c00c      str	ip, [r5, #12]
0x3fef5144:  e28dc018      add	ip, sp, #24	; 0x18
0x3fef5148:  e89c1800      ldm	ip, {fp, ip}
0x3fef514c:  e5853014      str	r3, [r5, #20]
0x3fef5150:  e59d3020      ldr	r3, [sp, #32]
0x3fef5154:  e585b028      str	fp, [r5, #40]
0x3fef5158:  e585c02c      str	ip, [r5, #44]
0x3fef515c:  e28dc028      add	ip, sp, #40	; 0x28
0x3fef5160:  e89c1800      ldm	ip, {fp, ip}
0x3fef5164:  e585301c      str	r3, [r5, #28]
0x3fef5168:  e59d3024      ldr	r3, [sp, #36]
0x3fef516c:  e585b038      str	fp, [r5, #56]
0x3fef5170:  e585c03c      str	ip, [r5, #60]
0x3fef5174:  e28dc030      add	ip, sp, #48	; 0x30
0x3fef5178:  e89c1800      ldm	ip, {fp, ip}
0x3fef517c:  e5853030      str	r3, [r5, #48]
0x3fef5180:  e59d3054      ldr	r3, [sp, #84]
0x3fef5184:  e585b040      str	fp, [r5, #64]
0x3fef5188:  e585c044      str	ip, [r5, #68]
0x3fef518c:  e28dc038      add	ip, sp, #56	; 0x38
0x3fef5190:  e89c1800      ldm	ip, {fp, ip}
0x3fef5194:  e5853048      str	r3, [r5, #72]
0x3fef5198:  e59d3048      ldr	r3, [sp, #72]
0x3fef519c:  e585b050      str	fp, [r5, #80]
0x3fef51a0:  e585c054      str	ip, [r5, #84]
0x3fef51a4:  e28dc040      add	ip, sp, #64	; 0x40
0x3fef51a8:  e89c1800      ldm	ip, {fp, ip}
0x3fef51ac:  e5853058      str	r3, [r5, #88]
0x3fef51b0:  e59f31b4      ldr	r3, [pc, #436]	; 0x3fef536c
0x3fef51b4:  e585b060      str	fp, [r5, #96]
0x3fef51b8:  e585c064      str	ip, [r5, #100]
0x3fef51bc:  e59de050      ldr	lr, [sp, #80]
0x3fef51c0:  e59dc04c      ldr	ip, [sp, #76]
0x3fef51c4:  e3c44eff      bic	r4, r4, #4080	; 0xff0
0x3fef51c8:  e3c7700f      bic	r7, r7, #15	; 0xf
0x3fef51cc:  e59db014      ldr	fp, [sp, #20]
0x3fef51d0:  e1877a28      orr	r7, r7, r8, lsr #20
0x3fef51d4:  e3c4400f      bic	r4, r4, #15	; 0xf
0x3fef51d8:  e0038608      and	r8, r3, r8, lsl #12
0x3fef51dc:  e0033609      and	r3, r3, r9, lsl #12
0x3fef51e0:  e1844a29      orr	r4, r4, r9, lsr #20
0x3fef51e4:  e188800c      orr	r8, r8, ip
0x3fef51e8:  e183300e      orr	r3, r3, lr
0x3fef51ec:  e585b018      str	fp, [r5, #24]
0x3fef51f0:  e585a068      str	sl, [r5, #104]
0x3fef51f4:  e5857004      str	r7, [r5, #4]
0x3fef51f8:  e5854024      str	r4, [r5, #36]
0x3fef51fc:  e5858000      str	r8, [r5]
0x3fef5200:  e5853020      str	r3, [r5, #32]
0x3fef5204:  e59f2164      ldr	r2, [pc, #356]	; 0x3fef5370
0x3fef5208:  e59f314c      ldr	r3, [pc, #332]	; 0x3fef535c
0x3fef520c:  e08f2002      add	r2, pc, r2
0x3fef5210:  e7923003      ldr	r3, [r2, r3]
0x3fef5214:  e5932000      ldr	r2, [r3]
0x3fef5218:  e59d31c4      ldr	r3, [sp, #452]
0x3fef521c:  e0332002      eors	r2, r3, r2
0x3fef5220:  e3a03000      mov	r3, #0	; 0x0
0x3fef5224:  1a00004a      bne	0x3fef5354

----------------
IN: 
0x3fef5228:  e1a00006      mov	r0, r6
0x3fef522c:  e28ddf73      add	sp, sp, #460	; 0x1cc
0x3fef5230:  e8bd8ff0      pop	{r4, r5, r6, r7, r8, r9, sl, fp, pc}

----------------
IN: 
0x3fe73e70:  e3500000      cmp	r0, #0	; 0x0
0x3fe73e74:  ba00001c      blt	0x3fe73eec

----------------
IN: 
0x3fe73e78:  e59d3010      ldr	r3, [sp, #16]
0x3fe73e7c:  e2033a0f      and	r3, r3, #61440	; 0xf000
0x3fe73e80:  e3530a02      cmp	r3, #8192	; 0x2000
0x3fe73e84:  0a00001f      beq	0x3fe73f08

----------------
IN: 
0x3fe73e88:  e59d5030      ldr	r5, [sp, #48]
0x3fe73e8c:  e59f30f8      ldr	r3, [pc, #248]	; 0x3fe73f8c
0x3fe73e90:  e2452001      sub	r2, r5, #1	; 0x1
0x3fe73e94:  e1520003      cmp	r2, r3
0x3fe73e98:  8a000013      bhi	0x3fe73eec

----------------
IN: 
0x3fe73e9c:  e1a00005      mov	r0, r5
0x3fe73ea0:  ebfee584      bl	0x3fe2d4b8

----------------
IN: 
0x3fe2d4b8:  e28fc601      add	ip, pc, #1048576	; 0x100000
0x3fe2d4bc:  e28cca69      add	ip, ip, #430080	; 0x69000
0x3fe2d4c0:  e5bcfb88      ldr	pc, [ip, #2952]!

----------------
IN: 
0x3ffe67b0:  e1500d01      cmp	r0, r1, lsl #26
0x3ffe67b4:  e0a22002      adc	r2, r2, r2
0x3ffe67b8:  20400d01      subcs	r0, r0, r1, lsl #26
0x3ffe67bc:  e1500c81      cmp	r0, r1, lsl #25
0x3ffe67c0:  e0a22002      adc	r2, r2, r2
0x3ffe67c4:  20400c81      subcs	r0, r0, r1, lsl #25
0x3ffe67c8:  e1500c01      cmp	r0, r1, lsl #24
0x3ffe67cc:  e0a22002      adc	r2, r2, r2
0x3ffe67d0:  20400c01      subcs	r0, r0, r1, lsl #24
0x3ffe67d4:  e1500b81      cmp	r0, r1, lsl #23
0x3ffe67d8:  e0a22002      adc	r2, r2, r2
0x3ffe67dc:  20400b81      subcs	r0, r0, r1, lsl #23
0x3ffe67e0:  e1500b01      cmp	r0, r1, lsl #22
0x3ffe67e4:  e0a22002      adc	r2, r2, r2
0x3ffe67e8:  20400b01      subcs	r0, r0, r1, lsl #22
0x3ffe67ec:  e1500a81      cmp	r0, r1, lsl #21
0x3ffe67f0:  e0a22002      adc	r2, r2, r2
0x3ffe67f4:  20400a81      subcs	r0, r0, r1, lsl #21
0x3ffe67f8:  e1500a01      cmp	r0, r1, lsl #20
0x3ffe67fc:  e0a22002      adc	r2, r2, r2
0x3ffe6800:  20400a01      subcs	r0, r0, r1, lsl #20
0x3ffe6804:  e1500981      cmp	r0, r1, lsl #19
0x3ffe6808:  e0a22002      adc	r2, r2, r2
0x3ffe680c:  20400981      subcs	r0, r0, r1, lsl #19
0x3ffe6810:  e1500901      cmp	r0, r1, lsl #18
0x3ffe6814:  e0a22002      adc	r2, r2, r2
0x3ffe6818:  20400901      subcs	r0, r0, r1, lsl #18
0x3ffe681c:  e1500881      cmp	r0, r1, lsl #17
0x3ffe6820:  e0a22002      adc	r2, r2, r2
0x3ffe6824:  20400881      subcs	r0, r0, r1, lsl #17
0x3ffe6828:  e1500801      cmp	r0, r1, lsl #16
0x3ffe682c:  e0a22002      adc	r2, r2, r2
0x3ffe6830:  20400801      subcs	r0, r0, r1, lsl #16
0x3ffe6834:  e1500781      cmp	r0, r1, lsl #15
0x3ffe6838:  e0a22002      adc	r2, r2, r2
0x3ffe683c:  20400781      subcs	r0, r0, r1, lsl #15
0x3ffe6840:  e1500701      cmp	r0, r1, lsl #14
0x3ffe6844:  e0a22002      adc	r2, r2, r2
0x3ffe6848:  20400701      subcs	r0, r0, r1, lsl #14
0x3ffe684c:  e1500681      cmp	r0, r1, lsl #13
0x3ffe6850:  e0a22002      adc	r2, r2, r2
0x3ffe6854:  20400681      subcs	r0, r0, r1, lsl #13
0x3ffe6858:  e1500601      cmp	r0, r1, lsl #12
0x3ffe685c:  e0a22002      adc	r2, r2, r2
0x3ffe6860:  20400601      subcs	r0, r0, r1, lsl #12
0x3ffe6864:  e1500581      cmp	r0, r1, lsl #11
0x3ffe6868:  e0a22002      adc	r2, r2, r2
0x3ffe686c:  20400581      subcs	r0, r0, r1, lsl #11
0x3ffe6870:  e1500501      cmp	r0, r1, lsl #10
0x3ffe6874:  e0a22002      adc	r2, r2, r2
0x3ffe6878:  20400501      subcs	r0, r0, r1, lsl #10
0x3ffe687c:  e1500481      cmp	r0, r1, lsl #9
0x3ffe6880:  e0a22002      adc	r2, r2, r2
0x3ffe6884:  20400481      subcs	r0, r0, r1, lsl #9
0x3ffe6888:  e1500401      cmp	r0, r1, lsl #8
0x3ffe688c:  e0a22002      adc	r2, r2, r2
0x3ffe6890:  20400401      subcs	r0, r0, r1, lsl #8
0x3ffe6894:  e1500381      cmp	r0, r1, lsl #7
0x3ffe6898:  e0a22002      adc	r2, r2, r2
0x3ffe689c:  20400381      subcs	r0, r0, r1, lsl #7
0x3ffe68a0:  e1500301      cmp	r0, r1, lsl #6
0x3ffe68a4:  e0a22002      adc	r2, r2, r2
0x3ffe68a8:  20400301      subcs	r0, r0, r1, lsl #6
0x3ffe68ac:  e1500281      cmp	r0, r1, lsl #5
0x3ffe68b0:  e0a22002      adc	r2, r2, r2
0x3ffe68b4:  20400281      subcs	r0, r0, r1, lsl #5
0x3ffe68b8:  e1500201      cmp	r0, r1, lsl #4
0x3ffe68bc:  e0a22002      adc	r2, r2, r2
0x3ffe68c0:  20400201      subcs	r0, r0, r1, lsl #4
0x3ffe68c4:  e1500181      cmp	r0, r1, lsl #3
0x3ffe68c8:  e0a22002      adc	r2, r2, r2
0x3ffe68cc:  20400181      subcs	r0, r0, r1, lsl #3
0x3ffe68d0:  e1500101      cmp	r0, r1, lsl #2
0x3ffe68d4:  e0a22002      adc	r2, r2, r2
0x3ffe68d8:  20400101      subcs	r0, r0, r1, lsl #2
0x3ffe68dc:  e1500081      cmp	r0, r1, lsl #1
0x3ffe68e0:  e0a22002      adc	r2, r2, r2
0x3ffe68e4:  20400081      subcs	r0, r0, r1, lsl #1
0x3ffe68e8:  e1500001      cmp	r0, r1
0x3ffe68ec:  e0a22002      adc	r2, r2, r2
0x3ffe68f0:  20400001      subcs	r0, r0, r1
0x3ffe68f4:  e1a00002      mov	r0, r2
0x3ffe68f8:  e12fff1e      bx	lr

----------------
IN: 
0x3ffe6810:  e1500901      cmp	r0, r1, lsl #18
0x3ffe6814:  e0a22002      adc	r2, r2, r2
0x3ffe6818:  20400901      subcs	r0, r0, r1, lsl #18
0x3ffe681c:  e1500881      cmp	r0, r1, lsl #17
0x3ffe6820:  e0a22002      adc	r2, r2, r2
0x3ffe6824:  20400881      subcs	r0, r0, r1, lsl #17
0x3ffe6828:  e1500801      cmp	r0, r1, lsl #16
0x3ffe682c:  e0a22002      adc	r2, r2, r2
0x3ffe6830:  20400801      subcs	r0, r0, r1, lsl #16
0x3ffe6834:  e1500781      cmp	r0, r1, lsl #15
0x3ffe6838:  e0a22002      adc	r2, r2, r2
0x3ffe683c:  20400781      subcs	r0, r0, r1, lsl #15
0x3ffe6840:  e1500701      cmp	r0, r1, lsl #14
0x3ffe6844:  e0a22002      adc	r2, r2, r2
0x3ffe6848:  20400701      subcs	r0, r0, r1, lsl #14
0x3ffe684c:  e1500681      cmp	r0, r1, lsl #13
0x3ffe6850:  e0a22002      adc	r2, r2, r2
0x3ffe6854:  20400681      subcs	r0, r0, r1, lsl #13
0x3ffe6858:  e1500601      cmp	r0, r1, lsl #12
0x3ffe685c:  e0a22002      adc	r2, r2, r2
0x3ffe6860:  20400601      subcs	r0, r0, r1, lsl #12
0x3ffe6864:  e1500581      cmp	r0, r1, lsl #11
0x3ffe6868:  e0a22002      adc	r2, r2, r2
0x3ffe686c:  20400581      subcs	r0, r0, r1, lsl #11
0x3ffe6870:  e1500501      cmp	r0, r1, lsl #10
0x3ffe6874:  e0a22002      adc	r2, r2, r2
0x3ffe6878:  20400501      subcs	r0, r0, r1, lsl #10
0x3ffe687c:  e1500481      cmp	r0, r1, lsl #9
0x3ffe6880:  e0a22002      adc	r2, r2, r2
0x3ffe6884:  20400481      subcs	r0, r0, r1, lsl #9
0x3ffe6888:  e1500401      cmp	r0, r1, lsl #8
0x3ffe688c:  e0a22002      adc	r2, r2, r2
0x3ffe6890:  20400401      subcs	r0, r0, r1, lsl #8
0x3ffe6894:  e1500381      cmp	r0, r1, lsl #7
0x3ffe6898:  e0a22002      adc	r2, r2, r2
0x3ffe689c:  20400381      subcs	r0, r0, r1, lsl #7
0x3ffe68a0:  e1500301      cmp	r0, r1, lsl #6
0x3ffe68a4:  e0a22002      adc	r2, r2, r2
0x3ffe68a8:  20400301      subcs	r0, r0, r1, lsl #6
0x3ffe68ac:  e1500281      cmp	r0, r1, lsl #5
0x3ffe68b0:  e0a22002      adc	r2, r2, r2
0x3ffe68b4:  20400281      subcs	r0, r0, r1, lsl #5
0x3ffe68b8:  e1500201      cmp	r0, r1, lsl #4
0x3ffe68bc:  e0a22002      adc	r2, r2, r2
0x3ffe68c0:  20400201      subcs	r0, r0, r1, lsl #4
0x3ffe68c4:  e1500181      cmp	r0, r1, lsl #3
0x3ffe68c8:  e0a22002      adc	r2, r2, r2
0x3ffe68cc:  20400181      subcs	r0, r0, r1, lsl #3
0x3ffe68d0:  e1500101      cmp	r0, r1, lsl #2
0x3ffe68d4:  e0a22002      adc	r2, r2, r2
0x3ffe68d8:  20400101      subcs	r0, r0, r1, lsl #2
0x3ffe68dc:  e1500081      cmp	r0, r1, lsl #1
0x3ffe68e0:  e0a22002      adc	r2, r2, r2
0x3ffe68e4:  20400081      subcs	r0, r0, r1, lsl #1
0x3ffe68e8:  e1500001      cmp	r0, r1
0x3ffe68ec:  e0a22002      adc	r2, r2, r2
0x3ffe68f0:  20400001      subcs	r0, r0, r1
0x3ffe68f4:  e1a00002      mov	r0, r2
0x3ffe68f8:  e12fff1e      bx	lr

----------------
IN: 
0x3fea0628:  e59f3350      ldr	r3, [pc, #848]	; 0x3fea0980
0x3fea062c:  e92d41f0      push	{r4, r5, r6, r7, r8, lr}
0x3fea0630:  e08f3003      add	r3, pc, r3
0x3fea0634:  e5d33008      ldrb	r3, [r3, #8]
0x3fea0638:  e1a06000      mov	r6, r0
0x3fea063c:  e3530000      cmp	r3, #0	; 0x0
0x3fea0640:  0a000092      beq	0x3fea0890

----------------
IN: 
0x3fea0890:  ebffef8b      bl	0x3fe9c6c4

----------------
IN: 
0x3fe9c6c4:  e92d4070      push	{r4, r5, r6, lr}
0x3fe9c6c8:  e3a06001      mov	r6, #1	; 0x1
0x3fe9c6cc:  e59f2218      ldr	r2, [pc, #536]	; 0x3fe9c8ec
0x3fe9c6d0:  e59f5218      ldr	r5, [pc, #536]	; 0x3fe9c8f0
0x3fe9c6d4:  e59f3218      ldr	r3, [pc, #536]	; 0x3fe9c8f4
0x3fe9c6d8:  e08f2002      add	r2, pc, r2
0x3fe9c6dc:  e7923003      ldr	r3, [r2, r3]
0x3fe9c6e0:  e08f5005      add	r5, pc, r5
0x3fe9c6e4:  e24dd018      sub	sp, sp, #24	; 0x18
0x3fe9c6e8:  e3a01004      mov	r1, #4	; 0x4
0x3fe9c6ec:  e285000c      add	r0, r5, #12	; 0xc
0x3fe9c6f0:  e1a02006      mov	r2, r6
0x3fe9c6f4:  e5933000      ldr	r3, [r3]
0x3fe9c6f8:  e58d3014      str	r3, [sp, #20]
0x3fe9c6fc:  e3a03000      mov	r3, #0	; 0x0
0x3fe9c700:  e5c56008      strb	r6, [r5, #8]
0x3fe9c704:  ebfeb297      bl	0x3fe49168

----------------
IN: 
0x3fe49168:  e92d41f0      push	{r4, r5, r6, r7, r8, lr}
0x3fe4916c:  e1a04000      mov	r4, r0
0x3fe49170:  ebff935e      bl	0x3fe2def0

----------------
IN: 
0x3fe49174:  e5103580      ldr	r3, [r0, #-1408]
0x3fe49178:  e1a05000      mov	r5, r0
0x3fe4917c:  e3530000      cmp	r3, #0	; 0x0
0x3fe49180:  1a000007      bne	0x3fe491a4

----------------
IN: 
0x3fe49184:  e1a00004      mov	r0, r4
0x3fe49188:  e3a07d06      mov	r7, #384	; 0x180
0x3fe4918c:  ef000000      svc	0x00000000

----------------
IN: 
0x3fe49190:  e3700a01      cmn	r0, #4096	; 0x1000
0x3fe49194:  e1a04000      mov	r4, r0
0x3fe49198:  8a000015      bhi	0x3fe491f4

----------------
IN: 
0x3fe4919c:  e1a00004      mov	r0, r4
0x3fe491a0:  e8bd81f0      pop	{r4, r5, r6, r7, r8, pc}

----------------
IN: 
0x3fe9c708:  e3500004      cmp	r0, #4	; 0x4
0x3fe9c70c:  e1a0400d      mov	r4, sp
0x3fe9c710:  0a000007      beq	0x3fe9c734

----------------
IN: 
0x3fe9c734:  e59f31bc      ldr	r3, [pc, #444]	; 0x3fe9c8f8
0x3fe9c738:  e08f3003      add	r3, pc, r3
0x3fe9c73c:  e5d33000      ldrb	r3, [r3]
0x3fe9c740:  e3530000      cmp	r3, #0	; 0x0
0x3fe9c744:  03a02001      moveq	r2, #1	; 0x1
0x3fe9c748:  059f31ac      ldreq	r3, [pc, #428]	; 0x3fe9c8fc
0x3fe9c74c:  008f3003      addeq	r3, pc, r3
0x3fe9c750:  05c32010      strbeq	r2, [r3, #16]
0x3fe9c754:  ebfe45e5      bl	0x3fe2def0

----------------
IN: 
0x3fe9c758:  e59f11a0      ldr	r1, [pc, #416]	; 0x3fe9c900
0x3fe9c75c:  e59fc1a0      ldr	ip, [pc, #416]	; 0x3fe9c904
0x3fe9c760:  e08f1001      add	r1, pc, r1
0x3fe9c764:  e79fc00c      ldr	ip, [pc, ip]
0x3fe9c768:  e2812e42      add	r2, r1, #1056	; 0x420
0x3fe9c76c:  e2813034      add	r3, r1, #52	; 0x34
0x3fe9c770:  e282200c      add	r2, r2, #12	; 0xc
0x3fe9c774:  e780100c      str	r1, [r0, ip]
0x3fe9c778:  e583300c      str	r3, [r3, #12]
0x3fe9c77c:  e5833008      str	r3, [r3, #8]
0x3fe9c780:  e2833008      add	r3, r3, #8	; 0x8
0x3fe9c784:  e1530002      cmp	r3, r2
0x3fe9c788:  1afffffa      bne	0x3fe9c778

----------------
IN: 
0x3fe9c778:  e583300c      str	r3, [r3, #12]
0x3fe9c77c:  e5833008      str	r3, [r3, #8]
0x3fe9c780:  e2833008      add	r3, r3, #8	; 0x8
0x3fe9c784:  e1530002      cmp	r3, r2
0x3fe9c788:  1afffffa      bne	0x3fe9c778

----------------
IN: 
0x3fe9c78c:  e3a0e040      mov	lr, #64	; 0x40
0x3fe9c790:  e3a0c000      mov	ip, #0	; 0x0
0x3fe9c794:  e59f316c      ldr	r3, [pc, #364]	; 0x3fe9c908
0x3fe9c798:  e59f516c      ldr	r5, [pc, #364]	; 0x3fe9c90c
0x3fe9c79c:  e59f216c      ldr	r2, [pc, #364]	; 0x3fe9c910
0x3fe9c7a0:  e08f3003      add	r3, pc, r3
0x3fe9c7a4:  e2836034      add	r6, r3, #52	; 0x34
0x3fe9c7a8:  e1a01004      mov	r1, r4
0x3fe9c7ac:  e3a0000c      mov	r0, #12	; 0xc
0x3fe9c7b0:  e08f5005      add	r5, pc, r5
0x3fe9c7b4:  e08f2002      add	r2, pc, r2
0x3fe9c7b8:  e5836034      str	r6, [r3, #52]
0x3fe9c7bc:  e583c008      str	ip, [r3, #8]
0x3fe9c7c0:  e585e004      str	lr, [r5, #4]
0x3fe9c7c4:  ebfe432f      bl	0x3fe2d488

----------------
IN: 
0x3fe2d488:  e28fc601      add	ip, pc, #1048576	; 0x100000
0x3fe2d48c:  e28cca69      add	ip, ip, #430080	; 0x69000
0x3fe2d490:  e5bcfba8      ldr	pc, [ip, #2984]!

----------------
IN: 
0x3ffd9a74:  e59fc0dc      ldr	ip, [pc, #220]	; 0x3ffd9b58
0x3ffd9a78:  e92d4800      push	{fp, lr}
0x3ffd9a7c:  e08fc00c      add	ip, pc, ip
0x3ffd9a80:  e060e180      rsb	lr, r0, r0, lsl #3
0x3ffd9a84:  e08cc20e      add	ip, ip, lr, lsl #4
0x3ffd9a88:  e59cc030      ldr	ip, [ip, #48]
0x3ffd9a8c:  e1a03180      lsl	r3, r0, #3
0x3ffd9a90:  e35c0003      cmp	ip, #3	; 0x3
0x3ffd9a94:  908ff10c      addls	pc, pc, ip, lsl #2

----------------
IN: 
0x3ffd9aa4:  ea000000      b	0x3ffd9aac

----------------
IN: 
0x3ffd9aac:  e59fc0a8      ldr	ip, [pc, #168]	; 0x3ffd9b5c
0x3ffd9ab0:  e043e000      sub	lr, r3, r0
0x3ffd9ab4:  e08fc00c      add	ip, pc, ip
0x3ffd9ab8:  e08cc20e      add	ip, ip, lr, lsl #4
0x3ffd9abc:  e59cc048      ldr	ip, [ip, #72]
0x3ffd9ac0:  e581c000      str	ip, [r1]
0x3ffd9ac4:  e59f1094      ldr	r1, [pc, #148]	; 0x3ffd9b60
0x3ffd9ac8:  e0430000      sub	r0, r3, r0
0x3ffd9acc:  e08f1001      add	r1, pc, r1
0x3ffd9ad0:  e0813200      add	r3, r1, r0, lsl #4
0x3ffd9ad4:  e5d33050      ldrb	r3, [r3, #80]
0x3ffd9ad8:  e1a00200      lsl	r0, r0, #4
0x3ffd9adc:  e3520000      cmp	r2, #0	; 0x0
0x3ffd9ae0:  03a03000      moveq	r3, #0	; 0x0
0x3ffd9ae4:  12033001      andne	r3, r3, #1	; 0x1
0x3ffd9ae8:  e3530000      cmp	r3, #0	; 0x0
0x3ffd9aec:  08bd8800      popeq	{fp, pc}

----------------
IN: 
0x3fe9c7c8:  e59f2144      ldr	r2, [pc, #324]	; 0x3fe9c914
0x3fe9c7cc:  e1a01004      mov	r1, r4
0x3fe9c7d0:  e3a00003      mov	r0, #3	; 0x3
0x3fe9c7d4:  e08f2002      add	r2, pc, r2
0x3fe9c7d8:  ebfe432a      bl	0x3fe2d488

----------------
IN: 
0x3ffd9a9c:  ea00001f      b	0x3ffd9b20

----------------
IN: 
0x3ffd9b20:  e59fc040      ldr	ip, [pc, #64]	; 0x3ffd9b68
0x3ffd9b24:  e043e000      sub	lr, r3, r0
0x3ffd9b28:  e08fc00c      add	ip, pc, ip
0x3ffd9b2c:  e08cc20e      add	ip, ip, lr, lsl #4
0x3ffd9b30:  e59cc048      ldr	ip, [ip, #72]
0x3ffd9b34:  e581c000      str	ip, [r1]
0x3ffd9b38:  eaffffe1      b	0x3ffd9ac4

----------------
IN: 
0x3ffd9ac4:  e59f1094      ldr	r1, [pc, #148]	; 0x3ffd9b60
0x3ffd9ac8:  e0430000      sub	r0, r3, r0
0x3ffd9acc:  e08f1001      add	r1, pc, r1
0x3ffd9ad0:  e0813200      add	r3, r1, r0, lsl #4
0x3ffd9ad4:  e5d33050      ldrb	r3, [r3, #80]
0x3ffd9ad8:  e1a00200      lsl	r0, r0, #4
0x3ffd9adc:  e3520000      cmp	r2, #0	; 0x0
0x3ffd9ae0:  03a03000      moveq	r3, #0	; 0x0
0x3ffd9ae4:  12033001      andne	r3, r3, #1	; 0x1
0x3ffd9ae8:  e3530000      cmp	r3, #0	; 0x0
0x3ffd9aec:  08bd8800      popeq	{fp, pc}

----------------
IN: 
0x3fe9c7dc:  e59f2134      ldr	r2, [pc, #308]	; 0x3fe9c918
0x3fe9c7e0:  e1a01004      mov	r1, r4
0x3fe9c7e4:  e3a00014      mov	r0, #20	; 0x14
0x3fe9c7e8:  e08f2002      add	r2, pc, r2
0x3fe9c7ec:  ebfe4325      bl	0x3fe2d488

----------------
IN: 
0x3fe9c7f0:  e59f2124      ldr	r2, [pc, #292]	; 0x3fe9c91c
0x3fe9c7f4:  e1a01004      mov	r1, r4
0x3fe9c7f8:  e3a00002      mov	r0, #2	; 0x2
0x3fe9c7fc:  e08f2002      add	r2, pc, r2
0x3fe9c800:  ebfe4320      bl	0x3fe2d488

----------------
IN: 
0x3fe9c804:  e59f2114      ldr	r2, [pc, #276]	; 0x3fe9c920
0x3fe9c808:  e1a01004      mov	r1, r4
0x3fe9c80c:  e3a0000f      mov	r0, #15	; 0xf
0x3fe9c810:  e08f2002      add	r2, pc, r2
0x3fe9c814:  ebfe431b      bl	0x3fe2d488

----------------
IN: 
0x3fe9c818:  e59f2104      ldr	r2, [pc, #260]	; 0x3fe9c924
0x3fe9c81c:  e1a01004      mov	r1, r4
0x3fe9c820:  e3a00013      mov	r0, #19	; 0x13
0x3fe9c824:  e08f2002      add	r2, pc, r2
0x3fe9c828:  ebfe4316      bl	0x3fe2d488

----------------
IN: 
0x3fe9c82c:  e59f20f4      ldr	r2, [pc, #244]	; 0x3fe9c928
0x3fe9c830:  e1a01004      mov	r1, r4
0x3fe9c834:  e3a00016      mov	r0, #22	; 0x16
0x3fe9c838:  e08f2002      add	r2, pc, r2
0x3fe9c83c:  ebfe4311      bl	0x3fe2d488

----------------
IN: 
0x3fe9c840:  e59f20e4      ldr	r2, [pc, #228]	; 0x3fe9c92c
0x3fe9c844:  e1a01004      mov	r1, r4
0x3fe9c848:  e3a00019      mov	r0, #25	; 0x19
0x3fe9c84c:  e08f2002      add	r2, pc, r2
0x3fe9c850:  ebfe430c      bl	0x3fe2d488

----------------
IN: 
0x3fe9c854:  e59f20d4      ldr	r2, [pc, #212]	; 0x3fe9c930
0x3fe9c858:  e1a01004      mov	r1, r4
0x3fe9c85c:  e3a00015      mov	r0, #21	; 0x15
0x3fe9c860:  e08f2002      add	r2, pc, r2
0x3fe9c864:  ebfe4307      bl	0x3fe2d488

----------------
IN: 
0x3fe9c868:  e59f20c4      ldr	r2, [pc, #196]	; 0x3fe9c934
0x3fe9c86c:  e1a01004      mov	r1, r4
0x3fe9c870:  e3a00011      mov	r0, #17	; 0x11
0x3fe9c874:  e08f2002      add	r2, pc, r2
0x3fe9c878:  ebfe4302      bl	0x3fe2d488

----------------
IN: 
0x3fe9c87c:  e59f20b4      ldr	r2, [pc, #180]	; 0x3fe9c938
0x3fe9c880:  e1a01004      mov	r1, r4
0x3fe9c884:  e3a00009      mov	r0, #9	; 0x9
0x3fe9c888:  e08f2002      add	r2, pc, r2
0x3fe9c88c:  ebfe42fd      bl	0x3fe2d488

----------------
IN: 
0x3fe9c890:  e59f20a4      ldr	r2, [pc, #164]	; 0x3fe9c93c
0x3fe9c894:  e1a01004      mov	r1, r4
0x3fe9c898:  e08f2002      add	r2, pc, r2
0x3fe9c89c:  e3a00008      mov	r0, #8	; 0x8
0x3fe9c8a0:  ebfe42f8      bl	0x3fe2d488

----------------
IN: 
0x3fe9c8a4:  e59f3094      ldr	r3, [pc, #148]	; 0x3fe9c940
0x3fe9c8a8:  e59f2094      ldr	r2, [pc, #148]	; 0x3fe9c944
0x3fe9c8ac:  e08f3003      add	r3, pc, r3
0x3fe9c8b0:  e5933018      ldr	r3, [r3, #24]
0x3fe9c8b4:  e08f2002      add	r2, pc, r2
0x3fe9c8b8:  e3530000      cmp	r3, #0	; 0x0
0x3fe9c8bc:  13a03001      movne	r3, #1	; 0x1
0x3fe9c8c0:  15c53010      strbne	r3, [r5, #16]
0x3fe9c8c4:  e59f3028      ldr	r3, [pc, #40]	; 0x3fe9c8f4
0x3fe9c8c8:  e7923003      ldr	r3, [r2, r3]
0x3fe9c8cc:  e5932000      ldr	r2, [r3]
0x3fe9c8d0:  e59d3014      ldr	r3, [sp, #20]
0x3fe9c8d4:  e0332002      eors	r2, r3, r2
0x3fe9c8d8:  e3a03000      mov	r3, #0	; 0x0
0x3fe9c8dc:  1a000001      bne	0x3fe9c8e8

----------------
IN: 
0x3fe9c8e0:  e28dd018      add	sp, sp, #24	; 0x18
0x3fe9c8e4:  e8bd8070      pop	{r4, r5, r6, pc}

----------------
IN: 
0x3fea0894:  e3560000      cmp	r6, #0	; 0x0
0x3fea0898:  aaffff6b      bge	0x3fea064c

----------------
IN: 
0x3fea064c:  e286400b      add	r4, r6, #11	; 0xb
0x3fea0650:  e354000f      cmp	r4, #15	; 0xf
0x3fea0654:  83c44007      bichi	r4, r4, #7	; 0x7
0x3fea0658:  82444009      subhi	r4, r4, #9	; 0x9
0x3fea065c:  93a04000      movls	r4, #0	; 0x0
0x3fea0660:  81a041a4      lsrhi	r4, r4, #3
0x3fea0664:  ebfe3621      bl	0x3fe2def0

----------------
IN: 
0x3fea0668:  e59f3314      ldr	r3, [pc, #788]	; 0x3fea0984
0x3fea066c:  e79f3003      ldr	r3, [pc, r3]
0x3fea0670:  e0805003      add	r5, r0, r3
0x3fea0674:  e5953004      ldr	r3, [r5, #4]
0x3fea0678:  e3530000      cmp	r3, #0	; 0x0
0x3fea067c:  0a000045      beq	0x3fea0798

----------------
IN: 
0x3fea0798:  e5d53008      ldrb	r3, [r5, #8]
0x3fea079c:  e3530000      cmp	r3, #0	; 0x0
0x3fea07a0:  1affffbb      bne	0x3fea0694

----------------
IN: 
0x3fea07a4:  ebfffd9b      bl	0x3fe9fe18

----------------
IN: 
0x3fe9fe18:  e92d4070      push	{r4, r5, r6, lr}
0x3fe9fe1c:  ebfe3833      bl	0x3fe2def0

----------------
IN: 
0x3fe9fe20:  e59f3154      ldr	r3, [pc, #340]	; 0x3fe9ff7c
0x3fe9fe24:  e79f3003      ldr	r3, [pc, r3]
0x3fe9fe28:  e7905003      ldr	r5, [r0, r3]
0x3fe9fe2c:  e3550000      cmp	r5, #0	; 0x0
0x3fe9fe30:  0a00002f      beq	0x3fe9fef4

----------------
IN: 
0x3fe9fe34:  e3a01001      mov	r1, #1	; 0x1
0x3fe9fe38:  e1a02005      mov	r2, r5
0x3fe9fe3c:  e3a04000      mov	r4, #0	; 0x0
0x3fe9fe40:  e5923000      ldr	r3, [r2]
0x3fe9fe44:  e1530004      cmp	r3, r4
0x3fe9fe48:  1a000005      bne	0x3fe9fe64

----------------
IN: 
0x3fe9fe4c:  e1a00004      mov	r0, r4
0x3fe9fe50:  e3e03a0f      mvn	r3, #61440	; 0xf000
0x3fe9fe54:  e1a0e00f      mov	lr, pc
0x3fe9fe58:  e243f03f      sub	pc, r3, #63	; 0x3f

----------------
IN: 
0x3fe9fe5c:  3afffff7      bcc	0x3fe9fe40

----------------
IN: 
0x3fe9fe60:  e1a03004      mov	r3, r4
0x3fe9fe64:  e1530004      cmp	r3, r4
0x3fe9fe68:  1a00003d      bne	0x3fe9ff64

----------------
IN: 
0x3fe9fe6c:  e3a01d06      mov	r1, #384	; 0x180
0x3fe9fe70:  e1a00005      mov	r0, r5
0x3fe9fe74:  ebfffbc5      bl	0x3fe9ed90

----------------
IN: 
0x3fe9ed90:  e92d4ff0      push	{r4, r5, r6, r7, r8, r9, sl, fp, lr}
0x3fe9ed94:  e2513000      subs	r3, r1, #0	; 0x0
0x3fe9ed98:  e24dd064      sub	sp, sp, #100	; 0x64
0x3fe9ed9c:  e58d3000      str	r3, [sp]
0x3fe9eda0:  ba000192      blt	0x3fe9f3f0

----------------
IN: 
0x3fe9eda4:  e59d3000      ldr	r3, [sp]
0x3fe9eda8:  e1a0b000      mov	fp, r0
0x3fe9edac:  e283300b      add	r3, r3, #11	; 0xb
0x3fe9edb0:  e353000f      cmp	r3, #15	; 0xf
0x3fe9edb4:  8a000046      bhi	0x3fe9eed4

----------------
IN: 
0x3fe9eed4:  e3500000      cmp	r0, #0	; 0x0
0x3fe9eed8:  e3c38007      bic	r8, r3, #7	; 0x7
0x3fe9eedc:  0a000165      beq	0x3fe9f478

----------------
IN: 
0x3fe9eee0:  e59f3e44      ldr	r3, [pc, #3652]	; 0x3fe9fd2c
0x3fe9eee4:  e1a051a8      lsr	r5, r8, #3
0x3fe9eee8:  e08f3003      add	r3, pc, r3
0x3fe9eeec:  e5933004      ldr	r3, [r3, #4]
0x3fe9eef0:  e1580003      cmp	r8, r3
0x3fe9eef4:  9a00008a      bls	0x3fe9f124

----------------
IN: 
0x3fe9eef8:  e3580c02      cmp	r8, #512	; 0x200
0x3fe9eefc:  3a00008f      bcc	0x3fe9f140

----------------
IN: 
0x3fe9f140:  e1a03185      lsl	r3, r5, #3
0x3fe9f144:  e2833034      add	r3, r3, #52	; 0x34
0x3fe9f148:  eaffff24      b	0x3fe9ede0

----------------
IN: 
0x3fe9ede0:  e08b3003      add	r3, fp, r3
0x3fe9ede4:  e5934004      ldr	r4, [r3, #4]
0x3fe9ede8:  e2431008      sub	r1, r3, #8	; 0x8
0x3fe9edec:  e1510004      cmp	r1, r4
0x3fe9edf0:  0a0000ec      beq	0x3fe9f1a8

----------------
IN: 
0x3fe9f1a8:  e3a0105b      mov	r1, #91	; 0x5b
0x3fe9f1ac:  e58d102c      str	r1, [sp, #44]
0x3fe9f1b0:  e3a0106e      mov	r1, #110	; 0x6e
0x3fe9f1b4:  e58d1038      str	r1, [sp, #56]
0x3fe9f1b8:  e3a01077      mov	r1, #119	; 0x77
0x3fe9f1bc:  e3a03000      mov	r3, #0	; 0x0
0x3fe9f1c0:  e58d1058      str	r1, [sp, #88]
0x3fe9f1c4:  e3a0107c      mov	r1, #124	; 0x7c
0x3fe9f1c8:  e1a02328      lsr	r2, r8, #6
0x3fe9f1cc:  e58d2048      str	r2, [sp, #72]
0x3fe9f1d0:  e2822038      add	r2, r2, #56	; 0x38
0x3fe9f1d4:  e58d304c      str	r3, [sp, #76]
0x3fe9f1d8:  e58d503c      str	r5, [sp, #60]
0x3fe9f1dc:  e58d1054      str	r1, [sp, #84]
0x3fe9f1e0:  e58d2014      str	r2, [sp, #20]
0x3fe9f1e4:  e58d305c      str	r3, [sp, #92]
0x3fe9f1e8:  e58d3050      str	r3, [sp, #80]
0x3fe9f1ec:  ebfe3b3f      bl	0x3fe2def0

----------------
IN: 
0x3fe9f1f0:  e59f3b4c      ldr	r3, [pc, #2892]	; 0x3fe9fd44
0x3fe9f1f4:  e2482009      sub	r2, r8, #9	; 0x9
0x3fe9f1f8:  e79f3003      ldr	r3, [pc, r3]
0x3fe9f1fc:  e1a021a2      lsr	r2, r2, #3
0x3fe9f200:  e0800003      add	r0, r0, r3
0x3fe9f204:  e5903004      ldr	r3, [r0, #4]
0x3fe9f208:  e58d200c      str	r2, [sp, #12]
0x3fe9f20c:  e3530000      cmp	r3, #0	; 0x0
0x3fe9f210:  e58d3004      str	r3, [sp, #4]
0x3fe9f214:  0a000090      beq	0x3fe9f45c

----------------
IN: 
0x3fe9f45c:  e59d3004      ldr	r3, [sp, #4]
0x3fe9f460:  e58d3028      str	r3, [sp, #40]
0x3fe9f464:  eaffff72      b	0x3fe9f234

----------------
IN: 
0x3fe9f234:  e3a03000      mov	r3, #0	; 0x0
0x3fe9f238:  e58d3008      str	r3, [sp, #8]
0x3fe9f23c:  e59f3b08      ldr	r3, [pc, #2824]	; 0x3fe9fd4c
0x3fe9f240:  e59f6b08      ldr	r6, [pc, #2824]	; 0x3fe9fd50
0x3fe9f244:  e08f3003      add	r3, pc, r3
0x3fe9f248:  e58d3010      str	r3, [sp, #16]
0x3fe9f24c:  e59f3b00      ldr	r3, [pc, #2816]	; 0x3fe9fd54
0x3fe9f250:  e08f6006      add	r6, pc, r6
0x3fe9f254:  e08f3003      add	r3, pc, r3
0x3fe9f258:  e58d3024      str	r3, [sp, #36]
0x3fe9f25c:  e28b7034      add	r7, fp, #52	; 0x34
0x3fe9f260:  e58d5044      str	r5, [sp, #68]
0x3fe9f264:  e59b9040      ldr	r9, [fp, #64]
0x3fe9f268:  e1590007      cmp	r9, r7
0x3fe9f26c:  0a0000da      beq	0x3fe9f5dc

----------------
IN: 
0x3fe9f5dc:  e3580c02      cmp	r8, #512	; 0x200
0x3fe9f5e0:  3a00000a      bcc	0x3fe9f610

----------------
IN: 
0x3fe9f610:  e3a03001      mov	r3, #1	; 0x1
0x3fe9f614:  e59d203c      ldr	r2, [sp, #60]
0x3fe9f618:  e0821003      add	r1, r2, r3
0x3fe9f61c:  e1a002a1      lsr	r0, r1, #5
0x3fe9f620:  e280cf43      add	ip, r0, #268	; 0x10c
0x3fe9f624:  e201101f      and	r1, r1, #31	; 0x1f
0x3fe9f628:  e1a03113      lsl	r3, r3, r1
0x3fe9f62c:  e08b110c      add	r1, fp, ip, lsl #2
0x3fe9f630:  e08b2182      add	r2, fp, r2, lsl #3
0x3fe9f634:  e5911004      ldr	r1, [r1, #4]
0x3fe9f638:  e2822034      add	r2, r2, #52	; 0x34
0x3fe9f63c:  e16fef13      clz	lr, r3
0x3fe9f640:  e1a0e2ae      lsr	lr, lr, #5
0x3fe9f644:  e1530001      cmp	r3, r1
0x3fe9f648:  838ee001      orrhi	lr, lr, #1	; 0x1
0x3fe9f64c:  e35e0000      cmp	lr, #0	; 0x0
0x3fe9f650:  0a000003      beq	0x3fe9f664

----------------
IN: 
0x3fe9f654:  ea000074      b	0x3fe9f82c

----------------
IN: 
0x3fe9f82c:  e28c3002      add	r3, ip, #2	; 0x2
0x3fe9f830:  e08b3103      add	r3, fp, r3, lsl #2
0x3fe9f834:  ea000002      b	0x3fe9f844

----------------
IN: 
0x3fe9f844:  e2800001      add	r0, r0, #1	; 0x1
0x3fe9f848:  e3500004      cmp	r0, #4	; 0x4
0x3fe9f84c:  1afffff9      bne	0x3fe9f838

----------------
IN: 
0x3fe9f838:  e4931004      ldr	r1, [r3], #4
0x3fe9f83c:  e3510000      cmp	r1, #0	; 0x0
0x3fe9f840:  1a000044      bne	0x3fe9f958

----------------
IN: 
0x3fe9f850:  e59b2034      ldr	r2, [fp, #52]
0x3fe9f854:  e59b1450      ldr	r1, [fp, #1104]
0x3fe9f858:  e5923004      ldr	r3, [r2, #4]
0x3fe9f85c:  e3c33007      bic	r3, r3, #7	; 0x7
0x3fe9f860:  e1510003      cmp	r1, r3
0x3fe9f864:  3a000071      bcc	0x3fe9fa30

----------------
IN: 
0x3fe9f868:  e2881010      add	r1, r8, #16	; 0x10
0x3fe9f86c:  e1510003      cmp	r1, r3
0x3fe9f870:  9a0000aa      bls	0x3fe9fb20

----------------
IN: 
0x3fe9f874:  e59b3008      ldr	r3, [fp, #8]
0x3fe9f878:  e3530000      cmp	r3, #0	; 0x0
0x3fe9f87c:  0a0000b8      beq	0x3fe9fb64

----------------
IN: 
0x3fe9fb64:  e1a0100b      mov	r1, fp
0x3fe9fb68:  e1a00008      mov	r0, r8
0x3fe9fb6c:  ebfffa69      bl	0x3fe9e518

----------------
IN: 
0x3fe9e518:  e92d4ff0      push	{r4, r5, r6, r7, r8, r9, sl, fp, lr}
0x3fe9e51c:  e59f27bc      ldr	r2, [pc, #1980]	; 0x3fe9ece0
0x3fe9e520:  e59f37bc      ldr	r3, [pc, #1980]	; 0x3fe9ece4
0x3fe9e524:  e08f2002      add	r2, pc, r2
0x3fe9e528:  e7923003      ldr	r3, [r2, r3]
0x3fe9e52c:  e24dd024      sub	sp, sp, #36	; 0x24
0x3fe9e530:  e5933000      ldr	r3, [r3]
0x3fe9e534:  e58d301c      str	r3, [sp, #28]
0x3fe9e538:  e3a03000      mov	r3, #0	; 0x0
0x3fe9e53c:  e59f97a4      ldr	r9, [pc, #1956]	; 0x3fe9ece8
0x3fe9e540:  e59f37a4      ldr	r3, [pc, #1956]	; 0x3fe9ecec
0x3fe9e544:  e08f9009      add	r9, pc, r9
0x3fe9e548:  e7993003      ldr	r3, [r9, r3]
0x3fe9e54c:  e2514000      subs	r4, r1, #0	; 0x0
0x3fe9e550:  e5933010      ldr	r3, [r3, #16]
0x3fe9e554:  e1a05000      mov	r5, r0
0x3fe9e558:  e58d300c      str	r3, [sp, #12]
0x3fe9e55c:  0a000057      beq	0x3fe9e6c0

----------------
IN: 
0x3fe9e560:  e59f3788      ldr	r3, [pc, #1928]	; 0x3fe9ecf0
0x3fe9e564:  e08f3003      add	r3, pc, r3
0x3fe9e568:  e5932008      ldr	r2, [r3, #8]
0x3fe9e56c:  e1520000      cmp	r2, r0
0x3fe9e570:  9a00004e      bls	0x3fe9e6b0

----------------
IN: 
0x3fe9e574:  e3a03000      mov	r3, #0	; 0x0
0x3fe9e578:  e58d3010      str	r3, [sp, #16]
0x3fe9e57c:  e1a03004      mov	r3, r4
0x3fe9e580:  e5b38034      ldr	r8, [r3, #52]!
0x3fe9e584:  e5982004      ldr	r2, [r8, #4]
0x3fe9e588:  e3c26007      bic	r6, r2, #7	; 0x7
0x3fe9e58c:  e3560000      cmp	r6, #0	; 0x0
0x3fe9e590:  01580003      cmpeq	r8, r3
0x3fe9e594:  e0887006      add	r7, r8, r6
0x3fe9e598:  0a000007      beq	0x3fe9e5bc

----------------
IN: 
0x3fe9e5bc:  e285b010      add	fp, r5, #16	; 0x10
0x3fe9e5c0:  e15b0006      cmp	fp, r6
0x3fe9e5c4:  9a0001a4      bls	0x3fe9ec5c

----------------
IN: 
0x3fe9e5c8:  e59f3724      ldr	r3, [pc, #1828]	; 0x3fe9ecf4
0x3fe9e5cc:  e08f3003      add	r3, pc, r3
0x3fe9e5d0:  e1540003      cmp	r4, r3
0x3fe9e5d4:  0a00008a      beq	0x3fe9e804

----------------
IN: 
0x3fe9e804:  e5942004      ldr	r2, [r4, #4]
0x3fe9e808:  e59f3500      ldr	r3, [pc, #1280]	; 0x3fe9ed10
0x3fe9e80c:  e3120002      tst	r2, #2	; 0x2
0x3fe9e810:  e08f3003      add	r3, pc, r3
0x3fe9e814:  e59f24f8      ldr	r2, [pc, #1272]	; 0x3fe9ed14
0x3fe9e818:  e5933004      ldr	r3, [r3, #4]
0x3fe9e81c:  e08f2002      add	r2, pc, r2
0x3fe9e820:  e5922014      ldr	r2, [r2, #20]
0x3fe9e824:  e2833010      add	r3, r3, #16	; 0x10
0x3fe9e828:  e0833005      add	r3, r3, r5
0x3fe9e82c:  00433006      subeq	r3, r3, r6
0x3fe9e830:  e3520000      cmp	r2, #0	; 0x0
0x3fe9e834:  1a0000d1      bne	0x3fe9eb80

----------------
IN: 
0x3fe9e838:  e59d200c      ldr	r2, [sp, #12]
0x3fe9e83c:  e2420001      sub	r0, r2, #1	; 0x1
0x3fe9e840:  e0800003      add	r0, r0, r3
0x3fe9e844:  e2623000      rsb	r3, r2, #0	; 0x0
0x3fe9e848:  e0000003      and	r0, r0, r3
0x3fe9e84c:  e3500000      cmp	r0, #0	; 0x0
0x3fe9e850:  e58d0018      str	r0, [sp, #24]
0x3fe9e854:  ca000045      bgt	0x3fe9e970

----------------
IN: 
0x3fe9e970:  ebfffbc6      bl	0x3fe9d890

----------------
IN: 
0x3fe9d890:  e59f302c      ldr	r3, [pc, #44]	; 0x3fe9d8c4
0x3fe9d894:  e08f3003      add	r3, pc, r3
0x3fe9d898:  e5d33010      ldrb	r3, [r3, #16]
0x3fe9d89c:  e3530000      cmp	r3, #0	; 0x0
0x3fe9d8a0:  1a000005      bne	0x3fe9d8bc

----------------
IN: 
0x3fe9d8a4:  e92d4010      push	{r4, lr}
0x3fe9d8a8:  eb019687      bl	0x3ff032cc

----------------
IN: 
0x3ff032cc:  e92d4070      push	{r4, r5, r6, lr}
0x3ff032d0:  e59f30bc      ldr	r3, [pc, #188]	; 0x3ff03394
0x3ff032d4:  e59f20bc      ldr	r2, [pc, #188]	; 0x3ff03398
0x3ff032d8:  e08f3003      add	r3, pc, r3
0x3ff032dc:  e7936002      ldr	r6, [r3, r2]
0x3ff032e0:  e59f30b4      ldr	r3, [pc, #180]	; 0x3ff0339c
0x3ff032e4:  e1a04000      mov	r4, r0
0x3ff032e8:  e08f3003      add	r3, pc, r3
0x3ff032ec:  e5d33000      ldrb	r3, [r3]
0x3ff032f0:  e5965000      ldr	r5, [r6]
0x3ff032f4:  e3530000      cmp	r3, #0	; 0x0
0x3ff032f8:  1a000007      bne	0x3ff0331c

----------------
IN: 
0x3ff0331c:  e3550000      cmp	r5, #0	; 0x0
0x3ff03320:  1a000004      bne	0x3ff03338

----------------
IN: 
0x3ff03324:  e1a00005      mov	r0, r5
0x3ff03328:  ebffffcf      bl	0x3ff0326c

----------------
IN: 
0x3ff0326c:  e59f304c      ldr	r3, [pc, #76]	; 0x3ff032c0
0x3ff03270:  e92d4080      push	{r7, lr}
0x3ff03274:  e08f3003      add	r3, pc, r3
0x3ff03278:  e3a0702d      mov	r7, #45	; 0x2d
0x3ff0327c:  e1a02000      mov	r2, r0
0x3ff03280:  ef000000      svc	0x00000000

----------------
IN: 
0x3ff03284:  e59f1038      ldr	r1, [pc, #56]	; 0x3ff032c4
0x3ff03288:  e1500002      cmp	r0, r2
0x3ff0328c:  e7933001      ldr	r3, [r3, r1]
0x3ff03290:  e5830000      str	r0, [r3]
0x3ff03294:  23a03000      movcs	r3, #0	; 0x0
0x3ff03298:  3a000001      bcc	0x3ff032a4

----------------
IN: 
0x3ff0329c:  e1a00003      mov	r0, r3
0x3ff032a0:  e8bd8080      pop	{r7, pc}

----------------
IN: 
0x3ff0332c:  e3500000      cmp	r0, #0	; 0x0
0x3ff03330:  a5965000      ldrge	r5, [r6]
0x3ff03334:  ba000013      blt	0x3ff03388

----------------
IN: 
0x3ff03338:  e3540000      cmp	r4, #0	; 0x0
0x3ff0333c:  0afffff3      beq	0x3ff03310

----------------
IN: 
0x3ff03340:  da000009      ble	0x3ff0336c

----------------
IN: 
0x3ff03344:  e0950004      adds	r0, r5, r4
0x3ff03348:  3a00000b      bcc	0x3ff0337c

----------------
IN: 
0x3ff0337c:  ebffffba      bl	0x3ff0326c

----------------
IN: 
0x3ff03380:  e3500000      cmp	r0, #0	; 0x0
0x3ff03384:  aaffffe2      bge	0x3ff03314

----------------
IN: 
0x3ff03314:  e1a00005      mov	r0, r5
0x3ff03318:  e8bd8070      pop	{r4, r5, r6, pc}

----------------
IN: 
0x3fe9d8ac:  e3700001      cmn	r0, #1	; 0x1
0x3fe9d8b0:  18bd8010      popne	{r4, pc}

----------------
IN: 
0x3fe9e974:  e2503000      subs	r3, r0, #0	; 0x0
0x3fe9e978:  0affffb6      beq	0x3fe9e858

----------------
IN: 
0x3fe9e97c:  e59f23a0      ldr	r2, [pc, #928]	; 0x3fe9ed24
0x3fe9e980:  e59d1018      ldr	r1, [sp, #24]
0x3fe9e984:  e08f2002      add	r2, pc, r2
0x3fe9e988:  e5922014      ldr	r2, [r2, #20]
0x3fe9e98c:  e2422001      sub	r2, r2, #1	; 0x1
0x3fe9e990:  e1510002      cmp	r1, r2
0x3fe9e994:  93a02001      movls	r2, #1	; 0x1
0x3fe9e998:  93a09000      movls	r9, #0	; 0x0
0x3fe9e99c:  9affffc4      bls	0x3fe9e8b4

----------------
IN: 
0x3fe9e8b4:  e59f0460      ldr	r0, [pc, #1120]	; 0x3fe9ed1c
0x3fe9e8b8:  e08f0000      add	r0, pc, r0
0x3fe9e8bc:  e590c038      ldr	ip, [r0, #56]
0x3fe9e8c0:  e35c0000      cmp	ip, #0	; 0x0
0x3fe9e8c4:  05803038      streq	r3, [r0, #56]
0x3fe9e8c8:  e1570003      cmp	r7, r3
0x3fe9e8cc:  13a02000      movne	r2, #0	; 0x0
0x3fe9e8d0:  02022001      andeq	r2, r2, #1	; 0x1
0x3fe9e8d4:  e3520000      cmp	r2, #0	; 0x0
0x3fe9e8d8:  e59f2440      ldr	r2, [pc, #1088]	; 0x3fe9ed20
0x3fe9e8dc:  e08f2002      add	r2, pc, r2
0x3fe9e8e0:  e592c450      ldr	ip, [r2, #1104]
0x3fe9e8e4:  e081c00c      add	ip, r1, ip
0x3fe9e8e8:  e582c450      str	ip, [r2, #1104]
0x3fe9e8ec:  0a000047      beq	0x3fe9ea10

----------------
IN: 
0x3fe9ea10:  e5920004      ldr	r0, [r2, #4]
0x3fe9ea14:  e3100002      tst	r0, #2	; 0x2
0x3fe9ea18:  1a000032      bne	0x3fe9eae8

----------------
IN: 
0x3fe9ea1c:  e3560000      cmp	r6, #0	; 0x0
0x3fe9ea20:  11570003      cmpne	r7, r3
0x3fe9ea24:  8a0000aa      bhi	0x3fe9ecd4

----------------
IN: 
0x3fe9ea28:  e3560000      cmp	r6, #0	; 0x0
0x3fe9ea2c:  10430007      subne	r0, r3, r7
0x3fe9ea30:  1080000c      addne	r0, r0, ip
0x3fe9ea34:  15820450      strne	r0, [r2, #1104]
0x3fe9ea38:  e2132007      ands	r2, r3, #7	; 0x7
0x3fe9ea3c:  01a02006      moveq	r2, r6
0x3fe9ea40:  12622008      rsbne	r2, r2, #8	; 0x8
0x3fe9ea44:  10830002      addne	r0, r3, r2
0x3fe9ea48:  10822006      addne	r2, r2, r6
0x3fe9ea4c:  e0811002      add	r1, r1, r2
0x3fe9ea50:  e0831001      add	r1, r3, r1
0x3fe9ea54:  158d0014      strne	r0, [sp, #20]
0x3fe9ea58:  e0420001      sub	r0, r2, r1
0x3fe9ea5c:  e59d200c      ldr	r2, [sp, #12]
0x3fe9ea60:  058d3014      streq	r3, [sp, #20]
0x3fe9ea64:  e2423001      sub	r3, r2, #1	; 0x1
0x3fe9ea68:  e083a001      add	sl, r3, r1
0x3fe9ea6c:  e2622000      rsb	r2, r2, #0	; 0x0
0x3fe9ea70:  e00aa002      and	sl, sl, r2
0x3fe9ea74:  e09aa000      adds	sl, sl, r0
0x3fe9ea78:  4a00008d      bmi	0x3fe9ecb4

----------------
IN: 
0x3fe9ea7c:  e1a0000a      mov	r0, sl
0x3fe9ea80:  e58d2010      str	r2, [sp, #16]
0x3fe9ea84:  e58d300c      str	r3, [sp, #12]
0x3fe9ea88:  ebfffb80      bl	0x3fe9d890

----------------
IN: 
0x3ff03310:  e5965000      ldr	r5, [r6]
0x3ff03314:  e1a00005      mov	r0, r5
0x3ff03318:  e8bd8070      pop	{r4, r5, r6, pc}

----------------
IN: 
0x3fe9ea8c:  e2509000      subs	r9, r0, #0	; 0x0
0x3fe9ea90:  e59d300c      ldr	r3, [sp, #12]
0x3fe9ea94:  e59d2010      ldr	r2, [sp, #16]
0x3fe9ea98:  0a000051      beq	0x3fe9ebe4

----------------
IN: 
0x3fe9ea9c:  e59f1284      ldr	r1, [pc, #644]	; 0x3fe9ed28
0x3fe9eaa0:  e08f1001      add	r1, pc, r1
0x3fe9eaa4:  e5911014      ldr	r1, [r1, #20]
0x3fe9eaa8:  e2411001      sub	r1, r1, #1	; 0x1
0x3fe9eaac:  e151000a      cmp	r1, sl
0x3fe9eab0:  3a00003c      bcc	0x3fe9eba8

----------------
IN: 
0x3fe9eab4:  e59f2270      ldr	r2, [pc, #624]	; 0x3fe9ed2c
0x3fe9eab8:  e59d3014      ldr	r3, [sp, #20]
0x3fe9eabc:  e08f2002      add	r2, pc, r2
0x3fe9eac0:  e592c450      ldr	ip, [r2, #1104]
0x3fe9eac4:  e08ac00c      add	ip, sl, ip
0x3fe9eac8:  ea00000a      b	0x3fe9eaf8

----------------
IN: 
0x3fe9eaf8:  e0492003      sub	r2, r9, r3
0x3fe9eafc:  e59f9230      ldr	r9, [pc, #560]	; 0x3fe9ed34
0x3fe9eb00:  e082200a      add	r2, r2, sl
0x3fe9eb04:  e08f9009      add	r9, pc, r9
0x3fe9eb08:  e3822001      orr	r2, r2, #1	; 0x1
0x3fe9eb0c:  e3560000      cmp	r6, #0	; 0x0
0x3fe9eb10:  e5893034      str	r3, [r9, #52]
0x3fe9eb14:  e5832004      str	r2, [r3, #4]
0x3fe9eb18:  e589c450      str	ip, [r9, #1104]
0x3fe9eb1c:  0afffece      beq	0x3fe9e65c

----------------
IN: 
0x3fe9e65c:  e5942454      ldr	r2, [r4, #1108]
0x3fe9e660:  e152000c      cmp	r2, ip
0x3fe9e664:  e5932004      ldr	r2, [r3, #4]
0x3fe9e668:  3584c454      strcc	ip, [r4, #1108]
0x3fe9e66c:  e3c22007      bic	r2, r2, #7	; 0x7
0x3fe9e670:  e15b0002      cmp	fp, r2
0x3fe9e674:  8a00005b      bhi	0x3fe9e7e8

----------------
IN: 
0x3fe9e678:  e59f067c      ldr	r0, [pc, #1660]	; 0x3fe9ecfc
0x3fe9e67c:  e0422005      sub	r2, r2, r5
0x3fe9e680:  e08f0000      add	r0, pc, r0
0x3fe9e684:  e0540000      subs	r0, r4, r0
0x3fe9e688:  13a00001      movne	r0, #1	; 0x1
0x3fe9e68c:  e1850100      orr	r0, r5, r0, lsl #2
0x3fe9e690:  e083c005      add	ip, r3, r5
0x3fe9e694:  e3822001      orr	r2, r2, #1	; 0x1
0x3fe9e698:  e3800001      orr	r0, r0, #1	; 0x1
0x3fe9e69c:  e584c034      str	ip, [r4, #52]
0x3fe9e6a0:  e2831008      add	r1, r3, #8	; 0x8
0x3fe9e6a4:  e5830004      str	r0, [r3, #4]
0x3fe9e6a8:  e58c2004      str	r2, [ip, #4]
0x3fe9e6ac:  ea000013      b	0x3fe9e700

----------------
IN: 
0x3fe9e700:  e59f25fc      ldr	r2, [pc, #1532]	; 0x3fe9ed04
0x3fe9e704:  e59f35d8      ldr	r3, [pc, #1496]	; 0x3fe9ece4
0x3fe9e708:  e08f2002      add	r2, pc, r2
0x3fe9e70c:  e7923003      ldr	r3, [r2, r3]
0x3fe9e710:  e5932000      ldr	r2, [r3]
0x3fe9e714:  e59d301c      ldr	r3, [sp, #28]
0x3fe9e718:  e0332002      eors	r2, r3, r2
0x3fe9e71c:  e3a03000      mov	r3, #0	; 0x0
0x3fe9e720:  1a00014c      bne	0x3fe9ec58

----------------
IN: 
0x3fe9e724:  e1a00001      mov	r0, r1
0x3fe9e728:  e28dd024      add	sp, sp, #36	; 0x24
0x3fe9e72c:  e8bd8ff0      pop	{r4, r5, r6, r7, r8, r9, sl, fp, pc}

----------------
IN: 
0x3fe9fb70:  e2504000      subs	r4, r0, #0	; 0x0
0x3fe9fb74:  0afffcd3      beq	0x3fe9eec8

----------------
IN: 
0x3fe9fb78:  e59d1000      ldr	r1, [sp]
0x3fe9fb7c:  ebfff037      bl	0x3fe9bc60

----------------
IN: 
0x3fe9bc60:  e59f3018      ldr	r3, [pc, #24]	; 0x3fe9bc80
0x3fe9bc64:  e08f3003      add	r3, pc, r3
0x3fe9bc68:  e5933000      ldr	r3, [r3]
0x3fe9bc6c:  e3530000      cmp	r3, #0	; 0x0
0x3fe9bc70:  012fff1e      bxeq	lr

----------------
IN: 
0x3fe9fb80:  eafffcd0      b	0x3fe9eec8

----------------
IN: 
0x3fe9eec8:  e1a00004      mov	r0, r4
0x3fe9eecc:  e28dd064      add	sp, sp, #100	; 0x64
0x3fe9eed0:  e8bd8ff0      pop	{r4, r5, r6, r7, r8, r9, sl, fp, pc}

----------------
IN: 
0x3fe9fe78:  e2506000      subs	r6, r0, #0	; 0x0
0x3fe9fe7c:  0a00002c      beq	0x3fe9ff34

----------------
IN: 
0x3fe9fe80:  e3a01000      mov	r1, #0	; 0x0
0x3fe9fe84:  e1a02005      mov	r2, r5
0x3fe9fe88:  e5954000      ldr	r4, [r5]
0x3fe9fe8c:  e5923000      ldr	r3, [r2]
0x3fe9fe90:  e1530004      cmp	r3, r4
0x3fe9fe94:  1a000005      bne	0x3fe9feb0

----------------
IN: 
0x3fe9fe98:  e1a00004      mov	r0, r4
0x3fe9fe9c:  e3e03a0f      mvn	r3, #61440	; 0xf000
0x3fe9fea0:  e1a0e00f      mov	lr, pc
0x3fe9fea4:  e243f03f      sub	pc, r3, #63	; 0x3f

----------------
IN: 
0x3fe9fea8:  3afffff7      bcc	0x3fe9fe8c

----------------
IN: 
0x3fe9feac:  e1a03004      mov	r3, r4
0x3fe9feb0:  e1540003      cmp	r4, r3
0x3fe9feb4:  1afffff1      bne	0x3fe9fe80

----------------
IN: 
0x3fe9feb8:  e3540001      cmp	r4, #1	; 0x1
0x3fe9febc:  ca00002b      bgt	0x3fe9ff70

----------------
IN: 
0x3fe9fec0:  e3560000      cmp	r6, #0	; 0x0
0x3fe9fec4:  08bd8070      popeq	{r4, r5, r6, pc}

----------------
IN: 
0x3fe9fec8:  ebfe3808      bl	0x3fe2def0

----------------
IN: 
0x3fe9fecc:  e1a03000      mov	r3, r0
0x3fe9fed0:  e59fc0a8      ldr	ip, [pc, #168]	; 0x3fe9ff80
0x3fe9fed4:  e1a00006      mov	r0, r6
0x3fe9fed8:  e79fc00c      ldr	ip, [pc, ip]
0x3fe9fedc:  e3a02d06      mov	r2, #384	; 0x180
0x3fe9fee0:  e083300c      add	r3, r3, ip
0x3fe9fee4:  e5836004      str	r6, [r3, #4]
0x3fe9fee8:  e3a01000      mov	r1, #0	; 0x0
0x3fe9feec:  e8bd4070      pop	{r4, r5, r6, lr}
0x3fe9fef0:  ea0013ba      b	0x3fea4de0

----------------
IN: 
0x3fea07a8:  e59f31e8      ldr	r3, [pc, #488]	; 0x3fea0998
0x3fea07ac:  e08f3003      add	r3, pc, r3
0x3fea07b0:  e593303c      ldr	r3, [r3, #60]
0x3fea07b4:  e1530004      cmp	r3, r4
0x3fea07b8:  9affffb5      bls	0x3fea0694

----------------
IN: 
0x3fea0694:  ebfe3615      bl	0x3fe2def0

----------------
IN: 
0x3fea0698:  e5103580      ldr	r3, [r0, #-1408]
0x3fea069c:  e3530000      cmp	r3, #0	; 0x0
0x3fea06a0:  0a000059      beq	0x3fea080c

----------------
IN: 
0x3fea080c:  e59f0188      ldr	r0, [pc, #392]	; 0x3fea099c
0x3fea0810:  e1a01006      mov	r1, r6
0x3fea0814:  e08f0000      add	r0, pc, r0
0x3fea0818:  ebfff95c      bl	0x3fe9ed90

----------------
IN: 
0x3fe9ef00:  e1a03928      lsr	r3, r8, #18
0x3fe9ef04:  e3530002      cmp	r3, #2	; 0x2
0x3fe9ef08:  23a03002      movcs	r3, #2	; 0x2
0x3fe9ef0c:  e1a00628      lsr	r0, r8, #12
0x3fe9ef10:  e1a02328      lsr	r2, r8, #6
0x3fe9ef14:  e1a014a8      lsr	r1, r8, #9
0x3fe9ef18:  e1a0c7a8      lsr	ip, r8, #15
0x3fe9ef1c:  e280406e      add	r4, r0, #110	; 0x6e
0x3fe9ef20:  e58d2048      str	r2, [sp, #72]
0x3fe9ef24:  e3520026      cmp	r2, #38	; 0x26
0x3fe9ef28:  e28ce077      add	lr, ip, #119	; 0x77
0x3fe9ef2c:  e58d4038      str	r4, [sp, #56]
0x3fe9ef30:  e2822038      add	r2, r2, #56	; 0x38
0x3fe9ef34:  e281405b      add	r4, r1, #91	; 0x5b
0x3fe9ef38:  e283307c      add	r3, r3, #124	; 0x7c
0x3fe9ef3c:  e58d1050      str	r1, [sp, #80]
0x3fe9ef40:  e58d005c      str	r0, [sp, #92]
0x3fe9ef44:  e58dc04c      str	ip, [sp, #76]
0x3fe9ef48:  e58de058      str	lr, [sp, #88]
0x3fe9ef4c:  e58d402c      str	r4, [sp, #44]
0x3fe9ef50:  e58d2014      str	r2, [sp, #20]
0x3fe9ef54:  e58d3054      str	r3, [sp, #84]
0x3fe9ef58:  9a000137      bls	0x3fe9f43c

----------------
IN: 
0x3fe9ef5c:  e3510014      cmp	r1, #20	; 0x14
0x3fe9ef60:  9a0001cb      bls	0x3fe9f694

----------------
IN: 
0x3fe9f694:  e59d302c      ldr	r3, [sp, #44]
0x3fe9f698:  e58d303c      str	r3, [sp, #60]
0x3fe9f69c:  eaffff68      b	0x3fe9f444

----------------
IN: 
0x3fe9f444:  e59b3008      ldr	r3, [fp, #8]
0x3fe9f448:  e3530000      cmp	r3, #0	; 0x0
0x3fe9f44c:  0affff66      beq	0x3fe9f1ec

----------------
IN: 
0x3fe9f1ec:  ebfe3b3f      bl	0x3fe2def0

----------------
IN: 
0x3fe9f218:  e59f3b28      ldr	r3, [pc, #2856]	; 0x3fe9fd48
0x3fe9f21c:  e08f3003      add	r3, pc, r3
0x3fe9f220:  e593303c      ldr	r3, [r3, #60]
0x3fe9f224:  e1530002      cmp	r3, r2
0x3fe9f228:  81a03008      movhi	r3, r8
0x3fe9f22c:  93a03000      movls	r3, #0	; 0x0
0x3fe9f230:  e58d3028      str	r3, [sp, #40]
0x3fe9f234:  e3a03000      mov	r3, #0	; 0x0
0x3fe9f238:  e58d3008      str	r3, [sp, #8]
0x3fe9f23c:  e59f3b08      ldr	r3, [pc, #2824]	; 0x3fe9fd4c
0x3fe9f240:  e59f6b08      ldr	r6, [pc, #2824]	; 0x3fe9fd50
0x3fe9f244:  e08f3003      add	r3, pc, r3
0x3fe9f248:  e58d3010      str	r3, [sp, #16]
0x3fe9f24c:  e59f3b00      ldr	r3, [pc, #2816]	; 0x3fe9fd54
0x3fe9f250:  e08f6006      add	r6, pc, r6
0x3fe9f254:  e08f3003      add	r3, pc, r3
0x3fe9f258:  e58d3024      str	r3, [sp, #36]
0x3fe9f25c:  e28b7034      add	r7, fp, #52	; 0x34
0x3fe9f260:  e58d5044      str	r5, [sp, #68]
0x3fe9f264:  e59b9040      ldr	r9, [fp, #64]
0x3fe9f268:  e1590007      cmp	r9, r7
0x3fe9f26c:  0a0000da      beq	0x3fe9f5dc

----------------
IN: 
0x3fe9f5e4:  e59d303c      ldr	r3, [sp, #60]
0x3fe9f5e8:  e1a03083      lsl	r3, r3, #1
0x3fe9f5ec:  e283300d      add	r3, r3, #13	; 0xd
0x3fe9f5f0:  e79b2103      ldr	r2, [fp, r3, lsl #2]
0x3fe9f5f4:  e08b3103      add	r3, fp, r3, lsl #2
0x3fe9f5f8:  e2431008      sub	r1, r3, #8	; 0x8
0x3fe9f5fc:  e1520001      cmp	r2, r1
0x3fe9f600:  0a000002      beq	0x3fe9f610

----------------
IN: 
0x3fe9fb20:  e59f0298      ldr	r0, [pc, #664]	; 0x3fe9fdc0
0x3fe9fb24:  e0433008      sub	r3, r3, r8
0x3fe9fb28:  e08f0000      add	r0, pc, r0
0x3fe9fb2c:  e05b0000      subs	r0, fp, r0
0x3fe9fb30:  13a00001      movne	r0, #1	; 0x1
0x3fe9fb34:  e1880100      orr	r0, r8, r0, lsl #2
0x3fe9fb38:  e082c008      add	ip, r2, r8
0x3fe9fb3c:  e3833001      orr	r3, r3, #1	; 0x1
0x3fe9fb40:  e3800001      orr	r0, r0, #1	; 0x1
0x3fe9fb44:  e2824008      add	r4, r2, #8	; 0x8
0x3fe9fb48:  e58bc034      str	ip, [fp, #52]
0x3fe9fb4c:  e59d1000      ldr	r1, [sp]
0x3fe9fb50:  e5820004      str	r0, [r2, #4]
0x3fe9fb54:  e1a00004      mov	r0, r4
0x3fe9fb58:  e58c3004      str	r3, [ip, #4]
0x3fe9fb5c:  ebfff03f      bl	0x3fe9bc60

----------------
IN: 
0x3fe9fb60:  eafffcd8      b	0x3fe9eec8

----------------
IN: 
0x3fea081c:  e2505000      subs	r5, r0, #0	; 0x0
0x3fea0820:  0a000025      beq	0x3fea08bc

----------------
IN: 
0x3fea0824:  e5153004      ldr	r3, [r5, #-4]
0x3fea0828:  e3130002      tst	r3, #2	; 0x2
0x3fea082c:  1affffd7      bne	0x3fea0790

----------------
IN: 
0x3fea0830:  e3130004      tst	r3, #4	; 0x4
0x3fea0834:  0affffd5      beq	0x3fea0790

----------------
IN: 
0x3fea0790:  e1a00005      mov	r0, r5
0x3fea0794:  e8bd81f0      pop	{r4, r5, r6, r7, r8, pc}

----------------
IN: 
0x3fe73ea4:  e2501000      subs	r1, r0, #0	; 0x0
0x3fe73ea8:  0a000014      beq	0x3fe73f00

----------------
IN: 
0x3fe73eac:  e1a00004      mov	r0, r4
0x3fe73eb0:  e3a03001      mov	r3, #1	; 0x1
0x3fe73eb4:  e0812005      add	r2, r1, r5
0x3fe73eb8:  eb00428e      bl	0x3fe848f8

----------------
IN: 
0x3fe848f8:  e92d41f0      push	{r4, r5, r6, r7, r8, lr}
0x3fe848fc:  e1a04000      mov	r4, r0
0x3fe84900:  e590001c      ldr	r0, [r0, #28]
0x3fe84904:  e1a06001      mov	r6, r1
0x3fe84908:  e3500000      cmp	r0, #0	; 0x0
0x3fe8490c:  e1a05002      mov	r5, r2
0x3fe84910:  e1a07003      mov	r7, r3
0x3fe84914:  e594c000      ldr	ip, [r4]
0x3fe84918:  0a000001      beq	0x3fe84924

----------------
IN: 
0x3fe84924:  e3570000      cmp	r7, #0	; 0x0
0x3fe84928:  13ccc001      bicne	ip, ip, #1	; 0x1
0x3fe8492c:  038cc001      orreq	ip, ip, #1	; 0x1
0x3fe84930:  e584601c      str	r6, [r4, #28]
0x3fe84934:  e5845020      str	r5, [r4, #32]
0x3fe84938:  e584c000      str	ip, [r4]
0x3fe8493c:  e8bd81f0      pop	{r4, r5, r6, r7, r8, pc}

----------------
IN: 
0x3fe73ebc:  e3a00001      mov	r0, #1	; 0x1
0x3fe73ec0:  e59f20c8      ldr	r2, [pc, #200]	; 0x3fe73f90
0x3fe73ec4:  e59f30b4      ldr	r3, [pc, #180]	; 0x3fe73f80
0x3fe73ec8:  e08f2002      add	r2, pc, r2
0x3fe73ecc:  e7923003      ldr	r3, [r2, r3]
0x3fe73ed0:  e5932000      ldr	r2, [r3]
0x3fe73ed4:  e59d3074      ldr	r3, [sp, #116]
0x3fe73ed8:  e0332002      eors	r2, r3, r2
0x3fe73edc:  e3a03000      mov	r3, #0	; 0x0
0x3fe73ee0:  1a000024      bne	0x3fe73f78

----------------
IN: 
0x3fe73ee4:  e28dd078      add	sp, sp, #120	; 0x78
0x3fe73ee8:  e8bd8070      pop	{r4, r5, r6, pc}

----------------
IN: 
0x3fe849a8:  e3700001      cmn	r0, #1	; 0x1
0x3fe849ac:  18bd8070      popne	{r4, r5, r6, pc}

----------------
IN: 
0x3fe838c4:  e5953000      ldr	r3, [r5]
0x3fe838c8:  e59f20e4      ldr	r2, [pc, #228]	; 0x3fe839b4
0x3fe838cc:  e1130002      tst	r3, r2
0x3fe838d0:  1affff6a      bne	0x3fe83680

----------------
IN: 
0x3fe838d4:  eaffffaa      b	0x3fe83784

----------------
IN: 
0x3fe83784:  e59f3238      ldr	r3, [pc, #568]	; 0x3fe839c4
0x3fe83788:  e59f6238      ldr	r6, [pc, #568]	; 0x3fe839c8
0x3fe8378c:  e08f3003      add	r3, pc, r3
0x3fe83790:  e1a07003      mov	r7, r3
0x3fe83794:  e08f6006      add	r6, pc, r6
0x3fe83798:  e0466003      sub	r6, r6, r3
0x3fe8379c:  e1a00005      mov	r0, r5
0x3fe837a0:  eb00036a      bl	0x3fe84550

----------------
IN: 
0x3fe84550:  e5903014      ldr	r3, [r0, #20]
0x3fe84554:  e5902010      ldr	r2, [r0, #16]
0x3fe84558:  e92d4070      push	{r4, r5, r6, lr}
0x3fe8455c:  e1530002      cmp	r3, r2
0x3fe84560:  e1a04000      mov	r4, r0
0x3fe84564:  9a00000f      bls	0x3fe845a8

----------------
IN: 
0x3fe845a8:  e5942000      ldr	r2, [r4]
0x3fe845ac:  e3120c01      tst	r2, #256	; 0x100
0x3fe845b0:  1a00000b      bne	0x3fe845e4

----------------
IN: 
0x3fe845b4:  e5940008      ldr	r0, [r4, #8]
0x3fe845b8:  e594101c      ldr	r1, [r4, #28]
0x3fe845bc:  e1500003      cmp	r0, r3
0x3fe845c0:  e584100c      str	r1, [r4, #12]
0x3fe845c4:  35843008      strcc	r3, [r4, #8]
0x3fe845c8:  e3c22b02      bic	r2, r2, #2048	; 0x800
0x3fe845cc:  e3a00000      mov	r0, #0	; 0x0
0x3fe845d0:  e5843004      str	r3, [r4, #4]
0x3fe845d4:  e5843018      str	r3, [r4, #24]
0x3fe845d8:  e5843010      str	r3, [r4, #16]
0x3fe845dc:  e5842000      str	r2, [r4]
0x3fe845e0:  e8bd8070      pop	{r4, r5, r6, pc}

----------------
IN: 
0x3fe837a4:  e5958098      ldr	r8, [r5, #152]
0x3fe837a8:  e595101c      ldr	r1, [r5, #28]
0x3fe837ac:  e0487007      sub	r7, r8, r7
0x3fe837b0:  e1570006      cmp	r7, r6
0x3fe837b4:  e5851004      str	r1, [r5, #4]
0x3fe837b8:  e585100c      str	r1, [r5, #12]
0x3fe837bc:  e5851008      str	r1, [r5, #8]
0x3fe837c0:  e5851018      str	r1, [r5, #24]
0x3fe837c4:  e5851014      str	r1, [r5, #20]
0x3fe837c8:  e5851010      str	r1, [r5, #16]
0x3fe837cc:  2a000043      bcs	0x3fe838e0

----------------
IN: 
0x3fe837d0:  e5952020      ldr	r2, [r5, #32]
0x3fe837d4:  e1a00005      mov	r0, r5
0x3fe837d8:  e5983038      ldr	r3, [r8, #56]
0x3fe837dc:  e0422001      sub	r2, r2, r1
0x3fe837e0:  e12fff33      blx	r3

----------------
IN: 
0x3fe82bdc:  e590303c      ldr	r3, [r0, #60]
0x3fe82be0:  e5900038      ldr	r0, [r0, #56]
0x3fe82be4:  e3130002      tst	r3, #2	; 0x2
0x3fe82be8:  1a000000      bne	0x3fe82bf0

----------------
IN: 
0x3fe82bec:  ea01ce5f      b	0x3fef6570

----------------
IN: 
0x3fef6570:  e92d41f0      push	{r4, r5, r6, r7, r8, lr}
0x3fef6574:  e1a04000      mov	r4, r0
0x3fef6578:  ebfcde5c      bl	0x3fe2def0

----------------
IN: 
0x3fef657c:  e5103580      ldr	r3, [r0, #-1408]
0x3fef6580:  e1a05000      mov	r5, r0
0x3fef6584:  e3530000      cmp	r3, #0	; 0x0
0x3fef6588:  1a000007      bne	0x3fef65ac

----------------
IN: 
0x3fef658c:  e1a00004      mov	r0, r4
0x3fef6590:  e3a07003      mov	r7, #3	; 0x3
0x3fef6594:  ef000000      svc	0x00000000

----------------
IN: 
0x3fef6598:  e3700a01      cmn	r0, #4096	; 0x1000
0x3fef659c:  e1a04000      mov	r4, r0
0x3fef65a0:  8a000015      bhi	0x3fef65fc

----------------
IN: 
0x3fef65a4:  e1a00004      mov	r0, r4
0x3fef65a8:  e8bd81f0      pop	{r4, r5, r6, r7, r8, pc}

----------------
IN: 
0x3fe837e4:  e3500000      cmp	r0, #0	; 0x0
0x3fe837e8:  da00000f      ble	0x3fe8382c

----------------
IN: 
0x3fe837ec:  e5953050      ldr	r3, [r5, #80]
0x3fe837f0:  e5951054      ldr	r1, [r5, #84]
0x3fe837f4:  e5952008      ldr	r2, [r5, #8]
0x3fe837f8:  e3710001      cmn	r1, #1	; 0x1
0x3fe837fc:  03730001      cmneq	r3, #1	; 0x1
0x3fe83800:  e0822000      add	r2, r2, r0
0x3fe83804:  e5852008      str	r2, [r5, #8]
0x3fe83808:  0a000003      beq	0x3fe8381c

----------------
IN: 
0x3fe8381c:  e5953004      ldr	r3, [r5, #4]
0x3fe83820:  e5d33000      ldrb	r3, [r3]
0x3fe83824:  e1a00003      mov	r0, r3
0x3fe83828:  e8bd87f0      pop	{r4, r5, r6, r7, r8, r9, sl, pc}

----------------
IN: 
0x3fe84a4c:  e3700001      cmn	r0, #1	; 0x1
0x3fe84a50:  15943004      ldrne	r3, [r4, #4]
0x3fe84a54:  12832001      addne	r2, r3, #1	; 0x1
0x3fe84a58:  15842004      strne	r2, [r4, #4]
0x3fe84a5c:  15d30000      ldrbne	r0, [r3]
0x3fe84a60:  e8bd8070      pop	{r4, r5, r6, pc}

----------------
IN: 
0x3fe5f2cc:  e3700001      cmn	r0, #1	; 0x1
0x3fe5f2d0:  e1a08000      mov	r8, r0
0x3fe5f2d4:  1affff83      bne	0x3fe5f0e8

----------------
IN: 
0x3fe5f0e8:  e59a2034      ldr	r2, [sl, #52]
0x3fe5f0ec:  e1a03088      lsl	r3, r8, #1
0x3fe5f0f0:  e19230b3      ldrh	r3, [r2, r3]
0x3fe5f0f4:  e2855001      add	r5, r5, #1	; 0x1
0x3fe5f0f8:  e3130a02      tst	r3, #8192	; 0x2000
0x3fe5f0fc:  0a00000d      beq	0x3fe5f138

----------------
IN: 
0x3fe5f138:  ebff3b6c      bl	0x3fe2def0

----------------
IN: 
0x3fe5f13c:  e59f34ec      ldr	r3, [pc, #1260]	; 0x3fe5f630
0x3fe5f140:  e50b7580      str	r7, [fp, #-1408]
0x3fe5f144:  e79f3003      ldr	r3, [pc, r3]
0x3fe5f148:  e3780001      cmn	r8, #1	; 0x1
0x3fe5f14c:  e7804003      str	r4, [r0, r3]
0x3fe5f150:  0a0001e6      beq	0x3fe5f8f0

----------------
IN: 
0x3fe5f154:  e1a00009      mov	r0, r9
0x3fe5f158:  e20810ff      and	r1, r8, #255	; 0xff
0x3fe5f15c:  eb0097c8      bl	0x3fe85084

----------------
IN: 
0x3fe85084:  e92d4030      push	{r4, r5, lr}
0x3fe85088:  e5903004      ldr	r3, [r0, #4]
0x3fe8508c:  e590200c      ldr	r2, [r0, #12]
0x3fe85090:  e1a04000      mov	r4, r0
0x3fe85094:  e1530002      cmp	r3, r2
0x3fe85098:  e24dd00c      sub	sp, sp, #12	; 0xc
0x3fe8509c:  9a000005      bls	0x3fe850b8

----------------
IN: 
0x3fe850a0:  e5530001      ldrb	r0, [r3, #-1]
0x3fe850a4:  e20120ff      and	r2, r1, #255	; 0xff
0x3fe850a8:  e1500002      cmp	r0, r2
0x3fe850ac:  02433001      subeq	r3, r3, #1	; 0x1
0x3fe850b0:  05843004      streq	r3, [r4, #4]
0x3fe850b4:  0a00000d      beq	0x3fe850f0

----------------
IN: 
0x3fe850f0:  e5943000      ldr	r3, [r4]
0x3fe850f4:  e3c33010      bic	r3, r3, #16	; 0x10
0x3fe850f8:  e5843000      str	r3, [r4]
0x3fe850fc:  e28dd00c      add	sp, sp, #12	; 0xc
0x3fe85100:  e8bd8030      pop	{r4, r5, pc}

----------------
IN: 
0x3fe5f160:  e2463025      sub	r3, r6, #37	; 0x25
0x3fe5f164:  e2455001      sub	r5, r5, #1	; 0x1
0x3fe5f168:  e3530053      cmp	r3, #83	; 0x53
0x3fe5f16c:  908ff103      addls	pc, pc, r3, lsl #2

----------------
IN: 
0x3fe5f270:  ea0004ac      b	0x3fe60528

----------------
IN: 
0x3fe60528:  e51b35a4      ldr	r3, [fp, #-1444]
0x3fe6052c:  e1a04005      mov	r4, r5
0x3fe60530:  e3833040      orr	r3, r3, #64	; 0x40
0x3fe60534:  e50b35a4      str	r3, [fp, #-1444]
0x3fe60538:  e3a0300a      mov	r3, #10	; 0xa
0x3fe6053c:  e50b3584      str	r3, [fp, #-1412]
0x3fe60540:  eafffe33      b	0x3fe5fe14

----------------
IN: 
0x3fe5fe14:  e3780001      cmn	r8, #1	; 0x1
0x3fe5fe18:  0affff1e      beq	0x3fe5fa98

----------------
IN: 
0x3fe5fe1c:  e5993004      ldr	r3, [r9, #4]
0x3fe5fe20:  e5992008      ldr	r2, [r9, #8]
0x3fe5fe24:  e1530002      cmp	r3, r2
0x3fe5fe28:  2a0002b4      bcs	0x3fe60900

----------------
IN: 
0x3fe5fe2c:  e2832001      add	r2, r3, #1	; 0x1
0x3fe5fe30:  e5892004      str	r2, [r9, #4]
0x3fe5fe34:  e5d38000      ldrb	r8, [r3]
0x3fe5fe38:  e248302b      sub	r3, r8, #43	; 0x2b
0x3fe5fe3c:  e3d33002      bics	r3, r3, #2	; 0x2
0x3fe5fe40:  e2855001      add	r5, r5, #1	; 0x1
0x3fe5fe44:  1a000013      bne	0x3fe5fe98

----------------
IN: 
0x3fe5fe98:  e51b258c      ldr	r2, [fp, #-1420]
0x3fe5fe9c:  e2524000      subs	r4, r2, #0	; 0x0
0x3fe5fea0:  13a04001      movne	r4, #1	; 0x1
0x3fe5fea4:  e3580030      cmp	r8, #48	; 0x30
0x3fe5fea8:  13a03000      movne	r3, #0	; 0x0
0x3fe5feac:  02043001      andeq	r3, r4, #1	; 0x1
0x3fe5feb0:  e3530000      cmp	r3, #0	; 0x0
0x3fe5feb4:  0a000282      beq	0x3fe608c4

----------------
IN: 
0x3fe608c4:  e51b3584      ldr	r3, [fp, #-1412]
0x3fe608c8:  e3530000      cmp	r3, #0	; 0x0
0x3fe608cc:  0afffda0      beq	0x3fe5ff54

----------------
IN: 
0x3fe608d0:  eafffd9c      b	0x3fe5ff48

----------------
IN: 
0x3fe5ff48:  e51b3584      ldr	r3, [fp, #-1412]
0x3fe5ff4c:  e353000a      cmp	r3, #10	; 0xa
0x3fe5ff50:  1a000004      bne	0x3fe5ff68

----------------
IN: 
0x3fe5ff54:  e51b35a4      ldr	r3, [fp, #-1444]
0x3fe5ff58:  e3130b01      tst	r3, #1024	; 0x400
0x3fe5ff5c:  03a0300a      moveq	r3, #10	; 0xa
0x3fe5ff60:  050b3584      streq	r3, [fp, #-1412]
0x3fe5ff64:  1a00041c      bne	0x3fe60fdc

----------------
IN: 
0x3fe5ff68:  e3540000      cmp	r4, #0	; 0x0
0x3fe5ff6c:  0a000418      beq	0x3fe60fd4

----------------
IN: 
0x3fe5ff70:  e51b35a4      ldr	r3, [fp, #-1444]
0x3fe5ff74:  e51ba58c      ldr	sl, [fp, #-1420]
0x3fe5ff78:  e2033080      and	r3, r3, #128	; 0x80
0x3fe5ff7c:  e50b3598      str	r3, [fp, #-1432]
0x3fe5ff80:  ea00001c      b	0x3fe5fff8

----------------
IN: 
0x3fe5fff8:  e51b3584      ldr	r3, [fp, #-1412]
0x3fe5fffc:  e3530010      cmp	r3, #16	; 0x10

----------------
IN: 
0x3fe60000:  1affffdf      bne	0x3fe5ff84

----------------
IN: 
0x3fe5ff84:  e2483030      sub	r3, r8, #48	; 0x30
0x3fe5ff88:  e3530009      cmp	r3, #9	; 0x9
0x3fe5ff8c:  8a000196      bhi	0x3fe605ec

----------------
IN: 
0x3fe5ff90:  e51b2584      ldr	r2, [fp, #-1412]
0x3fe5ff94:  e248302f      sub	r3, r8, #47	; 0x2f
0x3fe5ff98:  e1530002      cmp	r3, r2
0x3fe5ff9c:  ca000192      bgt	0x3fe605ec

----------------
IN: 
0x3fe5ffa0:  e51b344c      ldr	r3, [fp, #-1100]
0x3fe5ffa4:  e51bc448      ldr	ip, [fp, #-1096]
0x3fe5ffa8:  e20810ff      and	r1, r8, #255	; 0xff
0x3fe5ffac:  e15c0003      cmp	ip, r3
0x3fe5ffb0:  0a000231      beq	0x3fe6087c

----------------
IN: 
0x3fe5ffb4:  e2830001      add	r0, r3, #1	; 0x1
0x3fe5ffb8:  e50b044c      str	r0, [fp, #-1100]
0x3fe5ffbc:  e5c31000      strb	r1, [r3]
0x3fe5ffc0:  e35a0000      cmp	sl, #0	; 0x0
0x3fe5ffc4:  c24aa001      subgt	sl, sl, #1	; 0x1
0x3fe5ffc8:  e3780001      cmn	r8, #1	; 0x1
0x3fe5ffcc:  0a00017d      beq	0x3fe605c8

----------------
IN: 
0x3fe5ffd0:  e5993004      ldr	r3, [r9, #4]
0x3fe5ffd4:  e5991008      ldr	r1, [r9, #8]
0x3fe5ffd8:  e1530001      cmp	r3, r1
0x3fe5ffdc:  2a0001f9      bcs	0x3fe607c8

----------------
IN: 
0x3fe5ffe0:  e2831001      add	r1, r3, #1	; 0x1
0x3fe5ffe4:  e5891004      str	r1, [r9, #4]
0x3fe5ffe8:  e5d38000      ldrb	r8, [r3]
0x3fe5ffec:  e35a0000      cmp	sl, #0	; 0x0
0x3fe5fff0:  e2855001      add	r5, r5, #1	; 0x1
0x3fe5fff4:  0a000008      beq	0x3fe6001c

----------------
IN: 
0x3fe605ec:  e51b3584      ldr	r3, [fp, #-1412]
0x3fe605f0:  e353000a      cmp	r3, #10	; 0xa
0x3fe605f4:  1a000273      bne	0x3fe60fc8

----------------
IN: 
0x3fe605f8:  e51b3598      ldr	r3, [fp, #-1432]
0x3fe605fc:  e3530000      cmp	r3, #0	; 0x0
0x3fe60600:  0afffe85      beq	0x3fe6001c

----------------
IN: 
0x3fe6001c:  e51b344c      ldr	r3, [fp, #-1100]
0x3fe60020:  e50ba58c      str	sl, [fp, #-1420]
0x3fe60024:  e3530000      cmp	r3, #0	; 0x0
0x3fe60028:  0a00063d      beq	0x3fe61924

----------------
IN: 
0x3fe6002c:  e51b2444      ldr	r2, [fp, #-1092]
0x3fe60030:  e1520003      cmp	r2, r3
0x3fe60034:  0a00023e      beq	0x3fe60934

----------------
IN: 
0x3fe60038:  e0431002      sub	r1, r3, r2
0x3fe6003c:  e3510001      cmp	r1, #1	; 0x1
0x3fe60040:  0a00035b      beq	0x3fe60db4

----------------
IN: 
0x3fe60db4:  e5d21000      ldrb	r1, [r2]
0x3fe60db8:  e241102b      sub	r1, r1, #43	; 0x2b
0x3fe60dbc:  e31100fd      tst	r1, #253	; 0xfd
0x3fe60dc0:  1afffc9f      bne	0x3fe60044

----------------
IN: 
0x3fe60044:  e3780001      cmn	r8, #1	; 0x1
0x3fe60048:  0a0002ae      beq	0x3fe60b08

----------------
IN: 
0x3fe6004c:  e1a00009      mov	r0, r9
0x3fe60050:  e20810ff      and	r1, r8, #255	; 0xff
0x3fe60054:  e2455001      sub	r5, r5, #1	; 0x1
0x3fe60058:  eb009409      bl	0x3fe85084

----------------
IN: 
0x3fe6005c:  e51b344c      ldr	r3, [fp, #-1100]
0x3fe60060:  e51b1448      ldr	r1, [fp, #-1096]
0x3fe60064:  e1530001      cmp	r3, r1
0x3fe60068:  0a000771      beq	0x3fe61e34

----------------
IN: 
0x3fe6006c:  e3a02000      mov	r2, #0	; 0x0
0x3fe60070:  e2831001      add	r1, r3, #1	; 0x1
0x3fe60074:  e50b144c      str	r1, [fp, #-1100]
0x3fe60078:  e5c32000      strb	r2, [r3]
0x3fe6007c:  e51b344c      ldr	r3, [fp, #-1100]
0x3fe60080:  e3530000      cmp	r3, #0	; 0x0
0x3fe60084:  0a0006c0      beq	0x3fe61b8c

----------------
IN: 
0x3fe60088:  e51b25a4      ldr	r2, [fp, #-1444]
0x3fe6008c:  e51b15dc      ldr	r1, [fp, #-1500]
0x3fe60090:  e2126002      ands	r6, r2, #2	; 0x2
0x3fe60094:  e2023080      and	r3, r2, #128	; 0x80
0x3fe60098:  e2024040      and	r4, r2, #64	; 0x40
0x3fe6009c:  e51b0444      ldr	r0, [fp, #-1092]
0x3fe600a0:  e51b2584      ldr	r2, [fp, #-1412]
0x3fe600a4:  e241100c      sub	r1, r1, #12	; 0xc
0x3fe600a8:  0a00021c      beq	0x3fe60920

----------------
IN: 
0x3fe60920:  e3540000      cmp	r4, #0	; 0x0
0x3fe60924:  0a000187      beq	0x3fe60f48

----------------
IN: 
0x3fe60928:  ebffa482      bl	0x3fe49b38

----------------
IN: 
0x3fe49b38:  e92d4030      push	{r4, r5, lr}
0x3fe49b3c:  e1a05000      mov	r5, r0
0x3fe49b40:  ebff90ea      bl	0x3fe2def0

----------------
IN: 
0x3fe49b44:  e1a0c000      mov	ip, r0
0x3fe49b48:  e59f401c      ldr	r4, [pc, #28]	; 0x3fe49b6c
0x3fe49b4c:  e24dd00c      sub	sp, sp, #12	; 0xc
0x3fe49b50:  e79f4004      ldr	r4, [pc, r4]
0x3fe49b54:  e1a00005      mov	r0, r5
0x3fe49b58:  e79cc004      ldr	ip, [ip, r4]
0x3fe49b5c:  e58dc000      str	ip, [sp]
0x3fe49b60:  eb000068      bl	0x3fe49d08

----------------
IN: 
0x3fe49d08:  e92d4ff0      push	{r4, r5, r6, r7, r8, r9, sl, fp, lr}
0x3fe49d0c:  e24dd024      sub	sp, sp, #36	; 0x24
0x3fe49d10:  e59dc048      ldr	ip, [sp, #72]
0x3fe49d14:  e2535000      subs	r5, r3, #0	; 0x0
0x3fe49d18:  e59ce004      ldr	lr, [ip, #4]
0x3fe49d1c:  e58d0008      str	r0, [sp, #8]
0x3fe49d20:  e58d1010      str	r1, [sp, #16]
0x3fe49d24:  1a0000b7      bne	0x3fe4a008

----------------
IN: 
0x3fe49d28:  e58d500c      str	r5, [sp, #12]
0x3fe49d2c:  e3520024      cmp	r2, #36	; 0x24
0x3fe49d30:  93a03000      movls	r3, #0	; 0x0
0x3fe49d34:  83a03001      movhi	r3, #1	; 0x1
0x3fe49d38:  e3520001      cmp	r2, #1	; 0x1
0x3fe49d3c:  03833001      orreq	r3, r3, #1	; 0x1
0x3fe49d40:  e3530000      cmp	r3, #0	; 0x0
0x3fe49d44:  0a000008      beq	0x3fe49d6c

----------------
IN: 
0x3fe49d6c:  e59d3008      ldr	r3, [sp, #8]
0x3fe49d70:  e59c0034      ldr	r0, [ip, #52]
0x3fe49d74:  e5d33000      ldrb	r3, [r3]
0x3fe49d78:  e59d7008      ldr	r7, [sp, #8]
0x3fe49d7c:  e1a01083      lsl	r1, r3, #1
0x3fe49d80:  e19010b1      ldrh	r1, [r0, r1]
0x3fe49d84:  e3110a02      tst	r1, #8192	; 0x2000
0x3fe49d88:  0a000004      beq	0x3fe49da0

----------------
IN: 
0x3fe49da0:  e3530000      cmp	r3, #0	; 0x0
0x3fe49da4:  0a0000cd      beq	0x3fe4a0e0

----------------
IN: 
0x3fe49da8:  e353002d      cmp	r3, #45	; 0x2d
0x3fe49dac:  03a03001      moveq	r3, #1	; 0x1
0x3fe49db0:  02877001      addeq	r7, r7, #1	; 0x1
0x3fe49db4:  058d3018      streq	r3, [sp, #24]
0x3fe49db8:  0a000003      beq	0x3fe49dcc

----------------
IN: 
0x3fe49dbc:  e353002b      cmp	r3, #43	; 0x2b
0x3fe49dc0:  e3a03000      mov	r3, #0	; 0x0
0x3fe49dc4:  02877001      addeq	r7, r7, #1	; 0x1
0x3fe49dc8:  e58d3018      str	r3, [sp, #24]
0x3fe49dcc:  e5d74000      ldrb	r4, [r7]
0x3fe49dd0:  e3540030      cmp	r4, #48	; 0x30
0x3fe49dd4:  0a000077      beq	0x3fe49fb8

----------------
IN: 
0x3fe49dd8:  e3520000      cmp	r2, #0	; 0x0
0x3fe49ddc:  1a000039      bne	0x3fe49ec8

----------------
IN: 
0x3fe49ec8:  e352000a      cmp	r2, #10	; 0xa
0x3fe49ecc:  0affffc3      beq	0x3fe49de0

----------------
IN: 
0x3fe49de0:  e3550000      cmp	r5, #0	; 0x0
0x3fe49de4:  1a0000c2      bne	0x3fe4a0f4

----------------
IN: 
0x3fe49de8:  e3a03005      mov	r3, #5	; 0x5
0x3fe49dec:  e3a0200a      mov	r2, #10	; 0xa
0x3fe49df0:  e1a06005      mov	r6, r5
0x3fe49df4:  e59fa440      ldr	sl, [pc, #1088]	; 0x3fe4a23c
0x3fe49df8:  e58d3004      str	r3, [sp, #4]
0x3fe49dfc:  e3540000      cmp	r4, #0	; 0x0
0x3fe49e00:  11550007      cmpne	r5, r7
0x3fe49e04:  0a000096      beq	0x3fe4a064

----------------
IN: 
0x3fe49e08:  e59f3430      ldr	r3, [pc, #1072]	; 0x3fe4a240
0x3fe49e0c:  e08f3003      add	r3, pc, r3
0x3fe49e10:  e593303c      ldr	r3, [r3, #60]
0x3fe49e14:  e58d3000      str	r3, [sp]
0x3fe49e18:  e3a09000      mov	r9, #0	; 0x0
0x3fe49e1c:  e59f3420      ldr	r3, [pc, #1056]	; 0x3fe4a244
0x3fe49e20:  e1a01007      mov	r1, r7
0x3fe49e24:  e08f3003      add	r3, pc, r3
0x3fe49e28:  e5938034      ldr	r8, [r3, #52]
0x3fe49e2c:  e2463001      sub	r3, r6, #1	; 0x1
0x3fe49e30:  e1a0b009      mov	fp, r9
0x3fe49e34:  e58d301c      str	r3, [sp, #28]
0x3fe49e38:  e58d7014      str	r7, [sp, #20]
0x3fe49e3c:  ea00000d      b	0x3fe49e78

----------------
IN: 
0x3fe49e78:  e2443030      sub	r3, r4, #48	; 0x30
0x3fe49e7c:  e20330ff      and	r3, r3, #255	; 0xff
0x3fe49e80:  e3530009      cmp	r3, #9	; 0x9
0x3fe49e84:  9a000009      bls	0x3fe49eb0

----------------
IN: 
0x3fe49eb0:  e1530002      cmp	r3, r2
0x3fe49eb4:  aa000020      bge	0x3fe49f3c

----------------
IN: 
0x3fe49eb8:  e159000a      cmp	r9, sl
0x3fe49ebc:  9affffdf      bls	0x3fe49e40

----------------
IN: 
0x3fe49e40:  03a00001      moveq	r0, #1	; 0x1
0x3fe49e44:  13a00000      movne	r0, #0	; 0x0
0x3fe49e48:  e59dc004      ldr	ip, [sp, #4]
0x3fe49e4c:  e153000c      cmp	r3, ip
0x3fe49e50:  93a00000      movls	r0, #0	; 0x0
0x3fe49e54:  82000001      andhi	r0, r0, #1	; 0x1
0x3fe49e58:  e3500000      cmp	r0, #0	; 0x0
0x3fe49e5c:  1a000017      bne	0x3fe49ec0

----------------
IN: 
0x3fe49e60:  e0293992      mla	r9, r2, r9, r3
0x3fe49e64:  e5d14001      ldrb	r4, [r1, #1]
0x3fe49e68:  e2811001      add	r1, r1, #1	; 0x1
0x3fe49e6c:  e1510005      cmp	r1, r5
0x3fe49e70:  13540000      cmpne	r4, #0	; 0x0
0x3fe49e74:  0a000030      beq	0x3fe49f3c

----------------
IN: 
0x3fe49f3c:  e59d7014      ldr	r7, [sp, #20]
0x3fe49f40:  e1570001      cmp	r7, r1
0x3fe49f44:  0a000047      beq	0x3fe4a068

----------------
IN: 
0x3fe49f48:  e59d3010      ldr	r3, [sp, #16]
0x3fe49f4c:  e3530000      cmp	r3, #0	; 0x0
0x3fe49f50:  15831000      strne	r1, [r3]
0x3fe49f54:  e35b0000      cmp	fp, #0	; 0x0
0x3fe49f58:  0a000009      beq	0x3fe49f84

----------------
IN: 
0x3fe49f84:  e59d3018      ldr	r3, [sp, #24]
0x3fe49f88:  e3530000      cmp	r3, #0	; 0x0
0x3fe49f8c:  0a00002b      beq	0x3fe4a040

----------------
IN: 
0x3fe4a040:  e3590000      cmp	r9, #0	; 0x0
0x3fe4a044:  aaffff45      bge	0x3fe49d60

----------------
IN: 
0x3fe49d60:  e1a00009      mov	r0, r9
0x3fe49d64:  e28dd024      add	sp, sp, #36	; 0x24
0x3fe49d68:  e8bd8ff0      pop	{r4, r5, r6, r7, r8, r9, sl, fp, pc}

----------------
IN: 
0x3fe49b64:  e28dd00c      add	sp, sp, #12	; 0xc
0x3fe49b68:  e8bd8030      pop	{r4, r5, pc}

----------------
IN: 
0x3fe6092c:  e1a03000      mov	r3, r0
0x3fe60930:  eafffde2      b	0x3fe600c0

----------------
IN: 
0x3fe600c0:  e51b1570      ldr	r1, [fp, #-1392]
0x3fe600c4:  e51b2444      ldr	r2, [fp, #-1092]
0x3fe600c8:  e1510002      cmp	r1, r2
0x3fe600cc:  0afffac7      beq	0x3fe5ebf0

----------------
IN: 
0x3fe600d0:  e51b25a4      ldr	r2, [fp, #-1444]
0x3fe600d4:  e212a008      ands	sl, r2, #8	; 0x8
0x3fe600d8:  1afff9fa      bne	0x3fe5e8c8

----------------
IN: 
0x3fe600dc:  e3560000      cmp	r6, #0	; 0x0
0x3fe600e0:  0a0003a9      beq	0x3fe60f8c

----------------
IN: 
0x3fe60f8c:  e51b25a4      ldr	r2, [fp, #-1444]
0x3fe60f90:  e3120004      tst	r2, #4	; 0x4
0x3fe60f94:  0a0002bf      beq	0x3fe61a98

----------------
IN: 
0x3fe61a98:  e51b25a4      ldr	r2, [fp, #-1444]
0x3fe61a9c:  e3120c02      tst	r2, #512	; 0x200
0x3fe61aa0:  e51b25b4      ldr	r2, [fp, #-1460]
0x3fe61aa4:  1a000285      bne	0x3fe624c0

----------------
IN: 
0x3fe61aa8:  e3520000      cmp	r2, #0	; 0x0
0x3fe61aac:  1a0004be      bne	0x3fe62dac

----------------
IN: 
0x3fe61ab0:  e51b2578      ldr	r2, [fp, #-1400]
0x3fe61ab4:  e2821004      add	r1, r2, #4	; 0x4
0x3fe61ab8:  e50b1578      str	r1, [fp, #-1400]
0x3fe61abc:  e5922000      ldr	r2, [r2]
0x3fe61ac0:  e5823000      str	r3, [r2]
0x3fe61ac4:  eafff990      b	0x3fe6010c

----------------
IN: 
0x3fe6010c:  e51b3590      ldr	r3, [fp, #-1424]
0x3fe60110:  e2833001      add	r3, r3, #1	; 0x1
0x3fe60114:  e50b3590      str	r3, [fp, #-1424]
0x3fe60118:  e51b3574      ldr	r3, [fp, #-1396]
0x3fe6011c:  e1a04003      mov	r4, r3
0x3fe60120:  eafff9eb      b	0x3fe5e8d4

----------------
IN: 
0x3fe5e8d4:  e5d42000      ldrb	r2, [r4]
0x3fe5e8d8:  e3520000      cmp	r2, #0	; 0x0
0x3fe5e8dc:  1affffdc      bne	0x3fe5e854

----------------
IN: 
0x3fe5e8e0:  e35a0000      cmp	sl, #0	; 0x0
0x3fe5e8e4:  e1a06008      mov	r6, r8
0x3fe5e8e8:  0a0000c0      beq	0x3fe5ebf0

----------------
IN: 
0x3fe5ebf0:  e5993000      ldr	r3, [r9]
0x3fe5ebf4:  e3130902      tst	r3, #32768	; 0x8000
0x3fe5ebf8:  1a000015      bne	0x3fe5ec54

----------------
IN: 
0x3fe5ebfc:  e5992048      ldr	r2, [r9, #72]
0x3fe5ec00:  e5923004      ldr	r3, [r2, #4]
0x3fe5ec04:  e2433001      sub	r3, r3, #1	; 0x1
0x3fe5ec08:  e3530000      cmp	r3, #0	; 0x0
0x3fe5ec0c:  e5823004      str	r3, [r2, #4]
0x3fe5ec10:  1a00000f      bne	0x3fe5ec54

----------------
IN: 
0x3fe5ec14:  e5823008      str	r3, [r2, #8]
0x3fe5ec18:  e3a01000      mov	r1, #0	; 0x0
0x3fe5ec1c:  e5924000      ldr	r4, [r2]
0x3fe5ec20:  e5923000      ldr	r3, [r2]
0x3fe5ec24:  e1530004      cmp	r3, r4
0x3fe5ec28:  1a000005      bne	0x3fe5ec44

----------------
IN: 
0x3fe5ec2c:  e1a00004      mov	r0, r4
0x3fe5ec30:  e3e03a0f      mvn	r3, #61440	; 0xf000
0x3fe5ec34:  e1a0e00f      mov	lr, pc
0x3fe5ec38:  e243f03f      sub	pc, r3, #63	; 0x3f

----------------
IN: 
0x3fe5ec3c:  3afffff7      bcc	0x3fe5ec20

----------------
IN: 
0x3fe5ec40:  e1a03004      mov	r3, r4
0x3fe5ec44:  e1540003      cmp	r4, r3
0x3fe5ec48:  1afffff2      bne	0x3fe5ec18

----------------
IN: 
0x3fe5ec4c:  e3540001      cmp	r4, #1	; 0x1
0x3fe5ec50:  ca0008c4      bgt	0x3fe60f68

----------------
IN: 
0x3fe5ec54:  e51b05c4      ldr	r0, [fp, #-1476]
0x3fe5ec58:  eb00a40d      bl	0x3fe87c94

----------------
IN: 
0x3fe87c94:  e1a03000      mov	r3, r0
0x3fe87c98:  e52de004      push	{lr}		; (str lr, [sp, #-4]!)
0x3fe87c9c:  ebfe9893      bl	0x3fe2def0

----------------
IN: 
0x3fe87ca0:  e5932008      ldr	r2, [r3, #8]
0x3fe87ca4:  e593300c      ldr	r3, [r3, #12]
0x3fe87ca8:  e3520001      cmp	r2, #1	; 0x1
0x3fe87cac:  e5003504      str	r3, [r0, #-1284]
0x3fe87cb0:  e540204a      strb	r2, [r0, #-74]
0x3fe87cb4:  149df004      popne	{pc}		; (ldrne pc, [sp], #4)

----------------
IN: 
0x3fe5ec5c:  e51b35a0      ldr	r3, [fp, #-1440]
0x3fe5ec60:  e51b0444      ldr	r0, [fp, #-1092]
0x3fe5ec64:  e2833008      add	r3, r3, #8	; 0x8
0x3fe5ec68:  e1500003      cmp	r0, r3
0x3fe5ec6c:  0a000000      beq	0x3fe5ec74

----------------
IN: 
0x3fe5ec74:  e51b3590      ldr	r3, [fp, #-1424]
0x3fe5ec78:  e3730001      cmn	r3, #1	; 0x1
0x3fe5ec7c:  0a0000ff      beq	0x3fe5f080

----------------
IN: 
0x3fe5ec80:  e51b359c      ldr	r3, [fp, #-1436]
0x3fe5ec84:  e3530000      cmp	r3, #0	; 0x0
0x3fe5ec88:  1a00030d      bne	0x3fe5f8c4

----------------
IN: 
0x3fe5ec8c:  e59f2988      ldr	r2, [pc, #2440]	; 0x3fe5f61c
0x3fe5ec90:  e59f396c      ldr	r3, [pc, #2412]	; 0x3fe5f604
0x3fe5ec94:  e08f2002      add	r2, pc, r2
0x3fe5ec98:  e7923003      ldr	r3, [r2, r3]
0x3fe5ec9c:  e5932000      ldr	r2, [r3]
0x3fe5eca0:  e51b3028      ldr	r3, [fp, #-40]
0x3fe5eca4:  e0332002      eors	r2, r3, r2
0x3fe5eca8:  e3a03000      mov	r3, #0	; 0x0
0x3fe5ecac:  1a001272      bne	0x3fe6367c

----------------
IN: 
0x3fe5ecb0:  e51b0590      ldr	r0, [fp, #-1424]
0x3fe5ecb4:  e24bd020      sub	sp, fp, #32	; 0x20
0x3fe5ecb8:  e8bd8ff0      pop	{r4, r5, r6, r7, r8, r9, sl, fp, pc}

----------------
IN: 
0x3fe5dc5c:  e59f2040      ldr	r2, [pc, #64]	; 0x3fe5dca4
0x3fe5dc60:  e59f3030      ldr	r3, [pc, #48]	; 0x3fe5dc98
0x3fe5dc64:  e08f2002      add	r2, pc, r2
0x3fe5dc68:  e7923003      ldr	r3, [r2, r3]
0x3fe5dc6c:  e5932000      ldr	r2, [r3]
0x3fe5dc70:  e59d3004      ldr	r3, [sp, #4]
0x3fe5dc74:  e0332002      eors	r2, r3, r2
0x3fe5dc78:  e3a03000      mov	r3, #0	; 0x0
0x3fe5dc7c:  1a000003      bne	0x3fe5dc90

----------------
IN: 
0x3fe5dc80:  e28dd00c      add	sp, sp, #12	; 0xc
0x3fe5dc84:  e49de004      pop	{lr}		; (ldr lr, [sp], #4)
0x3fe5dc88:  e28dd010      add	sp, sp, #16	; 0x10
0x3fe5dc8c:  e12fff1e      bx	lr

----------------
IN: main
0x00010608:  e24b3044      sub	r3, fp, #68	; 0x44

----------------
IN: main
0x0001060c:  e1a01003      mov	r1, r3

----------------
IN: main
0x00010610:  e59f0248      ldr	r0, [pc, #584]	; 0x10860

----------------
IN: main
0x00010614:  ebffffaa      bl	0x104c4

----------------
IN: 
0x3fe5e770:  e3730001      cmn	r3, #1	; 0x1
0x3fe5e774:  1a000246      bne	0x3fe5f094

----------------
IN: 
0x3fe5f0dc:  e2832001      add	r2, r3, #1	; 0x1
0x3fe5f0e0:  e5892004      str	r2, [r9, #4]
0x3fe5f0e4:  e5d38000      ldrb	r8, [r3]
0x3fe5f0e8:  e59a2034      ldr	r2, [sl, #52]
0x3fe5f0ec:  e1a03088      lsl	r3, r8, #1
0x3fe5f0f0:  e19230b3      ldrh	r3, [r2, r3]
0x3fe5f0f4:  e2855001      add	r5, r5, #1	; 0x1
0x3fe5f0f8:  e3130a02      tst	r3, #8192	; 0x2000
0x3fe5f0fc:  0a00000d      beq	0x3fe5f138

----------------
IN: main
0x00010618:  e51b3044      ldr	r3, [fp, #-68]

----------------
IN: main
0x0001061c:  e51b2040      ldr	r2, [fp, #-64]

----------------
IN: main
0x00010620:  e0030392      mul	r3, r2, r3

----------------
IN: main
0x00010624:  e1a03103      lsl	r3, r3, #2

----------------
IN: main
0x00010628:  e1a00003      mov	r0, r3

----------------
IN: main
0x0001062c:  ebffff9b      bl	0x104a0

----------------
IN: 
0x000104a0:  e28fc600      add	ip, pc, #0	; 0x0

----------------
IN: 
0x000104a4:  e28cca10      add	ip, ip, #65536	; 0x10000

----------------
IN: 
0x000104a8:  e5bcfb78      ldr	pc, [ip, #2936]!

----------------
IN: 
0x3fea0644:  e3560000      cmp	r6, #0	; 0x0
0x3fea0648:  ba000093      blt	0x3fea089c

----------------
IN: 
0x3fea0680:  e59f2300      ldr	r2, [pc, #768]	; 0x3fea0988
0x3fea0684:  e08f2002      add	r2, pc, r2
0x3fea0688:  e592203c      ldr	r2, [r2, #60]
0x3fea068c:  e1540002      cmp	r4, r2
0x3fea0690:  3a00004c      bcc	0x3fea07c8

----------------
IN: 
0x3fea07c8:  e1a02084      lsl	r2, r4, #1
0x3fea07cc:  e19320b2      ldrh	r2, [r3, r2]
0x3fea07d0:  e0830084      add	r0, r3, r4, lsl #1
0x3fea07d4:  e3520000      cmp	r2, #0	; 0x0
0x3fea07d8:  0affffad      beq	0x3fea0694

----------------
IN: 
0x3fe9f124:  e2457002      sub	r7, r5, #2	; 0x2
0x3fe9f128:  e08b7107      add	r7, fp, r7, lsl #2
0x3fe9f12c:  e597400c      ldr	r4, [r7, #12]
0x3fe9f130:  e2852001      add	r2, r5, #1	; 0x1
0x3fe9f134:  e3540000      cmp	r4, #0	; 0x0
0x3fe9f138:  e1a02102      lsl	r2, r2, #2
0x3fe9f13c:  1affff95      bne	0x3fe9ef98

----------------
IN: main
0x00010630:  e1a03000      mov	r3, r0

----------------
IN: main
0x00010634:  e50b3018      str	r3, [fp, #-24]

----------------
IN: main
0x00010638:  e51b3018      ldr	r3, [fp, #-24]

----------------
IN: main
0x0001063c:  e50b3034      str	r3, [fp, #-52]

----------------
IN: main
0x00010640:  e3a03000      mov	r3, #0	; 0x0

----------------
IN: main
0x00010644:  e50b3030      str	r3, [fp, #-48]

----------------
IN: main
0x00010648:  ea000008      b	0x10670

----------------
IN: main
0x00010670:  e51b3044      ldr	r3, [fp, #-68]

----------------
IN: main
0x00010674:  e51b2040      ldr	r2, [fp, #-64]

----------------
IN: main
0x00010678:  e0030392      mul	r3, r2, r3

----------------
IN: main
0x0001067c:  e51b2030      ldr	r2, [fp, #-48]

----------------
IN: main
0x00010680:  e1520003      cmp	r2, r3

----------------
IN: main
0x00010684:  bafffff0      blt	0x1064c

----------------
IN: main
0x0001064c:  e51b3034      ldr	r3, [fp, #-52]

----------------
IN: main
0x00010650:  e2832004      add	r2, r3, #4	; 0x4

----------------
IN: main
0x00010654:  e50b2034      str	r2, [fp, #-52]

----------------
IN: main
0x00010658:  e1a01003      mov	r1, r3

----------------
IN: main
0x0001065c:  e59f01fc      ldr	r0, [pc, #508]	; 0x10860

----------------
IN: main
0x00010660:  ebffff97      bl	0x104c4

----------------
IN: main
0x00010664:  e51b3030      ldr	r3, [fp, #-48]

----------------
IN: main
0x00010668:  e2833001      add	r3, r3, #1	; 0x1

----------------
IN: main
0x0001066c:  e50b3030      str	r3, [fp, #-48]

----------------
IN: main
0x00010688:  e24b3038      sub	r3, fp, #56	; 0x38

----------------
IN: main
0x0001068c:  e1a01003      mov	r1, r3

----------------
IN: main
0x00010690:  e59f01c8      ldr	r0, [pc, #456]	; 0x10860

----------------
IN: main
0x00010694:  ebffff8a      bl	0x104c4

----------------
IN: main
0x00010698:  e24b303c      sub	r3, fp, #60	; 0x3c

----------------
IN: main
0x0001069c:  e1a01003      mov	r1, r3

----------------
IN: main
0x000106a0:  e59f01b8      ldr	r0, [pc, #440]	; 0x10860

----------------
IN: main
0x000106a4:  ebffff86      bl	0x104c4

----------------
IN: main
0x000106a8:  e51b303c      ldr	r3, [fp, #-60]

----------------
IN: main
0x000106ac:  e51b2038      ldr	r2, [fp, #-56]

----------------
IN: main
0x000106b0:  e0030392      mul	r3, r2, r3

----------------
IN: main
0x000106b4:  e1a03103      lsl	r3, r3, #2

----------------
IN: main
0x000106b8:  e1a00003      mov	r0, r3

----------------
IN: main
0x000106bc:  ebffff77      bl	0x104a0

----------------
IN: main
0x000106c0:  e1a03000      mov	r3, r0

----------------
IN: main
0x000106c4:  e50b3014      str	r3, [fp, #-20]

----------------
IN: main
0x000106c8:  e51b3014      ldr	r3, [fp, #-20]

----------------
IN: main
0x000106cc:  e50b302c      str	r3, [fp, #-44]

----------------
IN: main
0x000106d0:  e3a03000      mov	r3, #0	; 0x0

----------------
IN: main
0x000106d4:  e50b3028      str	r3, [fp, #-40]

----------------
IN: main
0x000106d8:  ea000008      b	0x10700

----------------
IN: main
0x00010700:  e51b303c      ldr	r3, [fp, #-60]

----------------
IN: main
0x00010704:  e51b2038      ldr	r2, [fp, #-56]

----------------
IN: main
0x00010708:  e0030392      mul	r3, r2, r3

----------------
IN: main
0x0001070c:  e51b2028      ldr	r2, [fp, #-40]

----------------
IN: main
0x00010710:  e1520003      cmp	r2, r3

----------------
IN: main
0x00010714:  bafffff0      blt	0x106dc

----------------
IN: main
0x000106dc:  e51b302c      ldr	r3, [fp, #-44]

----------------
IN: main
0x000106e0:  e2832004      add	r2, r3, #4	; 0x4

----------------
IN: main
0x000106e4:  e50b202c      str	r2, [fp, #-44]

----------------
IN: main
0x000106e8:  e1a01003      mov	r1, r3

----------------
IN: main
0x000106ec:  e59f016c      ldr	r0, [pc, #364]	; 0x10860

----------------
IN: main
0x000106f0:  ebffff73      bl	0x104c4

----------------
IN: main
0x000106f4:  e51b3028      ldr	r3, [fp, #-40]

----------------
IN: main
0x000106f8:  e2833001      add	r3, r3, #1	; 0x1

----------------
IN: main
0x000106fc:  e50b3028      str	r3, [fp, #-40]

----------------
IN: 
0x3fe607c8:  e1a00009      mov	r0, r9
0x3fe607cc:  eb008ffe      bl	0x3fe847cc

----------------
IN: 
0x3fe83674:  e59f2338      ldr	r2, [pc, #824]	; 0x3fe839b4
0x3fe83678:  e1130002      tst	r3, r2
0x3fe8367c:  0a000040      beq	0x3fe83784

----------------
IN: 
0x3fe8382c:  e5953000      ldr	r3, [r5]
0x3fe83830:  e3e00000      mvn	r0, #0	; 0x0
0x3fe83834:  03832010      orreq	r2, r3, #16	; 0x10
0x3fe83838:  13832020      orrne	r2, r3, #32	; 0x20
0x3fe8383c:  e3e01000      mvn	r1, #0	; 0x0
0x3fe83840:  e3e03000      mvn	r3, #0	; 0x0
0x3fe83844:  e5850050      str	r0, [r5, #80]
0x3fe83848:  e5851054      str	r1, [r5, #84]
0x3fe8384c:  e5852000      str	r2, [r5]
0x3fe83850:  e1a00003      mov	r0, r3
0x3fe83854:  e8bd87f0      pop	{r4, r5, r6, r7, r8, r9, sl, pc}

----------------
IN: 
0x3fe607d0:  e3700001      cmn	r0, #1	; 0x1
0x3fe607d4:  e1a08000      mov	r8, r0
0x3fe607d8:  1afffe03      bne	0x3fe5ffec

----------------
IN: 
0x3fe607dc:  ebff35c3      bl	0x3fe2def0

----------------
IN: 
0x3fe607e0:  e59f3f10      ldr	r3, [pc, #3856]	; 0x3fe616f8
0x3fe607e4:  e50ba58c      str	sl, [fp, #-1420]
0x3fe607e8:  e79f3003      ldr	r3, [pc, r3]
0x3fe607ec:  e7903003      ldr	r3, [r0, r3]
0x3fe607f0:  e50b3580      str	r3, [fp, #-1408]
0x3fe607f4:  eaffff79      b	0x3fe605e0

----------------
IN: 
0x3fe605e0:  e3e08000      mvn	r8, #0	; 0x0
0x3fe605e4:  e51b344c      ldr	r3, [fp, #-1100]
0x3fe605e8:  eafffe8d      b	0x3fe60024

----------------
IN: 
0x3fe60024:  e3530000      cmp	r3, #0	; 0x0
0x3fe60028:  0a00063d      beq	0x3fe61924

----------------
IN: 
0x3fe60b08:  e51b1448      ldr	r1, [fp, #-1096]
0x3fe60b0c:  e1530001      cmp	r3, r1
0x3fe60b10:  1afffd55      bne	0x3fe6006c

----------------
IN: main
0x00010718:  e51b3040      ldr	r3, [fp, #-64]

----------------
IN: main
0x0001071c:  e51b203c      ldr	r2, [fp, #-60]

----------------
IN: main
0x00010720:  e0030392      mul	r3, r2, r3

----------------
IN: main
0x00010724:  e1a03103      lsl	r3, r3, #2

----------------
IN: main
0x00010728:  e1a00003      mov	r0, r3

----------------
IN: main
0x0001072c:  ebffff5b      bl	0x104a0

----------------
IN: main
0x00010730:  e1a03000      mov	r3, r0

----------------
IN: main
0x00010734:  e50b3010      str	r3, [fp, #-16]

----------------
IN: main
0x00010738:  e51b3010      ldr	r3, [fp, #-16]

----------------
IN: main
0x0001073c:  e50b3024      str	r3, [fp, #-36]

----------------
IN: main
0x00010740:  e51b0040      ldr	r0, [fp, #-64]

----------------
IN: main
0x00010744:  e51b1044      ldr	r1, [fp, #-68]

----------------
IN: main
0x00010748:  e51bc038      ldr	ip, [fp, #-56]

----------------
IN: main
0x0001074c:  e51b303c      ldr	r3, [fp, #-60]

----------------
IN: main
0x00010750:  e51b2010      ldr	r2, [fp, #-16]

----------------
IN: main
0x00010754:  e58d2008      str	r2, [sp, #8]

----------------
IN: main
0x00010758:  e51b2014      ldr	r2, [fp, #-20]

----------------
IN: main
0x0001075c:  e58d2004      str	r2, [sp, #4]

----------------
IN: main
0x00010760:  e58d3000      str	r3, [sp]

----------------
IN: main
0x00010764:  e1a0300c      mov	r3, ip

----------------
IN: main
0x00010768:  e51b2018      ldr	r2, [fp, #-24]

----------------
IN: main
0x0001076c:  eb00003f      bl	0x10870

